###############################################################################
#
# IAR ELF Linker V8.20.1.14183/W32 for ARM                03/Jan/2018  13:53:57
# Copyright 2007-2017 IAR Systems AB.
#
#    Output file  =  
#        C:\repo\AliOS-Things\projects\IAR\mqttapp\Debug\Exe\mqtt_example.out
#    Map file     =  
#        C:\repo\AliOS-Things\projects\IAR\mqttapp\Debug\List\mqtt_example.map
#    Command line =  
#        -f C:\Users\SHENGP~1.DSP\AppData\Local\Temp\EW59D8.tmp
#        (C:\repo\AliOS-Things\projects\IAR\mqttapp\Debug\Obj\aos.o
#        C:\repo\AliOS-Things\projects\IAR\mqttapp\Debug\Obj\aos_init.o
#        C:\repo\AliOS-Things\projects\IAR\mqttapp\Debug\Obj\aos_rhino.o
#        C:\repo\AliOS-Things\projects\IAR\mqttapp\Debug\Obj\board.o
#        C:\repo\AliOS-Things\projects\IAR\mqttapp\Debug\Obj\ca.o
#        C:\repo\AliOS-Things\projects\IAR\mqttapp\Debug\Obj\CheckSumUtils.o
#        C:\repo\AliOS-Things\projects\IAR\mqttapp\Debug\Obj\cJSON.o
#        C:\repo\AliOS-Things\projects\IAR\mqttapp\Debug\Obj\cli.o
#        C:\repo\AliOS-Things\projects\IAR\mqttapp\Debug\Obj\device.o
#        C:\repo\AliOS-Things\projects\IAR\mqttapp\Debug\Obj\device_iar.o
#        C:\repo\AliOS-Things\projects\IAR\mqttapp\Debug\Obj\download_common.o
#        C:\repo\AliOS-Things\projects\IAR\mqttapp\Debug\Obj\dumpsys.o
#        C:\repo\AliOS-Things\projects\IAR\mqttapp\Debug\Obj\es_wifi.o
#        C:\repo\AliOS-Things\projects\IAR\mqttapp\Debug\Obj\es_wifi_io.o
#        C:\repo\AliOS-Things\projects\IAR\mqttapp\Debug\Obj\flash_l4.o
#        C:\repo\AliOS-Things\projects\IAR\mqttapp\Debug\Obj\flash_port.o
#        C:\repo\AliOS-Things\projects\IAR\mqttapp\Debug\Obj\guider.o
#        C:\repo\AliOS-Things\projects\IAR\mqttapp\Debug\Obj\HAL_OS_rhino.o
#        C:\repo\AliOS-Things\projects\IAR\mqttapp\Debug\Obj\HAL_TCP_rhino.o
#        C:\repo\AliOS-Things\projects\IAR\mqttapp\Debug\Obj\HAL_TLS_mbedtls.o
#        C:\repo\AliOS-Things\projects\IAR\mqttapp\Debug\Obj\hts221.o
#        C:\repo\AliOS-Things\projects\IAR\mqttapp\Debug\Obj\hw.o
#        C:\repo\AliOS-Things\projects\IAR\mqttapp\Debug\Obj\iar_libc.o
#        C:\repo\AliOS-Things\projects\IAR\mqttapp\Debug\Obj\json_parser.o
#        C:\repo\AliOS-Things\projects\IAR\mqttapp\Debug\Obj\json_token.o
#        C:\repo\AliOS-Things\projects\IAR\mqttapp\Debug\Obj\k_buf_queue.o
#        C:\repo\AliOS-Things\projects\IAR\mqttapp\Debug\Obj\k_dyn_mem_proc.o
#        C:\repo\AliOS-Things\projects\IAR\mqttapp\Debug\Obj\k_err.o
#        C:\repo\AliOS-Things\projects\IAR\mqttapp\Debug\Obj\k_event.o
#        C:\repo\AliOS-Things\projects\IAR\mqttapp\Debug\Obj\k_fifo.o
#        C:\repo\AliOS-Things\projects\IAR\mqttapp\Debug\Obj\k_idle.o
#        C:\repo\AliOS-Things\projects\IAR\mqttapp\Debug\Obj\k_mm.o
#        C:\repo\AliOS-Things\projects\IAR\mqttapp\Debug\Obj\k_mm_blk.o
#        C:\repo\AliOS-Things\projects\IAR\mqttapp\Debug\Obj\k_mm_debug.o
#        C:\repo\AliOS-Things\projects\IAR\mqttapp\Debug\Obj\k_mutex.o
#        C:\repo\AliOS-Things\projects\IAR\mqttapp\Debug\Obj\k_obj.o
#        C:\repo\AliOS-Things\projects\IAR\mqttapp\Debug\Obj\k_obj_set.o
#        C:\repo\AliOS-Things\projects\IAR\mqttapp\Debug\Obj\k_pend.o
#        C:\repo\AliOS-Things\projects\IAR\mqttapp\Debug\Obj\k_queue.o
#        C:\repo\AliOS-Things\projects\IAR\mqttapp\Debug\Obj\k_ringbuf.o
#        C:\repo\AliOS-Things\projects\IAR\mqttapp\Debug\Obj\k_sched.o
#        C:\repo\AliOS-Things\projects\IAR\mqttapp\Debug\Obj\k_sem.o
#        C:\repo\AliOS-Things\projects\IAR\mqttapp\Debug\Obj\k_stats.o
#        C:\repo\AliOS-Things\projects\IAR\mqttapp\Debug\Obj\k_sys.o
#        C:\repo\AliOS-Things\projects\IAR\mqttapp\Debug\Obj\k_task.o
#        C:\repo\AliOS-Things\projects\IAR\mqttapp\Debug\Obj\k_task_sem.o
#        C:\repo\AliOS-Things\projects\IAR\mqttapp\Debug\Obj\k_tick.o
#        C:\repo\AliOS-Things\projects\IAR\mqttapp\Debug\Obj\k_time.o
#        C:\repo\AliOS-Things\projects\IAR\mqttapp\Debug\Obj\k_timer.o
#        C:\repo\AliOS-Things\projects\IAR\mqttapp\Debug\Obj\k_trace.o
#        C:\repo\AliOS-Things\projects\IAR\mqttapp\Debug\Obj\k_workqueue.o
#        C:\repo\AliOS-Things\projects\IAR\mqttapp\Debug\Obj\kvmgr.o
#        C:\repo\AliOS-Things\projects\IAR\mqttapp\Debug\Obj\lis3mdl.o
#        C:\repo\AliOS-Things\projects\IAR\mqttapp\Debug\Obj\lite-log.o
#        C:\repo\AliOS-Things\projects\IAR\mqttapp\Debug\Obj\local_event.o
#        C:\repo\AliOS-Things\projects\IAR\mqttapp\Debug\Obj\log.o
#        C:\repo\AliOS-Things\projects\IAR\mqttapp\Debug\Obj\lps22hb.o
#        C:\repo\AliOS-Things\projects\IAR\mqttapp\Debug\Obj\lsm6dsl.o
#        C:\repo\AliOS-Things\projects\IAR\mqttapp\Debug\Obj\main.o
#        C:\repo\AliOS-Things\projects\IAR\mqttapp\Debug\Obj\mbedtls_net.o
#        C:\repo\AliOS-Things\projects\IAR\mqttapp\Debug\Obj\mbedtls_ssl.o
#        C:\repo\AliOS-Things\projects\IAR\mqttapp\Debug\Obj\md5.o
#        C:\repo\AliOS-Things\projects\IAR\mqttapp\Debug\Obj\mem_stats.o
#        C:\repo\AliOS-Things\projects\IAR\mqttapp\Debug\Obj\mqtt-example-b_l475e.o
#        C:\repo\AliOS-Things\projects\IAR\mqttapp\Debug\Obj\mqtt_client.o
#        C:\repo\AliOS-Things\projects\IAR\mqttapp\Debug\Obj\MQTTConnectClient.o
#        C:\repo\AliOS-Things\projects\IAR\mqttapp\Debug\Obj\MQTTDeserializePublish.o
#        C:\repo\AliOS-Things\projects\IAR\mqttapp\Debug\Obj\MQTTPacket.o
#        C:\repo\AliOS-Things\projects\IAR\mqttapp\Debug\Obj\MQTTSerializePublish.o
#        C:\repo\AliOS-Things\projects\IAR\mqttapp\Debug\Obj\MQTTSubscribeClient.o
#        C:\repo\AliOS-Things\projects\IAR\mqttapp\Debug\Obj\MQTTUnsubscribeClient.o
#        C:\repo\AliOS-Things\projects\IAR\mqttapp\Debug\Obj\netmgr.o
#        C:\repo\AliOS-Things\projects\IAR\mqttapp\Debug\Obj\osa_flash.o
#        C:\repo\AliOS-Things\projects\IAR\mqttapp\Debug\Obj\ota.o
#        C:\repo\AliOS-Things\projects\IAR\mqttapp\Debug\Obj\ota_download.o
#        C:\repo\AliOS-Things\projects\IAR\mqttapp\Debug\Obj\ota_platform_os.o
#        C:\repo\AliOS-Things\projects\IAR\mqttapp\Debug\Obj\ota_port.o
#        C:\repo\AliOS-Things\projects\IAR\mqttapp\Debug\Obj\ota_service.o
#        C:\repo\AliOS-Things\projects\IAR\mqttapp\Debug\Obj\ota_socket.o
#        C:\repo\AliOS-Things\projects\IAR\mqttapp\Debug\Obj\ota_transport.o
#        C:\repo\AliOS-Things\projects\IAR\mqttapp\Debug\Obj\ota_update_manifest.o
#        C:\repo\AliOS-Things\projects\IAR\mqttapp\Debug\Obj\ota_util.o
#        C:\repo\AliOS-Things\projects\IAR\mqttapp\Debug\Obj\ota_version.o
#        C:\repo\AliOS-Things\projects\IAR\mqttapp\Debug\Obj\port_c.o
#        C:\repo\AliOS-Things\projects\IAR\mqttapp\Debug\Obj\port_s.o
#        C:\repo\AliOS-Things\projects\IAR\mqttapp\Debug\Obj\sdk-impl.o
#        C:\repo\AliOS-Things\projects\IAR\mqttapp\Debug\Obj\sensors_data.o
#        C:\repo\AliOS-Things\projects\IAR\mqttapp\Debug\Obj\soc_impl.o
#        C:\repo\AliOS-Things\projects\IAR\mqttapp\Debug\Obj\soc_init.o
#        C:\repo\AliOS-Things\projects\IAR\mqttapp\Debug\Obj\startup_stm32l475xx_icc.o
#        C:\repo\AliOS-Things\projects\IAR\mqttapp\Debug\Obj\stm32l475e_iot01.o
#        C:\repo\AliOS-Things\projects\IAR\mqttapp\Debug\Obj\stm32l475e_iot01_accelero.o
#        C:\repo\AliOS-Things\projects\IAR\mqttapp\Debug\Obj\stm32l475e_iot01_gyro.o
#        C:\repo\AliOS-Things\projects\IAR\mqttapp\Debug\Obj\stm32l475e_iot01_hsensor.o
#        C:\repo\AliOS-Things\projects\IAR\mqttapp\Debug\Obj\stm32l475e_iot01_magneto.o
#        C:\repo\AliOS-Things\projects\IAR\mqttapp\Debug\Obj\stm32l475e_iot01_psensor.o
#        C:\repo\AliOS-Things\projects\IAR\mqttapp\Debug\Obj\stm32l475e_iot01_qspi.o
#        C:\repo\AliOS-Things\projects\IAR\mqttapp\Debug\Obj\stm32l475e_iot01_tsensor.o
#        C:\repo\AliOS-Things\projects\IAR\mqttapp\Debug\Obj\stm32l4xx_hal.o
#        C:\repo\AliOS-Things\projects\IAR\mqttapp\Debug\Obj\stm32l4xx_hal_cortex.o
#        C:\repo\AliOS-Things\projects\IAR\mqttapp\Debug\Obj\stm32l4xx_hal_dma.o
#        C:\repo\AliOS-Things\projects\IAR\mqttapp\Debug\Obj\stm32l4xx_hal_flash.o
#        C:\repo\AliOS-Things\projects\IAR\mqttapp\Debug\Obj\stm32l4xx_hal_flash_ex.o
#        C:\repo\AliOS-Things\projects\IAR\mqttapp\Debug\Obj\stm32l4xx_hal_gpio.o
#        C:\repo\AliOS-Things\projects\IAR\mqttapp\Debug\Obj\stm32l4xx_hal_i2c.o
#        C:\repo\AliOS-Things\projects\IAR\mqttapp\Debug\Obj\stm32l4xx_hal_i2c_ex.o
#        C:\repo\AliOS-Things\projects\IAR\mqttapp\Debug\Obj\stm32l4xx_hal_msp.o
#        C:\repo\AliOS-Things\projects\IAR\mqttapp\Debug\Obj\stm32l4xx_hal_msp_template.o
#        C:\repo\AliOS-Things\projects\IAR\mqttapp\Debug\Obj\stm32l4xx_hal_pwr.o
#        C:\repo\AliOS-Things\projects\IAR\mqttapp\Debug\Obj\stm32l4xx_hal_pwr_ex.o
#        C:\repo\AliOS-Things\projects\IAR\mqttapp\Debug\Obj\stm32l4xx_hal_qspi.o
#        C:\repo\AliOS-Things\projects\IAR\mqttapp\Debug\Obj\stm32l4xx_hal_rcc.o
#        C:\repo\AliOS-Things\projects\IAR\mqttapp\Debug\Obj\stm32l4xx_hal_rcc_ex.o
#        C:\repo\AliOS-Things\projects\IAR\mqttapp\Debug\Obj\stm32l4xx_hal_rng.o
#        C:\repo\AliOS-Things\projects\IAR\mqttapp\Debug\Obj\stm32l4xx_hal_rtc.o
#        C:\repo\AliOS-Things\projects\IAR\mqttapp\Debug\Obj\stm32l4xx_hal_rtc_ex.o
#        C:\repo\AliOS-Things\projects\IAR\mqttapp\Debug\Obj\stm32l4xx_hal_spi.o
#        C:\repo\AliOS-Things\projects\IAR\mqttapp\Debug\Obj\stm32l4xx_hal_spi_ex.o
#        C:\repo\AliOS-Things\projects\IAR\mqttapp\Debug\Obj\stm32l4xx_hal_uart.o
#        C:\repo\AliOS-Things\projects\IAR\mqttapp\Debug\Obj\stm32l4xx_hal_uart_ex.o
#        C:\repo\AliOS-Things\projects\IAR\mqttapp\Debug\Obj\stm32l4xx_it.o
#        C:\repo\AliOS-Things\projects\IAR\mqttapp\Debug\Obj\string_utils.o
#        C:\repo\AliOS-Things\projects\IAR\mqttapp\Debug\Obj\system_stm32l4xx.o
#        C:\repo\AliOS-Things\projects\IAR\mqttapp\Debug\Obj\trace_impl.o
#        C:\repo\AliOS-Things\projects\IAR\mqttapp\Debug\Obj\utils_base64.o
#        C:\repo\AliOS-Things\projects\IAR\mqttapp\Debug\Obj\utils_epoch_time.o
#        C:\repo\AliOS-Things\projects\IAR\mqttapp\Debug\Obj\utils_hmac.o
#        C:\repo\AliOS-Things\projects\IAR\mqttapp\Debug\Obj\utils_httpc.o
#        C:\repo\AliOS-Things\projects\IAR\mqttapp\Debug\Obj\utils_list.o
#        C:\repo\AliOS-Things\projects\IAR\mqttapp\Debug\Obj\utils_md5.o
#        C:\repo\AliOS-Things\projects\IAR\mqttapp\Debug\Obj\utils_net.o
#        C:\repo\AliOS-Things\projects\IAR\mqttapp\Debug\Obj\utils_sha1.o
#        C:\repo\AliOS-Things\projects\IAR\mqttapp\Debug\Obj\utils_timer.o
#        C:\repo\AliOS-Things\projects\IAR\mqttapp\Debug\Obj\version.o
#        C:\repo\AliOS-Things\projects\IAR\mqttapp\Debug\Obj\vfs.o
#        C:\repo\AliOS-Things\projects\IAR\mqttapp\Debug\Obj\vfs_inode.o
#        C:\repo\AliOS-Things\projects\IAR\mqttapp\Debug\Obj\vfs_register.o
#        C:\repo\AliOS-Things\projects\IAR\mqttapp\Debug\Obj\vl53l0x_api.o
#        C:\repo\AliOS-Things\projects\IAR\mqttapp\Debug\Obj\vl53l0x_api_calibration.o
#        C:\repo\AliOS-Things\projects\IAR\mqttapp\Debug\Obj\vl53l0x_api_core.o
#        C:\repo\AliOS-Things\projects\IAR\mqttapp\Debug\Obj\vl53l0x_api_ranging.o
#        C:\repo\AliOS-Things\projects\IAR\mqttapp\Debug\Obj\vl53l0x_api_strings.o
#        C:\repo\AliOS-Things\projects\IAR\mqttapp\Debug\Obj\vl53l0x_platform.o
#        C:\repo\AliOS-Things\projects\IAR\mqttapp\Debug\Obj\vl53l0x_platform_log.o
#        C:\repo\AliOS-Things\projects\IAR\mqttapp\Debug\Obj\vl53l0x_proximity.o
#        C:\repo\AliOS-Things\projects\IAR\mqttapp\Debug\Obj\wifi.o
#        C:\repo\AliOS-Things\projects\IAR\mqttapp\Debug\Obj\wifi_iar.o
#        C:\repo\AliOS-Things\projects\IAR\mqttapp\Debug\Obj\wifi_port.o
#        C:\repo\AliOS-Things\projects\IAR\mqttapp\Debug\Obj\yloop.o -o
#        C:\repo\AliOS-Things\projects\IAR\mqttapp\Debug\Exe\mqtt_example.out
#        --map
#        C:\repo\AliOS-Things\projects\IAR\mqttapp\Debug\List\mqtt_example.map
#        --log
#        libraries,initialization,modules,redirects,sections,veneers,unused_fragments,call_graph
#        --log_file
#        C:\repo\AliOS-Things\projects\IAR\mqttapp\Debug\List\mqtt_example.log
#        --config C:\repo\AliOS-Things\projects\IAR\mqttapp\alios.icf
#        --semihosting
#        C:\repo\AliOS-Things\projects\IAR\mqttapp\..\..\..\security\mbedtls\lib\Cortex-M4\IAR\libmbedtls.a
#        C:\repo\AliOS-Things\projects\IAR\mqttapp\..\..\..\security\alicrypto\lib\Cortex-M4\IAR\libmbedcrytpo.a
#        C:\repo\AliOS-Things\projects\IAR\mqttapp\..\..\..\security\alicrypto\lib\Cortex-M4\IAR\libalicrypto.a
#        --entry __iar_program_start --vfe --text_out locale)
#
###############################################################################

*******************************************************************************
*** RUNTIME MODEL ATTRIBUTES
***

CppFlavor       = *
__SystemLibrary = DLib
__dlib_version  = 6


*******************************************************************************
*** HEAP SELECTION
***

The basic heap was selected because no calls to memory allocation
functions were found in the application outside of system library
functions, and there are calls to deallocation functions in the
application.


*******************************************************************************
*** PLACEMENT SUMMARY
***

"A1":  place at 0x08000000 { ro section .intvec };
"P1":  place in [from 0x08000000 to 0x080647ff] |
                [from 0x08066800 to 0x080fffff] { ro };
define block CSTACK with size = 8K, alignment = 8 { };
define block HEAP with size = 67K, alignment = 8 { };
"P2":  place in [from 0x20000000 to 0x20017fff] {
          block CSTACK, rw, block HEAP };
initialize by copy { rw };

No sections matched the following patterns:

  ro section INITED_FIXED_LOC  in "P4"
  ro section UNINIT_FIXED_LOC  in "P3"
  ro section firewall_section  in "A0"


  Section            Kind        Address     Size  Object
  -------            ----        -------     ----  ------
"A1":                                       0x188
  .intvec            ro code  0x08000000    0x188  startup_stm32l475xx_icc.o [1]
                            - 0x08000188    0x188

"P1":                                     0x35d34
  .text              ro code  0x08000188   0x2c80  mqtt_client.o [1]
  .text              ro code  0x08002e08    0x1ac  lite-log.o [1]
  .text              ro code  0x08002fb4     0x36  strlen.o [8]
  .text              ro code  0x08002fea     0x1e  xsscin.o [3]
  .text              ro code  0x08003008     0x66  ABImemset.o [8]
  .text              ro code  0x0800306e     0x1a  xsnprout.o [3]
  .text              ro code  0x08003088     0x70  strncpy.o [8]
  .text              ro code  0x080030f8     0x48  strtok.o [3]
  .text              ro code  0x08003140     0xdc  utils_timer.o [1]
  .text              ro code  0x0800321c     0x8a  HAL_OS_rhino.o [1]
  .text              ro code  0x080032a6      0xa  xsprout.o [3]
  .text              ro code  0x080032b0    0x300  MQTTConnectClient.o [1]
  .text              ro code  0x080035b0    0x150  MQTTSerializePublish.o [1]
  .text              ro code  0x08003700    0x21c  utils_list.o [1]
  .text              ro code  0x0800391c    0x188  MQTTSubscribeClient.o [1]
  .text              ro code  0x08003aa4    0x10c  MQTTUnsubscribeClient.o [1]
  .text              ro code  0x08003bb0     0x74  mem_stats.o [1]
  .text              ro code  0x08003c24     0xa6  ABImemcpy.o [8]
  .rodata            const    0x08003cca      0x2  stm32l475e_iot01.o [1]
  .text              ro code  0x08003ccc    0x258  MQTTPacket.o [1]
  .text              ro code  0x08003f24    0x128  MQTTDeserializePublish.o [1]
  .text              ro code  0x0800404c     0x28  strncmp.o [3]
  .text              ro code  0x08004074    0x250  utils_net.o [1]
  .text              ro code  0x080042c4    0xc8c  guider.o [1]
  .text              ro code  0x08004f50     0x28  printf.o [3]
  .text              ro code  0x08004f78     0x3c  vsnprint.o [3]
  .text              ro code  0x08004fb4     0x16  strchr.o [8]
  .text              ro code  0x08004fca     0x22  strspn.o [3]
  .text              ro code  0x08004fec     0x22  strcspn.o [3]
  .rodata            const    0x0800500e      0x2  stm32l475e_iot01.o [1]
  .text              ro code  0x08005010    0x8a0  aos_rhino.o [1]
  .text              ro code  0x080058b0     0x20  vprintf.o [3]
  .text              ro code  0x080058d0     0xac  fflush.o [3]
  .text              ro code  0x0800597c     0x3c  iar_libc.o [1]
  .text              ro code  0x080059b8    0x180  HAL_TCP_rhino.o [1]
  .text              ro code  0x08005b38    0x738  HAL_TLS_mbedtls.o [1]
  .text              ro code  0x08006270    0x11c  device_iar.o [1]
  .text              ro code  0x0800638c     0x24  ABIassert.o [9]
  .text              ro code  0x080063b0     0x44  snprintf.o [3]
  .text              ro code  0x080063f4    0x100  utils_hmac.o [1]
  .text              ro code  0x080064f4   0x1234  utils_httpc.o [1]
  .text              ro code  0x08007728      0x6  ABImemclr4.o [8]
  .rodata            const    0x0800772e      0x1  guider.o [1]
  .rodata            const    0x0800772f      0x1  kvmgr.o [1]
  .text              ro code  0x08007730      0xc  ca.o [1]
  .text              ro code  0x0800773c    0x11c  json_token.o [1]
  .text              ro code  0x08007858    0x17c  iar_Stoulx.o [3]
  .text              ro code  0x080079d4     0x4c  strcpy.o [8]
  .text              ro code  0x08007a20     0x20  strcat.o [3]
  .text              ro code  0x08007a40     0x40  sprintf.o [3]
  .text              ro code  0x08007a80     0x30  strstr.o [3]
  .text              ro code  0x08007ab0    0xde2  xprintffull_nomb.o [3]
  .rodata            const    0x08008892      0x1  kvmgr.o [1]
  .text              ro code  0x08008894     0x2c  hw.o [1]
  .text              ro code  0x080088c0    0x8f4  k_task.o [1]
  .text              ro code  0x080091b4    0x430  k_mutex.o [1]
  .text              ro code  0x080095e4     0xa2  k_time.o [1]
  .text              ro code  0x08009688    0x2c0  k_sem.o [1]
  .text              ro code  0x08009948    0xafc  k_mm.o [1]
  .text              ro code  0x0800a444    0x1a2  k_sys.o [1]
  .text              ro code  0x0800a5e6     0x10  write.o [9]
  .text              ro code  0x0800a5f6     0x14  memset.o [8]
  .text              ro code  0x0800a60c    0x284  wifi_iar.o [1]
  .text              ro code  0x0800a890     0xa8  rand.o [3]
  .text              ro code  0x0800a938     0x3c  fprintf.o [3]
  .text              ro code  0x0800a974    0x274  mbedtls_net.o [1]
  .text              ro code  0x0800abe8   0x1eb8  ssl_tls.o [6]
  .text              ro code  0x0800caa0    0xb54  x509_crt.o [6]
  .text              ro code  0x0800d5f4     0x38  errno.o [3]
  .text              ro code  0x0800d62c      0x6  abort.o [3]
  .text              ro code  0x0800d634   0x18a4  utils_sha1.o [1]
  .text              ro code  0x0800eed8     0x14  utils_md5.o [1]
  .text              ro code  0x0800eeec     0x4a  strcmp.o [8]
  .text              ro code  0x0800ef38     0x28  sscanf.o [3]
  .text              ro code  0x0800ef60     0x96  ABImemmove.o [8]
  .text              ro code  0x0800eff8     0x32  ABImemset48.o [8]
  .text              ro code  0x0800f02c    0x3c4  json_parser.o [1]
  .text              ro code  0x0800f3f0     0x14  isspace.o [3]
  .text              ro code  0x0800f404     0x14  tolower.o [3]
  .text              ro code  0x0800f418     0x58  memchr.o [8]
  .text              ro code  0x0800f470     0x44  xfail_s.o [3]
  .text              ro code  0x0800f4b4    0x22e  I64DivMod.o [8]
  .text              ro code  0x0800f6e4    0x1a2  DblMul.o [7]
  .text              ro code  0x0800f888     0x70  frexp.o [7]
  .text              ro code  0x0800f8f8     0x2e  DblCmpLe.o [7]
  .text              ro code  0x0800f928     0x2e  DblCmpGe.o [7]
  .text              ro code  0x0800f958    0x13a  ldexp.o [7]
  .text              ro code  0x0800fa94     0x3a  DblToS32.o [7]
  .text              ro code  0x0800fad0     0x22  S32ToDbl.o [7]
  .text              ro code  0x0800faf4     0xe2  DblSub.o [7]
  .text              ro code  0x0800fbd8    0x246  DblDiv.o [7]
  .text              ro code  0x0800fe20     0x28  DblToU32.o [7]
  .text              ro code  0x0800fe48     0x1a  U32ToDbl.o [7]
  .text              ro code  0x0800fe64     0x40  xlocale_c.o [3]
  .text              ro code  0x0800fea4    0x16c  stm32l4xx_hal_cortex.o [1]
  .text              ro code  0x08010010     0xea  wifi.o [1]
  .text              ro code  0x080100fc     0x7e  ota.o [1]
  CODE               ro code  0x0801017c     0x8c  port_s.o [1]
  .text              ro code  0x08010208     0xf4  port_c.o [1]
  .text              ro code  0x080102fc    0x440  k_sched.o [1]
  .text              ro code  0x0801073c    0x1ac  k_tick.o [1]
  .text              ro code  0x080108e8    0x194  k_pend.o [1]
  .text              ro code  0x08010a7c     0x80  soc_impl.o [1]
  .text              ro code  0x08010afc     0x1c  k_err.o [1]
  .text              ro code  0x08010b18    0x172  k_mm_blk.o [1]
  .text              ro code  0x08010c8c    0x29c  k_mm_debug.o [1]
  .text              ro code  0x08010f28     0x50  k_stats.o [1]
  .text              ro code  0x08010f78     0xd0  k_dyn_mem_proc.o [1]
  .text              ro code  0x08011048    0x408  k_timer.o [1]
  .text              ro code  0x08011450     0x1e  dwrite.o [9]
  .text              ro code  0x08011470    0xab4  es_wifi.o [1]
  .text              ro code  0x08011f24    0x28c  md.o [6]
  .text              ro code  0x080121b0    0x3ce  cipher.o [6]
  .text              ro code  0x08012580    0xbf8  sha256.o [6]
  .text              ro code  0x08013178      0x6  ABImemclr.o [8]
  .text              ro code  0x08013180     0x68  memcmp.o [8]
  .text              ro code  0x080131e8     0x1e  U64Shr.o [8]
  .text              ro code  0x08013208     0x22  I64Shl.o [8]
  .text              ro code  0x0801322c    0x9b2  ssl_cli.o [6]
  .text              ro code  0x08013be0    0x108  ssl_ciphersuites.o [6]
  .text              ro code  0x08013ce8    0x1d4  pk.o [6]
  .text              ro code  0x08013ebc    0x1c8  asn1parse.o [6]
  .text              ro code  0x08014084    0x26c  x509.o [6]
  .text              ro code  0x080142f0    0x168  pkparse.o [6]
  .text              ro code  0x08014458    0x408  pem.o [6]
  .text              ro code  0x08014860      0x4  tp_nothreads.o [3]
  .text              ro code  0x08014864     0x14  exit.o [9]
  .text              ro code  0x08014878    0x6c4  xscanflarge_nomb.o [3]
  .text              ro code  0x08014f3c      0x2  I64DivZer.o [8]
  .text              ro code  0x08014f40    0x178  DblAdd.o [7]
  .text              ro code  0x080150b8    0xea4  cli.o [1]
  .text              ro code  0x08015f5c    0x1d0  k_queue.o [1]
  .text              ro code  0x0801612c     0x20  iarwstd.o [9]
  .text              ro code  0x0801614c     0x22  iarwrite.o [9]
  .text              ro code  0x08016170    0x9fc  md5.o [6]
  .text              ro code  0x08016b6c    0x718  mbedtls_alt.o [6]
  .text              ro code  0x08017284    0x184  base64.o [6]
  .text              ro code  0x08017408     0x7c  iarttio.o [9]
  .text              ro code  0x08017484     0x86  iar_Stolx.o [3]
  .text              ro code  0x0801750c     0x24  log.o [1]
  .text              ro code  0x08017530     0x3c  log.o [1]
  .text              ro code  0x0801756c    0x674  dumpsys.o [1]
  .text              ro code  0x08017be0    0x5d0  soc_init.o [1]
  .text              ro code  0x080181b0    0x246  k_ringbuf.o [1]
  .text              ro code  0x080183f8     0x4c  XShHandles.o [3]
  .text              ro code  0x08018444    0x6e0  aes.o [4]
  .text              ro code  0x08018b24    0xc5c  rsa.o [4]
  .text              ro code  0x08019780     0x3c  XShttio.o [3]
  .text              ro code  0x080197bc     0x16  stm32l4xx_hal.o [1]
  .text              ro code  0x080197d4    0x54c  stm32l475e_iot01.o [1]
  .text              ro code  0x08019d20     0x46  stm32l4xx_hal_rng.o [1]
  .text              ro code  0x08019d68    0xa94  stm32l4xx_hal_rcc.o [1]
  .text              ro code  0x0801a7fc    0x830  stm32l4xx_hal_rcc_ex.o [1]
  .text              ro code  0x0801b02c     0xa8  stm32l4xx_hal_pwr_ex.o [1]
  .text              ro code  0x0801b0d4      0xc  stm32l4xx_hal.o [1]
  .text              ro code  0x0801b0e0    0xaa6  stm32l4xx_hal_uart.o [1]
  .text              ro code  0x0801bb88    0x3b0  stm32l4xx_hal_rtc.o [1]
  .text              ro code  0x0801bf38     0x20  stm32l4xx_hal.o [1]
  .text              ro code  0x0801bf58    0xde6  aes.o [5]
  .text              ro code  0x0801cd40     0xe4  ali_crypto_rand.o [4]
  .text              ro code  0x0801ce24   0x18d0  bignum.o [5]
  .text              ro code  0x0801e6f4    0x9e4  rsa.o [5]
  .text              ro code  0x0801f0d8     0x28  stm32l4xx_hal.o [1]
  .text              ro code  0x0801f100      0x2  stm32l4xx_hal_msp_template.o [1]
  .text              ro code  0x0801f104    0x278  stm32l4xx_hal_gpio.o [1]
  .text              ro code  0x0801f37c    0xc0a  stm32l4xx_hal_i2c.o [1]
  .text              ro code  0x0801ff88     0x64  stm32l4xx_hal_i2c_ex.o [1]
  .text              ro code  0x0801ffec     0x4c  stm32l4xx_hal_msp.o [1]
  .text              ro code  0x08020038     0x58  stm32l4xx_hal_dma.o [1]
  .text              ro code  0x08020090      0x2  stm32l4xx_hal_uart.o [1]
  .text              ro code  0x08020092      0x2  stm32l4xx_hal_uart_ex.o [1]
  .text              ro code  0x08020094     0x44  threading.o [6]
  .text              ro code  0x080200d8     0xcc  oid.o [5]
  .text              ro code  0x080201a4      0x2  stm32l4xx_hal_i2c.o [1]
  .text              ro code  0x080201a8   0x1b76  vl53l0x_api_core.o [1]
  .text              ro code  0x08021d20   0x12a8  vl53l0x_api.o [1]
  .text              ro code  0x08022fc8    0x288  vl53l0x_platform.o [1]
  .text              ro code  0x08023250    0x9d8  vl53l0x_api_calibration.o [1]
  .text              ro code  0x08023c28      0x8  abs.o [3]
  .text              ro code  0x08023c30    0x128  vl53l0x_api_strings.o [1]
  .text              ro code  0x08023d58   0x1070  sha1.o [6]
  .text              ro code  0x08024dc8    0xee0  kvmgr.o [1]
  .text              ro code  0x08025ca8    0x198  flash_port.o [1]
  .text              ro code  0x08025e40    0x3cc  flash_l4.o [1]
  .text              ro code  0x0802620c    0x31c  stm32l4xx_hal_flash.o [1]
  .text              ro code  0x08026528    0x870  stm32l4xx_hal_flash_ex.o [1]
  .text              ro code  0x08026d98    0xeba  stm32l4xx_hal_spi.o [1]
  .text              ro code  0x08027c52      0x2  stm32l4xx_hal_spi.o [1]
  .text              ro code  0x08027c54      0x2  stm32l4xx_hal_spi.o [1]
  .text              ro code  0x08027c58    0x66c  es_wifi_io.o [1]
  .text              ro code  0x080282c4      0x2  stm32l4xx_hal_spi.o [1]
  .text              ro code  0x080282c6     0x2a  stm32l4xx_hal_spi_ex.o [1]
  .text              ro code  0x080282f0    0xb28  pow64.o [7]
  .text              ro code  0x08028e18     0x20  DblCmpEq.o [7]
  .text              ro code  0x08028e38    0x418  iar_Exp64.o [7]
  .text              ro code  0x08029250    0x95c  mqtt-example-b_l475e.o [1]
  .text              ro code  0x08029bac    0x1d0  sensors_data.o [1]
  .text              ro code  0x08029d7c    0x130  sdk-impl.o [1]
  .text              ro code  0x08029eac    0x148  local_event.o [1]
  .text              ro code  0x08029ff4    0x7ca  netmgr.o [1]
  .text              ro code  0x0802a7c0    0x334  yloop.o [1]
  .text              ro code  0x0802aaf4    0x1b8  ota_service.o [1]
  .text              ro code  0x0802acac     0x40  stm32l475e_iot01_hsensor.o [1]
  .text              ro code  0x0802acec     0x38  stm32l475e_iot01_tsensor.o [1]
  .text              ro code  0x0802ad24     0x40  stm32l475e_iot01_psensor.o [1]
  .text              ro code  0x0802ad64     0x78  stm32l475e_iot01_magneto.o [1]
  .text              ro code  0x0802addc     0x9c  stm32l475e_iot01_gyro.o [1]
  .text              ro code  0x0802ae78     0x98  stm32l475e_iot01_accelero.o [1]
  .text              ro code  0x0802af10    0x22c  vl53l0x_proximity.o [1]
  .text              ro code  0x0802b13c     0x48  FltToDbl.o [7]
  .text              ro code  0x0802b184    0x4c0  vfs.o [1]
  .text              ro code  0x0802b644    0x7a8  ota_transport.o [1]
  .text              ro code  0x0802bdec    0x592  ota_update_manifest.o [1]
  .text              ro code  0x0802c380      0x8  version.o [1]
  .text              ro code  0x0802c388    0x170  vfs_inode.o [1]
  .text              ro code  0x0802c4f8    0x778  cJSON.o [1]
  .text              ro code  0x0802cc70    0x10c  ota_util.o [1]
  .text              ro code  0x0802cd7c     0x94  ota_version.o [1]
  .text              ro code  0x0802ce10     0x1e  download_common.o [1]
  .text              ro code  0x0802ce30    0x588  ota_download.o [1]
  .text              ro code  0x0802d3b8     0x60  ota_platform_os.o [1]
  .text              ro code  0x0802d418     0x16  math_wrappers64.o [7]
  .text              ro code  0x0802d430    0x296  ota_socket.o [1]
  .text              ro code  0x0802d6c8    0x90a  md5.o [1]
  .text              ro code  0x0802dfd4    0x10c  strerror.o [3]
  .rodata            const    0x0802e0e0    0x504  ca.o [1]
  .text              ro code  0x0802e5e4    0x314  lsm6dsl.o [1]
  .text              ro code  0x0802e8f8    0x30c  device.o [1]
  .text              ro code  0x0802ec04     0x8c  vfs_register.o [1]
  .text              ro code  0x0802ec90    0x264  hts221.o [1]
  .text              ro code  0x0802eef4    0x20c  ota_port.o [1]
  .text              ro code  0x0802f100     0x7a  CheckSumUtils.o [1]
  .text              ro code  0x0802f17a    0x1f2  lz77_init.o [8]
  .text              ro code  0x0802f36c    0x1cc  wifi_port.o [1]
  .text              ro code  0x0802f538    0x184  lis3mdl.o [1]
  .rodata            const    0x0802f6bc    0x144  cipher_wrap.o [6]
  .text              ro code  0x0802f800    0x12a  aos.o [1]
  .text              ro code  0x0802f92c    0x114  board.o [1]
  .text              ro code  0x0802fa40     0x36  aos_init.o [1]
  .text              ro code  0x0802fa78     0x10  trace_impl.o [1]
  .text              ro code  0x0802fa88     0x20  main.o [1]
  .text              ro code  0x0802faa8     0x58  version.o [1]
  .text              ro code  0x0802fb00      0x8  version.o [1]
  .rodata            const    0x0802fb08    0x100  sensors_data.o [1]
  .text              ro code  0x0802fc08     0xe6  lps22hb.o [1]
  .rodata            const    0x0802fcf0     0xdc  md_wrap.o [6]
  .text              ro code  0x0802fdcc     0xc0  pk_wrap.o [6]
  .text              ro code  0x0802fe8c     0xb8  md_wrap.o [6]
  .rodata            const    0x0802ff44     0xb0  oid.o [5]
  .rodata            const    0x0802fff4     0x9c  cli.o [1]
  .rodata            const    0x08030090     0x84  ota_download.o [1]
  .text              ro code  0x08030114     0x84  stm32l4xx_it.o [1]
  .text              ro code  0x08030198     0x10  stm32l4xx_hal.o [1]
  .rodata            const    0x080301a8     0x81  ssl_ciphersuites.o [6]
  .rodata            const    0x0803022c     0x74  ota_download.o [1]
  .rodata            const    0x080302a0     0x70  mqtt-example-b_l475e.o [1]
  .rodata            const    0x08030310     0x70  mqtt-example-b_l475e.o [1]
  .rodata            const    0x08030380     0x6c  guider.o [1]
  .text              ro code  0x080303ec     0x6c  system_stm32l4xx.o [1]
  .text              ro code  0x08030458     0x6c  mbedtls_alt.o [5]
  .rodata            const    0x080304c4     0x58  k_mm_debug.o [1]
  .rodata            const    0x0803051c     0x58  k_mm_debug.o [1]
  .rodata            const    0x08030574     0x58  k_mm_debug.o [1]
  .rodata            const    0x080305cc     0x58  mqtt_client.o [1]
  .rodata            const    0x08030624     0x54  mqtt-example-b_l475e.o [1]
  .rodata            const    0x08030678     0x54  mqtt_client.o [1]
  .rodata            const    0x080306cc     0x50  dumpsys.o [1]
  .rodata            const    0x0803071c     0x50  dumpsys.o [1]
  .rodata            const    0x0803076c     0x50  mqtt_client.o [1]
  .rodata            const    0x080307bc     0x4c  mqtt-example-b_l475e.o [1]
  .rodata            const    0x08030808     0x4c  netmgr.o [1]
  .rodata            const    0x08030854     0x48  mqtt_client.o [1]
  .rodata            const    0x0803089c     0x48  ota_socket.o [1]
  .text              ro code  0x080308e4     0x48  cipher_wrap.o [6]
  .rodata            const    0x0803092c     0x44  HAL_TCP_rhino.o [1]
  .rodata            const    0x08030970     0x44  HAL_TLS_mbedtls.o [1]
  .rodata            const    0x080309b4     0x44  mqtt_client.o [1]
  .rodata            const    0x080309f8     0x44  ota_transport.o [1]
  .rodata            const    0x08030a3c     0x44  utils_httpc.o [1]
  .rodata            const    0x08030a80     0x40  es_wifi_io.o [1]
  .rodata            const    0x08030ac0     0x40  flash_l4.o [1]
  .rodata            const    0x08030b00     0x40  guider.o [1]
  .rodata            const    0x08030b40     0x40  HAL_TCP_rhino.o [1]
  .rodata            const    0x08030b80     0x40  HAL_TCP_rhino.o [1]
  .rodata            const    0x08030bc0     0x40  HAL_TLS_mbedtls.o [1]
  .rodata            const    0x08030c00     0x40  HAL_TLS_mbedtls.o [1]
  .rodata            const    0x08030c40     0x40  HAL_TLS_mbedtls.o [1]
  .rodata            const    0x08030c80     0x40  k_mm_debug.o [1]
  .rodata            const    0x08030cc0     0x40  md5.o [1]
  .rodata            const    0x08030d00     0x40  mqtt_client.o [1]
  .rodata            const    0x08030d40     0x40  netmgr.o [1]
  .rodata            const    0x08030d80     0x40  ota_socket.o [1]
  .rodata            const    0x08030dc0     0x40  ota_update_manifest.o [1]
  .rodata            const    0x08030e00     0x40  utils_sha1.o [1]
  .text              ro code  0x08030e40     0x40  zero_init3.o [8]
  .rodata            const    0x08030e80     0x3c  dumpsys.o [1]
  .rodata            const    0x08030ebc     0x3c  flash_l4.o [1]
  .rodata            const    0x08030ef8     0x3c  HAL_TCP_rhino.o [1]
  .rodata            const    0x08030f34     0x3c  HAL_TCP_rhino.o [1]
  .rodata            const    0x08030f70     0x3c  HAL_TLS_mbedtls.o [1]
  .rodata            const    0x08030fac     0x3c  HAL_TLS_mbedtls.o [1]
  .rodata            const    0x08030fe8     0x3c  k_mm_debug.o [1]
  .rodata            const    0x08031024     0x3c  mbedtls_net.o [1]
  .rodata            const    0x08031060     0x3c  mqtt_client.o [1]
  .rodata            const    0x0803109c     0x3c  mqtt_client.o [1]
  .rodata            const    0x080310d8     0x3c  ota_port.o [1]
  .rodata            const    0x08031114     0x3c  ota_socket.o [1]
  .rodata            const    0x08031150     0x3c  soc_impl.o [1]
  .rodata            const    0x0803118c     0x3c  utils_timer.o [1]
  .text              ro code  0x080311c8     0x3c  k_idle.o [1]
  .rodata            const    0x08031204     0x38  dumpsys.o [1]
  .rodata            const    0x0803123c     0x38  flash_l4.o [1]
  .rodata            const    0x08031274     0x38  guider.o [1]
  .rodata            const    0x080312ac     0x38  guider.o [1]
  .rodata            const    0x080312e4     0x38  HAL_TLS_mbedtls.o [1]
  .rodata            const    0x0803131c     0x38  HAL_TLS_mbedtls.o [1]
  .rodata            const    0x08031354     0x38  HAL_TLS_mbedtls.o [1]
  .rodata            const    0x0803138c     0x38  HAL_TLS_mbedtls.o [1]
  .rodata            const    0x080313c4     0x38  HAL_TLS_mbedtls.o [1]
  .rodata            const    0x080313fc     0x38  HAL_TLS_mbedtls.o [1]
  .rodata            const    0x08031434     0x38  HAL_TLS_mbedtls.o [1]
  .rodata            const    0x0803146c     0x38  mqtt_client.o [1]
  .rodata            const    0x080314a4     0x38  mqtt_client.o [1]
  .rodata            const    0x080314dc     0x38  ota_port.o [1]
  .rodata            const    0x08031514     0x38  ota_port.o [1]
  .rodata            const    0x0803154c     0x38  ota_socket.o [1]
  .rodata            const    0x08031584     0x38  ota_socket.o [1]
  .rodata            const    0x080315bc     0x38  ota_socket.o [1]
  .rodata            const    0x080315f4     0x38  ota_transport.o [1]
  .rodata            const    0x0803162c     0x38  ota_update_manifest.o [1]
  .rodata            const    0x08031664     0x38  vl53l0x_proximity.o [1]
  .rodata            const    0x0803169c     0x34  cli.o [1]
  .rodata            const    0x080316d0     0x34  dumpsys.o [1]
  .rodata            const    0x08031704     0x34  HAL_TLS_mbedtls.o [1]
  .rodata            const    0x08031738     0x34  HAL_TLS_mbedtls.o [1]
  .rodata            const    0x0803176c     0x34  mbedtls_net.o [1]
  .rodata            const    0x080317a0     0x34  mqtt_client.o [1]
  .rodata            const    0x080317d4     0x34  ota_socket.o [1]
  .rodata            const    0x08031808     0x34  ota_socket.o [1]
  .rodata            const    0x0803183c     0x34  ota_socket.o [1]
  .rodata            const    0x08031870     0x34  ota_transport.o [1]
  .rodata            const    0x080318a4     0x34  ota_transport.o [1]
  .rodata            const    0x080318d8     0x34  ota_update_manifest.o [1]
  .rodata            const    0x0803190c     0x34  utils_httpc.o [1]
  .rodata            const    0x08031940     0x34  pk_wrap.o [6]
  .rodata            const    0x08031974     0x30  cli.o [1]
  .rodata            const    0x080319a4     0x30  dumpsys.o [1]
  .rodata            const    0x080319d4     0x30  dumpsys.o [1]
  .rodata            const    0x08031a04     0x30  guider.o [1]
  .rodata            const    0x08031a34     0x30  guider.o [1]
  .rodata            const    0x08031a64     0x30  guider.o [1]
  .rodata            const    0x08031a94     0x30  HAL_TLS_mbedtls.o [1]
  .rodata            const    0x08031ac4     0x30  k_mm_debug.o [1]
  .rodata            const    0x08031af4     0x30  kvmgr.o [1]
  .rodata            const    0x08031b24     0x30  mbedtls_net.o [1]
  .rodata            const    0x08031b54     0x30  ota_download.o [1]
  .rodata            const    0x08031b84     0x30  ota_socket.o [1]
  .rodata            const    0x08031bb4     0x30  ota_transport.o [1]
  .rodata            const    0x08031be4     0x30  ota_transport.o [1]
  .rodata            const    0x08031c14     0x30  ota_transport.o [1]
  .rodata            const    0x08031c44     0x30  ota_transport.o [1]
  .rodata            const    0x08031c74     0x30  ota_transport.o [1]
  .rodata            const    0x08031ca4     0x30  system_stm32l4xx.o [1]
  .rodata            const    0x08031cd4     0x30  vl53l0x_proximity.o [1]
  .rodata            const    0x08031d04     0x30  vl53l0x_proximity.o [1]
  .rodata            const    0x08031d34     0x2c  cli.o [1]
  .rodata            const    0x08031d60     0x2c  cli.o [1]
  .rodata            const    0x08031d8c     0x2c  flash_l4.o [1]
  .rodata            const    0x08031db8     0x2c  guider.o [1]
  .rodata            const    0x08031de4     0x2c  HAL_TLS_mbedtls.o [1]
  .rodata            const    0x08031e10     0x2c  mbedtls_net.o [1]
  .rodata            const    0x08031e3c     0x2c  mbedtls_net.o [1]
  .rodata            const    0x08031e68     0x2c  mbedtls_net.o [1]
  .rodata            const    0x08031e94     0x2c  mbedtls_net.o [1]
  .rodata            const    0x08031ec0     0x2c  mqtt-example-b_l475e.o [1]
  .rodata            const    0x08031eec     0x2c  mqtt-example-b_l475e.o [1]
  .rodata            const    0x08031f18     0x2c  mqtt-example-b_l475e.o [1]
  .rodata            const    0x08031f44     0x2c  mqtt_client.o [1]
  .rodata            const    0x08031f70     0x2c  mqtt_client.o [1]
  .rodata            const    0x08031f9c     0x2c  mqtt_client.o [1]
  .rodata            const    0x08031fc8     0x2c  mqtt_client.o [1]
  .rodata            const    0x08031ff4     0x2c  mqtt_client.o [1]
  .rodata            const    0x08032020     0x2c  netmgr.o [1]
  .rodata            const    0x0803204c     0x2c  ota_download.o [1]
  .rodata            const    0x08032078     0x2c  ota_socket.o [1]
  .rodata            const    0x080320a4     0x2c  ota_transport.o [1]
  .rodata            const    0x080320d0     0x2c  ota_transport.o [1]
  .rodata            const    0x080320fc     0x2c  ota_transport.o [1]
  .rodata            const    0x08032128     0x2c  ota_update_manifest.o [1]
  .rodata            const    0x08032154     0x2c  utils_httpc.o [1]
  .rodata            const    0x08032180     0x2c  utils_httpc.o [1]
  .rodata            const    0x080321ac     0x2c  utils_httpc.o [1]
  .rodata            const    0x080321d8     0x2c  utils_httpc.o [1]
  .rodata            const    0x08032204     0x2c  vl53l0x_proximity.o [1]
  .rodata            const    0x08032230     0x2c  wifi_port.o [1]
  .rodata            const    0x0803225c     0x28  aos.o [1]
  .rodata            const    0x08032284     0x28  device_iar.o [1]
  .rodata            const    0x080322ac     0x28  dumpsys.o [1]
  .rodata            const    0x080322d4     0x28  HAL_TLS_mbedtls.o [1]
  .rodata            const    0x080322fc     0x28  k_mm.o [1]
  .rodata            const    0x08032324     0x28  lite-log.o [1]
  .rodata            const    0x0803234c     0x28  mbedtls_net.o [1]
  .rodata            const    0x08032374     0x28  mqtt-example-b_l475e.o [1]
  .rodata            const    0x0803239c     0x28  mqtt-example-b_l475e.o [1]
  .rodata            const    0x080323c4     0x28  mqtt_client.o [1]
  .rodata            const    0x080323ec     0x28  mqtt_client.o [1]
  .rodata            const    0x08032414     0x28  mqtt_client.o [1]
  .rodata            const    0x0803243c     0x28  mqtt_client.o [1]
  .rodata            const    0x08032464     0x28  mqtt_client.o [1]
  .rodata            const    0x0803248c     0x28  mqtt_client.o [1]
  .rodata            const    0x080324b4     0x28  netmgr.o [1]
  .rodata            const    0x080324dc     0x28  ota_download.o [1]
  .rodata            const    0x08032504     0x28  ota_download.o [1]
  .rodata            const    0x0803252c     0x28  ota_download.o [1]
  .rodata            const    0x08032554     0x28  ota_download.o [1]
  .rodata            const    0x0803257c     0x28  ota_download.o [1]
  .rodata            const    0x080325a4     0x28  ota_download.o [1]
  .rodata            const    0x080325cc     0x28  ota_port.o [1]
  .rodata            const    0x080325f4     0x28  ota_service.o [1]
  .rodata            const    0x0803261c     0x28  ota_socket.o [1]
  .rodata            const    0x08032644     0x28  ota_transport.o [1]
  .rodata            const    0x0803266c     0x28  ota_transport.o [1]
  .rodata            const    0x08032694     0x28  ota_update_manifest.o [1]
  .rodata            const    0x080326bc     0x28  utils_httpc.o [1]
  .rodata            const    0x080326e4     0x28  utils_httpc.o [1]
  .rodata            const    0x0803270c     0x28  utils_httpc.o [1]
  .rodata            const    0x08032734     0x28  utils_net.o [1]
  .rodata            const    0x0803275c     0x28  utils_timer.o [1]
  .rodata            const    0x08032784     0x28  utils_timer.o [1]
  .rodata            const    0x080327ac     0x28  vl53l0x_proximity.o [1]
  .text              ro code  0x080327d4     0x28  data_init.o [8]
  .rodata            const    0x080327fc     0x24  aos.o [1]
  .rodata            const    0x08032820     0x24  aos.o [1]
  .rodata            const    0x08032844     0x24  cli.o [1]
  .rodata            const    0x08032868     0x24  device_iar.o [1]
  .rodata            const    0x0803288c     0x24  dumpsys.o [1]
  .rodata            const    0x080328b0     0x24  dumpsys.o [1]
  .rodata            const    0x080328d4     0x24  dumpsys.o [1]
  .rodata            const    0x080328f8     0x24  flash_l4.o [1]
  .rodata            const    0x0803291c     0x24  guider.o [1]
  .rodata            const    0x08032940     0x24  guider.o [1]
  .rodata            const    0x08032964     0x24  guider.o [1]
  .rodata            const    0x08032988     0x24  HAL_TLS_mbedtls.o [1]
  .rodata            const    0x080329ac     0x24  json_token.o [1]
  .rodata            const    0x080329d0     0x24  k_mm.o [1]
  .rodata            const    0x080329f4     0x24  mbedtls_net.o [1]
  .rodata            const    0x08032a18     0x24  mbedtls_net.o [1]
  .rodata            const    0x08032a3c     0x24  mem_stats.o [1]
  .rodata            const    0x08032a60     0x24  mqtt-example-b_l475e.o [1]
  .rodata            const    0x08032a84     0x24  mqtt-example-b_l475e.o [1]
  .rodata            const    0x08032aa8     0x24  mqtt-example-b_l475e.o [1]
  .rodata            const    0x08032acc     0x24  mqtt-example-b_l475e.o [1]
  .rodata            const    0x08032af0     0x24  mqtt-example-b_l475e.o [1]
  .rodata            const    0x08032b14     0x24  mqtt-example-b_l475e.o [1]
  .rodata            const    0x08032b38     0x24  mqtt_client.o [1]
  .rodata            const    0x08032b5c     0x24  mqtt_client.o [1]
  .rodata            const    0x08032b80     0x24  mqtt_client.o [1]
  .rodata            const    0x08032ba4     0x24  mqtt_client.o [1]
  .rodata            const    0x08032bc8     0x24  mqtt_client.o [1]
  .rodata            const    0x08032bec     0x24  mqtt_client.o [1]
  .rodata            const    0x08032c10     0x24  mqtt_client.o [1]
  .rodata            const    0x08032c34     0x24  mqtt_client.o [1]
  .rodata            const    0x08032c58     0x24  mqtt_client.o [1]
  .rodata            const    0x08032c7c     0x24  ota_download.o [1]
  .rodata            const    0x08032ca0     0x24  ota_download.o [1]
  .rodata            const    0x08032cc4     0x24  ota_service.o [1]
  .rodata            const    0x08032ce8     0x24  ota_transport.o [1]
  .rodata            const    0x08032d0c     0x24  ota_transport.o [1]
  .rodata            const    0x08032d30     0x24  ota_transport.o [1]
  .rodata            const    0x08032d54     0x24  ota_transport.o [1]
  .rodata            const    0x08032d78     0x24  ota_transport.o [1]
  .rodata            const    0x08032d9c     0x24  ota_update_manifest.o [1]
  .rodata            const    0x08032dc0     0x24  ota_update_manifest.o [1]
  .rodata            const    0x08032de4     0x24  utils_httpc.o [1]
  .rodata            const    0x08032e08     0x24  utils_httpc.o [1]
  .rodata            const    0x08032e2c     0x24  utils_httpc.o [1]
  .rodata            const    0x08032e50     0x24  utils_httpc.o [1]
  .rodata            const    0x08032e74     0x24  utils_httpc.o [1]
  .rodata            const    0x08032e98     0x24  utils_httpc.o [1]
  .rodata            const    0x08032ebc     0x24  utils_list.o [1]
  .rodata            const    0x08032ee0     0x24  vl53l0x_proximity.o [1]
  .rodata            const    0x08032f04     0x24  vl53l0x_proximity.o [1]
  .rodata            const    0x08032f28     0x24  vl53l0x_proximity.o [1]
  .text              ro code  0x08032f4c     0x22  fpinit_M.o [7]
  .iar.init_table    const    0x08032f70     0x2c  - Linker created -
  .rodata            const    0x08032f9c     0x20  aos.o [1]
  .rodata            const    0x08032fbc     0x20  cli.o [1]
  .rodata            const    0x08032fdc     0x20  device_iar.o [1]
  .rodata            const    0x08032ffc     0x20  dumpsys.o [1]
  .rodata            const    0x0803301c     0x20  guider.o [1]
  .rodata            const    0x0803303c     0x20  guider.o [1]
  .rodata            const    0x0803305c     0x20  guider.o [1]
  .rodata            const    0x0803307c     0x20  HAL_TLS_mbedtls.o [1]
  .rodata            const    0x0803309c     0x20  HAL_TLS_mbedtls.o [1]
  .rodata            const    0x080330bc     0x20  HAL_TLS_mbedtls.o [1]
  .rodata            const    0x080330dc     0x20  HAL_TLS_mbedtls.o [1]
  .rodata            const    0x080330fc     0x20  json_parser.o [1]
  .rodata            const    0x0803311c     0x20  k_mm.o [1]
  .rodata            const    0x0803313c     0x20  k_mm.o [1]
  .rodata            const    0x0803315c     0x20  main.o [1]
  .rodata            const    0x0803317c     0x20  mqtt-example-b_l475e.o [1]
  .rodata            const    0x0803319c     0x20  mqtt-example-b_l475e.o [1]
  .rodata            const    0x080331bc     0x20  mqtt-example-b_l475e.o [1]
  .rodata            const    0x080331dc     0x20  mqtt-example-b_l475e.o [1]
  .rodata            const    0x080331fc     0x20  mqtt-example-b_l475e.o [1]
  .rodata            const    0x0803321c     0x20  mqtt-example-b_l475e.o [1]
  .rodata            const    0x0803323c     0x20  mqtt-example-b_l475e.o [1]
  .rodata            const    0x0803325c     0x20  mqtt-example-b_l475e.o [1]
  .rodata            const    0x0803327c     0x20  mqtt-example-b_l475e.o [1]
  .rodata            const    0x0803329c     0x20  mqtt-example-b_l475e.o [1]
  .rodata            const    0x080332bc     0x20  mqtt_client.o [1]
  .rodata            const    0x080332dc     0x20  mqtt_client.o [1]
  .rodata            const    0x080332fc     0x20  mqtt_client.o [1]
  .rodata            const    0x0803331c     0x20  mqtt_client.o [1]
  .rodata            const    0x0803333c     0x20  mqtt_client.o [1]
  .rodata            const    0x0803335c     0x20  mqtt_client.o [1]
  .rodata            const    0x0803337c     0x20  mqtt_client.o [1]
  .rodata            const    0x0803339c     0x20  mqtt_client.o [1]
  .rodata            const    0x080333bc     0x20  mqtt_client.o [1]
  .rodata            const    0x080333dc     0x20  ota_download.o [1]
  .rodata            const    0x080333fc     0x20  ota_port.o [1]
  .rodata            const    0x0803341c     0x20  ota_transport.o [1]
  .rodata            const    0x0803343c     0x20  ota_transport.o [1]
  .rodata            const    0x0803345c     0x20  ota_transport.o [1]
  .rodata            const    0x0803347c     0x20  ota_update_manifest.o [1]
  .rodata            const    0x0803349c     0x20  ota_update_manifest.o [1]
  .rodata            const    0x080334bc     0x20  ota_update_manifest.o [1]
  .rodata            const    0x080334dc     0x20  sdk-impl.o [1]
  .rodata            const    0x080334fc     0x20  sensors_data.o [1]
  .rodata            const    0x0803351c     0x20  sensors_data.o [1]
  .rodata            const    0x0803353c     0x20  sensors_data.o [1]
  .rodata            const    0x0803355c     0x20  sensors_data.o [1]
  .rodata            const    0x0803357c     0x20  sensors_data.o [1]
  .rodata            const    0x0803359c     0x20  utils_httpc.o [1]
  .rodata            const    0x080335bc     0x20  vl53l0x_proximity.o [1]
  .rodata            const    0x080335dc     0x20  wifi_port.o [1]
  .rodata            const    0x080335fc     0x20  wifi_port.o [1]
  .rodata            const    0x0803361c     0x20  yloop.o [1]
  .text              ro code  0x0803363c     0x1e  cmain.o [8]
  .text              ro code  0x0803365a      0x4  low_level_init.o [3]
  .text              ro code  0x0803365e      0x4  exit.o [3]
  .text              ro code  0x08033664      0xa  cexit.o [8]
  .rodata            const    0x08033670     0x1c  aos.o [1]
  .rodata            const    0x0803368c     0x1c  cli.o [1]
  .rodata            const    0x080336a8     0x1c  cli.o [1]
  .rodata            const    0x080336c4     0x1c  device_iar.o [1]
  .rodata            const    0x080336e0     0x1c  flash_l4.o [1]
  .rodata            const    0x080336fc     0x1c  guider.o [1]
  .rodata            const    0x08033718     0x1c  guider.o [1]
  .rodata            const    0x08033734     0x1c  guider.o [1]
  .rodata            const    0x08033750     0x1c  guider.o [1]
  .rodata            const    0x0803376c     0x1c  guider.o [1]
  .rodata            const    0x08033788     0x1c  k_mm.o [1]
  .rodata            const    0x080337a4     0x1c  k_mm_debug.o [1]
  .rodata            const    0x080337c0     0x1c  mbedtls_net.o [1]
  .rodata            const    0x080337dc     0x1c  mqtt-example-b_l475e.o [1]
  .rodata            const    0x080337f8     0x1c  mqtt-example-b_l475e.o [1]
  .rodata            const    0x08033814     0x1c  mqtt_client.o [1]
  .rodata            const    0x08033830     0x1c  mqtt_client.o [1]
  .rodata            const    0x0803384c     0x1c  mqtt_client.o [1]
  .rodata            const    0x08033868     0x1c  mqtt_client.o [1]
  .rodata            const    0x08033884     0x1c  mqtt_client.o [1]
  .rodata            const    0x080338a0     0x1c  mqtt_client.o [1]
  .rodata            const    0x080338bc     0x1c  mqtt_client.o [1]
  .rodata            const    0x080338d8     0x1c  mqtt_client.o [1]
  .rodata            const    0x080338f4     0x1c  mqtt_client.o [1]
  .rodata            const    0x08033910     0x1c  mqtt_client.o [1]
  .rodata            const    0x0803392c     0x1c  mqtt_client.o [1]
  .rodata            const    0x08033948     0x1c  mqtt_client.o [1]
  .rodata            const    0x08033964     0x1c  mqtt_client.o [1]
  .rodata            const    0x08033980     0x1c  mqtt_client.o [1]
  .rodata            const    0x0803399c     0x1c  mqtt_client.o [1]
  .rodata            const    0x080339b8     0x1c  mqtt_client.o [1]
  .rodata            const    0x080339d4     0x1c  mqtt_client.o [1]
  .rodata            const    0x080339f0     0x1c  mqtt_client.o [1]
  .rodata            const    0x08033a0c     0x1c  mqtt_client.o [1]
  .rodata            const    0x08033a28     0x1c  mqtt_client.o [1]
  .rodata            const    0x08033a44     0x1c  mqtt_client.o [1]
  .rodata            const    0x08033a60     0x1c  mqtt_client.o [1]
  .rodata            const    0x08033a7c     0x1c  mqtt_client.o [1]
  .rodata            const    0x08033a98     0x1c  mqtt_client.o [1]
  .rodata            const    0x08033ab4     0x1c  netmgr.o [1]
  .rodata            const    0x08033ad0     0x1c  ota_download.o [1]
  .rodata            const    0x08033aec     0x1c  ota_port.o [1]
  .rodata            const    0x08033b08     0x1c  ota_transport.o [1]
  .rodata            const    0x08033b24     0x1c  ota_transport.o [1]
  .rodata            const    0x08033b40     0x1c  ota_update_manifest.o [1]
  .rodata            const    0x08033b5c     0x1c  ota_update_manifest.o [1]
  .rodata            const    0x08033b78     0x1c  ota_update_manifest.o [1]
  .rodata            const    0x08033b94     0x1c  sdk-impl.o [1]
  .rodata            const    0x08033bb0     0x1c  sdk-impl.o [1]
  .rodata            const    0x08033bcc     0x1c  sensors_data.o [1]
  .rodata            const    0x08033be8     0x1c  utils_httpc.o [1]
  .rodata            const    0x08033c04     0x1c  utils_httpc.o [1]
  .rodata            const    0x08033c20     0x1c  utils_httpc.o [1]
  .rodata            const    0x08033c3c     0x1c  utils_httpc.o [1]
  .rodata            const    0x08033c58     0x1c  utils_httpc.o [1]
  .rodata            const    0x08033c74     0x1c  utils_httpc.o [1]
  .rodata            const    0x08033c90     0x1c  utils_httpc.o [1]
  .rodata            const    0x08033cac     0x1c  utils_httpc.o [1]
  .rodata            const    0x08033cc8     0x1c  utils_httpc.o [1]
  .rodata            const    0x08033ce4     0x1c  utils_httpc.o [1]
  .rodata            const    0x08033d00     0x1c  utils_list.o [1]
  .rodata            const    0x08033d1c     0x1c  vl53l0x_proximity.o [1]
  .rodata            const    0x08033d38     0x1c  wifi_port.o [1]
  .rodata            const    0x08033d54     0x1c  yloop.o [1]
  .rodata            const    0x08033d70     0x18  cli.o [1]
  .rodata            const    0x08033d88     0x18  cli.o [1]
  .rodata            const    0x08033da0     0x18  cli.o [1]
  .rodata            const    0x08033db8     0x18  cli.o [1]
  .rodata            const    0x08033dd0     0x18  cli.o [1]
  .rodata            const    0x08033de8     0x18  cli.o [1]
  .rodata            const    0x08033e00     0x18  device.o [1]
  .rodata            const    0x08033e18     0x18  device_iar.o [1]
  .rodata            const    0x08033e30     0x18  device_iar.o [1]
  .rodata            const    0x08033e48     0x18  device_iar.o [1]
  .rodata            const    0x08033e60     0x18  flash_port.o [1]
  .rodata            const    0x08033e78     0x18  guider.o [1]
  .rodata            const    0x08033e90     0x18  guider.o [1]
  .rodata            const    0x08033ea8     0x18  guider.o [1]
  .rodata            const    0x08033ec0     0x18  guider.o [1]
  .rodata            const    0x08033ed8     0x18  guider.o [1]
  .rodata            const    0x08033ef0     0x18  guider.o [1]
  .rodata            const    0x08033f08     0x18  guider.o [1]
  .rodata            const    0x08033f20     0x18  guider.o [1]
  .rodata            const    0x08033f38     0x18  HAL_TLS_mbedtls.o [1]
  .rodata            const    0x08033f50     0x18  HAL_TLS_mbedtls.o [1]
  .rodata            const    0x08033f68     0x18  hw.o [1]
  .rodata            const    0x08033f80     0x18  json_parser.o [1]
  .rodata            const    0x08033f98     0x18  k_mm_debug.o [1]
  .rodata            const    0x08033fb0     0x18  mqtt-example-b_l475e.o [1]
  .rodata            const    0x08033fc8     0x18  mqtt-example-b_l475e.o [1]
  .rodata            const    0x08033fe0     0x18  mqtt-example-b_l475e.o [1]
  .rodata            const    0x08033ff8     0x18  mqtt-example-b_l475e.o [1]
  .rodata            const    0x08034010     0x18  mqtt-example-b_l475e.o [1]
  .rodata            const    0x08034028     0x18  mqtt-example-b_l475e.o [1]
  .rodata            const    0x08034040     0x18  mqtt-example-b_l475e.o [1]
  .rodata            const    0x08034058     0x18  mqtt_client.o [1]
  .rodata            const    0x08034070     0x18  mqtt_client.o [1]
  .rodata            const    0x08034088     0x18  mqtt_client.o [1]
  .rodata            const    0x080340a0     0x18  mqtt_client.o [1]
  .rodata            const    0x080340b8     0x18  mqtt_client.o [1]
  .rodata            const    0x080340d0     0x18  mqtt_client.o [1]
  .rodata            const    0x080340e8     0x18  mqtt_client.o [1]
  .rodata            const    0x08034100     0x18  mqtt_client.o [1]
  .rodata            const    0x08034118     0x18  mqtt_client.o [1]
  .rodata            const    0x08034130     0x18  mqtt_client.o [1]
  .rodata            const    0x08034148     0x18  mqtt_client.o [1]
  .rodata            const    0x08034160     0x18  mqtt_client.o [1]
  .rodata            const    0x08034178     0x18  mqtt_client.o [1]
  .rodata            const    0x08034190     0x18  mqtt_client.o [1]
  .rodata            const    0x080341a8     0x18  mqtt_client.o [1]
  .rodata            const    0x080341c0     0x18  mqtt_client.o [1]
  .rodata            const    0x080341d8     0x18  mqtt_client.o [1]
  .rodata            const    0x080341f0     0x18  mqtt_client.o [1]
  .rodata            const    0x08034208     0x18  mqtt_client.o [1]
  .rodata            const    0x08034220     0x18  mqtt_client.o [1]
  .rodata            const    0x08034238     0x18  mqtt_client.o [1]
  .rodata            const    0x08034250     0x18  ota_download.o [1]
  .rodata            const    0x08034268     0x18  ota_download.o [1]
  .rodata            const    0x08034280     0x18  ota_transport.o [1]
  .rodata            const    0x08034298     0x18  ota_transport.o [1]
  .rodata            const    0x080342b0     0x18  ota_transport.o [1]
  .rodata            const    0x080342c8     0x18  ota_transport.o [1]
  .rodata            const    0x080342e0     0x18  sensors_data.o [1]
  .rodata            const    0x080342f8     0x18  trace_impl.o [1]
  .rodata            const    0x08034310     0x18  utils_httpc.o [1]
  .rodata            const    0x08034328     0x18  utils_httpc.o [1]
  .rodata            const    0x08034340     0x18  utils_httpc.o [1]
  .rodata            const    0x08034358     0x18  utils_httpc.o [1]
  .rodata            const    0x08034370     0x18  utils_httpc.o [1]
  .rodata            const    0x08034388     0x18  utils_httpc.o [1]
  .rodata            const    0x080343a0     0x18  utils_httpc.o [1]
  .rodata            const    0x080343b8     0x18  utils_httpc.o [1]
  .rodata            const    0x080343d0     0x18  utils_httpc.o [1]
  .rodata            const    0x080343e8     0x18  utils_httpc.o [1]
  .rodata            const    0x08034400     0x18  utils_httpc.o [1]
  .rodata            const    0x08034418     0x18  utils_httpc.o [1]
  .rodata            const    0x08034430     0x18  utils_httpc.o [1]
  .rodata            const    0x08034448     0x18  utils_httpc.o [1]
  .rodata            const    0x08034460     0x18  utils_httpc.o [1]
  .rodata            const    0x08034478     0x18  utils_httpc.o [1]
  .rodata            const    0x08034490     0x18  utils_list.o [1]
  .rodata            const    0x080344a8     0x18  version.o [1]
  .rodata            const    0x080344c0     0x18  version.o [1]
  .rodata            const    0x080344d8     0x18  vl53l0x_api_strings.o [1]
  .rodata            const    0x080344f0     0x18  wifi_port.o [1]
  .rodata            const    0x08034508     0x18  wifi_port.o [1]
  .rodata            const    0x08034520     0x18  wifi_port.o [1]
  .rodata            const    0x08034538     0x18  wifi_port.o [1]
  .rodata            const    0x08034550     0x18  wifi_port.o [1]
  .text              ro code  0x08034568     0x18  xfprout.o [3]
  .text              ro code  0x08034580     0x16  xprout.o [3]
  .text              ro code  0x08034598      0xc  putchar.o [3]
  .rodata            const    0x080345a4     0x14  cli.o [1]
  .rodata            const    0x080345b8     0x14  cli.o [1]
  .rodata            const    0x080345cc     0x14  cli.o [1]
  .rodata            const    0x080345e0     0x14  cli.o [1]
  .rodata            const    0x080345f4     0x14  cli.o [1]
  .rodata            const    0x08034608     0x14  dumpsys.o [1]
  .rodata            const    0x0803461c     0x14  guider.o [1]
  .rodata            const    0x08034630     0x14  guider.o [1]
  .rodata            const    0x08034644     0x14  guider.o [1]
  .rodata            const    0x08034658     0x14  guider.o [1]
  .rodata            const    0x0803466c     0x14  HAL_TCP_rhino.o [1]
  .rodata            const    0x08034680     0x14  HAL_TLS_mbedtls.o [1]
  .rodata            const    0x08034694     0x14  HAL_TLS_mbedtls.o [1]
  .rodata            const    0x080346a8     0x14  HAL_TLS_mbedtls.o [1]
  .rodata            const    0x080346bc     0x14  json_token.o [1]
  .rodata            const    0x080346d0     0x14  k_dyn_mem_proc.o [1]
  .rodata            const    0x080346e4     0x14  k_mm_debug.o [1]
  .rodata            const    0x080346f8     0x14  k_mm_debug.o [1]
  .rodata            const    0x0803470c     0x14  k_mm_debug.o [1]
  .rodata            const    0x08034720     0x14  kvmgr.o [1]
  .rodata            const    0x08034734     0x14  kvmgr.o [1]
  .rodata            const    0x08034748     0x14  kvmgr.o [1]
  .rodata            const    0x0803475c     0x14  kvmgr.o [1]
  .rodata            const    0x08034770     0x14  mbedtls_net.o [1]
  .rodata            const    0x08034784     0x14  mbedtls_net.o [1]
  .rodata            const    0x08034798     0x14  mbedtls_net.o [1]
  .rodata            const    0x080347ac     0x14  mbedtls_net.o [1]
  .rodata            const    0x080347c0     0x14  mem_stats.o [1]
  .rodata            const    0x080347d4     0x14  mqtt-example-b_l475e.o [1]
  .rodata            const    0x080347e8     0x14  mqtt-example-b_l475e.o [1]
  .rodata            const    0x080347fc     0x14  mqtt-example-b_l475e.o [1]
  .rodata            const    0x08034810     0x14  mqtt-example-b_l475e.o [1]
  .rodata            const    0x08034824     0x14  mqtt_client.o [1]
  .rodata            const    0x08034838     0x14  mqtt_client.o [1]
  .rodata            const    0x0803484c     0x14  mqtt_client.o [1]
  .rodata            const    0x08034860     0x14  mqtt_client.o [1]
  .rodata            const    0x08034874     0x14  mqtt_client.o [1]
  .rodata            const    0x08034888     0x14  mqtt_client.o [1]
  .rodata            const    0x0803489c     0x14  mqtt_client.o [1]
  .rodata            const    0x080348b0     0x14  mqtt_client.o [1]
  .rodata            const    0x080348c4     0x14  mqtt_client.o [1]
  .rodata            const    0x080348d8     0x14  mqtt_client.o [1]
  .rodata            const    0x080348ec     0x14  mqtt_client.o [1]
  .rodata            const    0x08034900     0x14  mqtt_client.o [1]
  .rodata            const    0x08034914     0x14  mqtt_client.o [1]
  .rodata            const    0x08034928     0x14  mqtt_client.o [1]
  .rodata            const    0x0803493c     0x14  mqtt_client.o [1]
  .rodata            const    0x08034950     0x14  mqtt_client.o [1]
  .rodata            const    0x08034964     0x14  mqtt_client.o [1]
  .rodata            const    0x08034978     0x14  mqtt_client.o [1]
  .rodata            const    0x0803498c     0x14  mqtt_client.o [1]
  .rodata            const    0x080349a0     0x14  mqtt_client.o [1]
  .rodata            const    0x080349b4     0x14  mqtt_client.o [1]
  .rodata            const    0x080349c8     0x14  ota_port.o [1]
  .rodata            const    0x080349dc     0x14  sdk-impl.o [1]
  .rodata            const    0x080349f0     0x14  sensors_data.o [1]
  .rodata            const    0x08034a04     0x14  utils_httpc.o [1]
  .rodata            const    0x08034a18     0x14  utils_httpc.o [1]
  .rodata            const    0x08034a2c     0x14  utils_httpc.o [1]
  .rodata            const    0x08034a40     0x14  utils_httpc.o [1]
  .rodata            const    0x08034a54     0x14  utils_httpc.o [1]
  .rodata            const    0x08034a68     0x14  utils_httpc.o [1]
  .rodata            const    0x08034a7c     0x14  utils_httpc.o [1]
  .rodata            const    0x08034a90     0x14  utils_httpc.o [1]
  .rodata            const    0x08034aa4     0x14  utils_httpc.o [1]
  .rodata            const    0x08034ab8     0x14  utils_httpc.o [1]
  .rodata            const    0x08034acc     0x14  utils_httpc.o [1]
  .rodata            const    0x08034ae0     0x14  utils_httpc.o [1]
  .rodata            const    0x08034af4     0x14  utils_httpc.o [1]
  .rodata            const    0x08034b08     0x14  utils_httpc.o [1]
  .rodata            const    0x08034b1c     0x14  utils_httpc.o [1]
  .rodata            const    0x08034b30     0x14  version.o [1]
  .rodata            const    0x08034b44     0x14  wifi_port.o [1]
  .rodata            const    0x08034b58     0x14  yloop.o [1]
  .rodata            const    0x08034b6c     0x10  cli.o [1]
  .rodata            const    0x08034b7c     0x10  cli.o [1]
  .rodata            const    0x08034b8c     0x10  cli.o [1]
  .rodata            const    0x08034b9c     0x10  cli.o [1]
  .rodata            const    0x08034bac     0x10  cli.o [1]
  .rodata            const    0x08034bbc     0x10  cli.o [1]
  .rodata            const    0x08034bcc     0x10  cli.o [1]
  .rodata            const    0x08034bdc     0x10  cli.o [1]
  .rodata            const    0x08034bec     0x10  cli.o [1]
  .rodata            const    0x08034bfc     0x10  es_wifi.o [1]
  .rodata            const    0x08034c0c     0x10  guider.o [1]
  .rodata            const    0x08034c1c     0x10  guider.o [1]
  .rodata            const    0x08034c2c     0x10  guider.o [1]
  .rodata            const    0x08034c3c     0x10  guider.o [1]
  .rodata            const    0x08034c4c     0x10  guider.o [1]
  .rodata            const    0x08034c5c     0x10  guider.o [1]
  .rodata            const    0x08034c6c     0x10  guider.o [1]
  .rodata            const    0x08034c7c     0x10  guider.o [1]
  .rodata            const    0x08034c8c     0x10  guider.o [1]
  .rodata            const    0x08034c9c     0x10  guider.o [1]
  .rodata            const    0x08034cac     0x10  guider.o [1]
  .rodata            const    0x08034cbc     0x10  guider.o [1]
  .rodata            const    0x08034ccc     0x10  guider.o [1]
  .rodata            const    0x08034cdc     0x10  guider.o [1]
  .rodata            const    0x08034cec     0x10  HAL_TCP_rhino.o [1]
  .rodata            const    0x08034cfc     0x10  HAL_TCP_rhino.o [1]
  .rodata            const    0x08034d0c     0x10  HAL_TCP_rhino.o [1]
  .rodata            const    0x08034d1c     0x10  HAL_TLS_mbedtls.o [1]
  .rodata            const    0x08034d2c     0x10  HAL_TLS_mbedtls.o [1]
  .rodata            const    0x08034d3c     0x10  k_mm.o [1]
  .rodata            const    0x08034d4c     0x10  k_mm_debug.o [1]
  .rodata            const    0x08034d5c     0x10  k_mm_debug.o [1]
  .rodata            const    0x08034d6c     0x10  k_mm_debug.o [1]
  .rodata            const    0x08034d7c     0x10  k_mm_debug.o [1]
  .rodata            const    0x08034d8c     0x10  k_timer.o [1]
  .rodata            const    0x08034d9c     0x10  kvmgr.o [1]
  .rodata            const    0x08034dac     0x10  lite-log.o [1]
  .rodata            const    0x08034dbc     0x10  mqtt-example-b_l475e.o [1]
  .rodata            const    0x08034dcc     0x10  mqtt-example-b_l475e.o [1]
  .rodata            const    0x08034ddc     0x10  mqtt-example-b_l475e.o [1]
  .rodata            const    0x08034dec     0x10  mqtt_client.o [1]
  .rodata            const    0x08034dfc     0x10  mqtt_client.o [1]
  .rodata            const    0x08034e0c     0x10  mqtt_client.o [1]
  .rodata            const    0x08034e1c     0x10  mqtt_client.o [1]
  .rodata            const    0x08034e2c     0x10  mqtt_client.o [1]
  .rodata            const    0x08034e3c     0x10  mqtt_client.o [1]
  .rodata            const    0x08034e4c     0x10  mqtt_client.o [1]
  .rodata            const    0x08034e5c     0x10  mqtt_client.o [1]
  .rodata            const    0x08034e6c     0x10  mqtt_client.o [1]
  .rodata            const    0x08034e7c     0x10  mqtt_client.o [1]
  .rodata            const    0x08034e8c     0x10  mqtt_client.o [1]
  .rodata            const    0x08034e9c     0x10  mqtt_client.o [1]
  .rodata            const    0x08034eac     0x10  mqtt_client.o [1]
  .rodata            const    0x08034ebc     0x10  mqtt_client.o [1]
  .rodata            const    0x08034ecc     0x10  mqtt_client.o [1]
  .rodata            const    0x08034edc     0x10  mqtt_client.o [1]
  .rodata            const    0x08034eec     0x10  mqtt_client.o [1]
  .rodata            const    0x08034efc     0x10  mqtt_client.o [1]
  .rodata            const    0x08034f0c     0x10  mqtt_client.o [1]
  .rodata            const    0x08034f1c     0x10  mqtt_client.o [1]
  .rodata            const    0x08034f2c     0x10  mqtt_client.o [1]
  .rodata            const    0x08034f3c     0x10  netmgr.o [1]
  .rodata            const    0x08034f4c     0x10  ota_download.o [1]
  .rodata            const    0x08034f5c     0x10  ota_version.o [1]
  .rodata            const    0x08034f6c     0x10  ota_version.o [1]
  .rodata            const    0x08034f7c     0x10  sdk-impl.o [1]
  .rodata            const    0x08034f8c     0x10  system_stm32l4xx.o [1]
  .rodata            const    0x08034f9c     0x10  utils_httpc.o [1]
  .rodata            const    0x08034fac     0x10  utils_httpc.o [1]
  .rodata            const    0x08034fbc     0x10  utils_httpc.o [1]
  .rodata            const    0x08034fcc     0x10  utils_httpc.o [1]
  .rodata            const    0x08034fdc     0x10  utils_httpc.o [1]
  .rodata            const    0x08034fec     0x10  utils_httpc.o [1]
  .rodata            const    0x08034ffc     0x10  utils_list.o [1]
  .rodata            const    0x0803500c     0x10  utils_list.o [1]
  .rodata            const    0x0803501c     0x10  utils_net.o [1]
  .rodata            const    0x0803502c     0x10  utils_net.o [1]
  .rodata            const    0x0803503c     0x10  utils_net.o [1]
  .rodata            const    0x0803504c     0x10  utils_timer.o [1]
  .rodata            const    0x0803505c     0x10  version.o [1]
  .text              ro code  0x0803506c     0x10  startup_stm32l475xx_icc.o [1]
  .rodata            const    0x0803507c      0xc  aos.o [1]
  .rodata            const    0x08035088      0xc  aos_rhino.o [1]
  .rodata            const    0x08035094      0xc  board.o [1]
  .rodata            const    0x080350a0      0xc  board.o [1]
  .rodata            const    0x080350ac      0xc  board.o [1]
  .rodata            const    0x080350b8      0xc  board.o [1]
  .rodata            const    0x080350c4      0xc  board.o [1]
  .rodata            const    0x080350d0      0xc  board.o [1]
  .rodata            const    0x080350dc      0xc  cli.o [1]
  .rodata            const    0x080350e8      0xc  cli.o [1]
  .rodata            const    0x080350f4      0xc  cli.o [1]
  .rodata            const    0x08035100      0xc  cli.o [1]
  .rodata            const    0x0803510c      0xc  cli.o [1]
  .rodata            const    0x08035118      0xc  cli.o [1]
  .rodata            const    0x08035124      0xc  cli.o [1]
  .rodata            const    0x08035130      0xc  cli.o [1]
  .rodata            const    0x0803513c      0xc  cli.o [1]
  .rodata            const    0x08035148      0xc  cli.o [1]
  .rodata            const    0x08035154      0xc  cli.o [1]
  .rodata            const    0x08035160      0xc  device.o [1]
  .rodata            const    0x0803516c      0xc  dumpsys.o [1]
  .rodata            const    0x08035178      0xc  dumpsys.o [1]
  .rodata            const    0x08035184      0xc  dumpsys.o [1]
  .rodata            const    0x08035190      0xc  es_wifi.o [1]
  .rodata            const    0x0803519c      0xc  es_wifi.o [1]
  .rodata            const    0x080351a8      0xc  guider.o [1]
  .rodata            const    0x080351b4      0xc  guider.o [1]
  .rodata            const    0x080351c0      0xc  guider.o [1]
  .rodata            const    0x080351cc      0xc  guider.o [1]
  .rodata            const    0x080351d8      0xc  guider.o [1]
  .rodata            const    0x080351e4      0xc  guider.o [1]
  .rodata            const    0x080351f0      0xc  guider.o [1]
  .rodata            const    0x080351fc      0xc  guider.o [1]
  .rodata            const    0x08035208      0xc  guider.o [1]
  .rodata            const    0x08035214      0xc  guider.o [1]
  .rodata            const    0x08035220      0xc  guider.o [1]
  .rodata            const    0x0803522c      0xc  guider.o [1]
  .rodata            const    0x08035238      0xc  guider.o [1]
  .rodata            const    0x08035244      0xc  guider.o [1]
  .rodata            const    0x08035250      0xc  guider.o [1]
  .rodata            const    0x0803525c      0xc  guider.o [1]
  .rodata            const    0x08035268      0xc  guider.o [1]
  .rodata            const    0x08035274      0xc  guider.o [1]
  .rodata            const    0x08035280      0xc  guider.o [1]
  .rodata            const    0x0803528c      0xc  HAL_TLS_mbedtls.o [1]
  .rodata            const    0x08035298      0xc  json_parser.o [1]
  .rodata            const    0x080352a4      0xc  json_token.o [1]
  .rodata            const    0x080352b0      0xc  k_mm_debug.o [1]
  .rodata            const    0x080352bc      0xc  k_mm_debug.o [1]
  .rodata            const    0x080352c8      0xc  k_mm_debug.o [1]
  .rodata            const    0x080352d4      0xc  k_sys.o [1]
  .rodata            const    0x080352e0      0xc  k_timer.o [1]
  .rodata            const    0x080352ec      0xc  k_timer.o [1]
  .rodata            const    0x080352f8      0xc  kvmgr.o [1]
  .rodata            const    0x08035304      0xc  local_event.o [1]
  .rodata            const    0x08035310      0xc  mqtt-example-b_l475e.o [1]
  .rodata            const    0x0803531c      0xc  mqtt-example-b_l475e.o [1]
  .rodata            const    0x08035328      0xc  mqtt-example-b_l475e.o [1]
  .rodata            const    0x08035334      0xc  mqtt-example-b_l475e.o [1]
  .rodata            const    0x08035340      0xc  mqtt_client.o [1]
  .rodata            const    0x0803534c      0xc  mqtt_client.o [1]
  .rodata            const    0x08035358      0xc  mqtt_client.o [1]
  .rodata            const    0x08035364      0xc  mqtt_client.o [1]
  .rodata            const    0x08035370      0xc  mqtt_client.o [1]
  .rodata            const    0x0803537c      0xc  mqtt_client.o [1]
  .rodata            const    0x08035388      0xc  mqtt_client.o [1]
  .rodata            const    0x08035394      0xc  netmgr.o [1]
  .rodata            const    0x080353a0      0xc  netmgr.o [1]
  .rodata            const    0x080353ac      0xc  netmgr.o [1]
  .rodata            const    0x080353b8      0xc  ota_download.o [1]
  .rodata            const    0x080353c4      0xc  ota_download.o [1]
  .rodata            const    0x080353d0      0xc  ota_transport.o [1]
  .rodata            const    0x080353dc      0xc  sdk-impl.o [1]
  .rodata            const    0x080353e8      0xc  sdk-impl.o [1]
  .rodata            const    0x080353f4      0xc  utils_httpc.o [1]
  .rodata            const    0x08035400      0xc  utils_httpc.o [1]
  .rodata            const    0x0803540c      0xc  utils_httpc.o [1]
  .rodata            const    0x08035418      0xc  utils_list.o [1]
  .rodata            const    0x08035424      0xc  utils_list.o [1]
  .rodata            const    0x08035430      0xc  utils_net.o [1]
  .rodata            const    0x0803543c      0xc  utils_net.o [1]
  .rodata            const    0x08035448      0xc  utils_net.o [1]
  .rodata            const    0x08035454      0xc  utils_net.o [1]
  .rodata            const    0x08035460      0xc  version.o [1]
  .rodata            const    0x0803546c      0xc  vl53l0x_api_strings.o [1]
  .rodata            const    0x08035478      0xc  vl53l0x_api_strings.o [1]
  .rodata            const    0x08035484      0xc  vl53l0x_api_strings.o [1]
  .rodata            const    0x08035490      0xc  wifi_port.o [1]
  .text              ro code  0x0803549c      0xc  cstartup_M.o [8]
  .rodata            const    0x080354a8      0x8  aos.o [1]
  .rodata            const    0x080354b0      0x8  cJSON.o [1]
  .rodata            const    0x080354b8      0x8  cJSON.o [1]
  .rodata            const    0x080354c0      0x8  cJSON.o [1]
  .rodata            const    0x080354c8      0x8  cJSON.o [1]
  .rodata            const    0x080354d0      0x8  cli.o [1]
  .rodata            const    0x080354d8      0x8  cli.o [1]
  .rodata            const    0x080354e0      0x8  cli.o [1]
  .rodata            const    0x080354e8      0x8  cli.o [1]
  .rodata            const    0x080354f0      0x8  cli.o [1]
  .rodata            const    0x080354f8      0x8  cli.o [1]
  .rodata            const    0x08035500      0x8  cli.o [1]
  .rodata            const    0x08035508      0x8  cli.o [1]
  .rodata            const    0x08035510      0x8  cli.o [1]
  .rodata            const    0x08035518      0x8  cli.o [1]
  .rodata            const    0x08035520      0x8  cli.o [1]
  .rodata            const    0x08035528      0x8  cli.o [1]
  .rodata            const    0x08035530      0x8  cli.o [1]
  .rodata            const    0x08035538      0x8  cli.o [1]
  .rodata            const    0x08035540      0x8  cli.o [1]
  .rodata            const    0x08035548      0x8  cli.o [1]
  .rodata            const    0x08035550      0x8  cli.o [1]
  .rodata            const    0x08035558      0x8  cli.o [1]
  .rodata            const    0x08035560      0x8  cli.o [1]
  .rodata            const    0x08035568      0x8  cli.o [1]
  .rodata            const    0x08035570      0x8  device_iar.o [1]
  .rodata            const    0x08035578      0x8  dumpsys.o [1]
  .rodata            const    0x08035580      0x8  dumpsys.o [1]
  .rodata            const    0x08035588      0x8  dumpsys.o [1]
  .rodata            const    0x08035590      0x8  dumpsys.o [1]
  .rodata            const    0x08035598      0x8  dumpsys.o [1]
  .rodata            const    0x080355a0      0x8  dumpsys.o [1]
  .rodata            const    0x080355a8      0x8  dumpsys.o [1]
  .rodata            const    0x080355b0      0x8  dumpsys.o [1]
  .rodata            const    0x080355b8      0x8  dumpsys.o [1]
  .rodata            const    0x080355c0      0x8  dumpsys.o [1]
  .rodata            const    0x080355c8      0x8  dumpsys.o [1]
  .rodata            const    0x080355d0      0x8  es_wifi.o [1]
  .rodata            const    0x080355d8      0x8  es_wifi.o [1]
  .rodata            const    0x080355e0      0x8  es_wifi.o [1]
  .rodata            const    0x080355e8      0x8  es_wifi.o [1]
  .rodata            const    0x080355f0      0x8  es_wifi.o [1]
  .rodata            const    0x080355f8      0x8  es_wifi.o [1]
  .rodata            const    0x08035600      0x8  es_wifi.o [1]
  .rodata            const    0x08035608      0x8  es_wifi.o [1]
  .rodata            const    0x08035610      0x8  es_wifi.o [1]
  .rodata            const    0x08035618      0x8  es_wifi.o [1]
  .rodata            const    0x08035620      0x8  es_wifi.o [1]
  .rodata            const    0x08035628      0x8  es_wifi.o [1]
  .rodata            const    0x08035630      0x8  es_wifi.o [1]
  .rodata            const    0x08035638      0x8  es_wifi.o [1]
  .rodata            const    0x08035640      0x8  es_wifi.o [1]
  .rodata            const    0x08035648      0x8  es_wifi.o [1]
  .rodata            const    0x08035650      0x8  es_wifi.o [1]
  .rodata            const    0x08035658      0x8  guider.o [1]
  .rodata            const    0x08035660      0x8  guider.o [1]
  .rodata            const    0x08035668      0x8  guider.o [1]
  .rodata            const    0x08035670      0x8  guider.o [1]
  .rodata            const    0x08035678      0x8  guider.o [1]
  .rodata            const    0x08035680      0x8  guider.o [1]
  .rodata            const    0x08035688      0x8  guider.o [1]
  .rodata            const    0x08035690      0x8  guider.o [1]
  .rodata            const    0x08035698      0x8  json_parser.o [1]
  .rodata            const    0x080356a0      0x8  json_parser.o [1]
  .rodata            const    0x080356a8      0x8  json_parser.o [1]
  .rodata            const    0x080356b0      0x8  json_parser.o [1]
  .rodata            const    0x080356b8      0x8  k_mm_debug.o [1]
  .rodata            const    0x080356c0      0x8  k_mm_debug.o [1]
  .rodata            const    0x080356c8      0x8  k_mm_debug.o [1]
  .rodata            const    0x080356d0      0x8  k_mm_debug.o [1]
  .rodata            const    0x080356d8      0x8  k_sys.o [1]
  .rodata            const    0x080356e0      0x8  kvmgr.o [1]
  .rodata            const    0x080356e8      0x8  kvmgr.o [1]
  .rodata            const    0x080356f0      0x8  lite-log.o [1]
  .rodata            const    0x080356f8      0x8  mqtt-example-b_l475e.o [1]
  .rodata            const    0x08035700      0x8  mqtt-example-b_l475e.o [1]
  .rodata            const    0x08035708      0x8  mqtt_client.o [1]
  .rodata            const    0x08035710      0x8  mqtt_client.o [1]
  .rodata            const    0x08035718      0x8  mqtt_client.o [1]
  .rodata            const    0x08035720      0x8  mqtt_client.o [1]
  .rodata            const    0x08035728      0x8  mqtt_client.o [1]
  .rodata            const    0x08035730      0x8  mqtt_client.o [1]
  .rodata            const    0x08035738      0x8  MQTTConnectClient.o [1]
  .rodata            const    0x08035740      0x8  MQTTConnectClient.o [1]
  .rodata            const    0x08035748      0x8  netmgr.o [1]
  .rodata            const    0x08035750      0x8  netmgr.o [1]
  .rodata            const    0x08035758      0x8  netmgr.o [1]
  .rodata            const    0x08035760      0x8  netmgr.o [1]
  .rodata            const    0x08035768      0x8  netmgr.o [1]
  .rodata            const    0x08035770      0x8  netmgr.o [1]
  .rodata            const    0x08035778      0x8  ota_download.o [1]
  .rodata            const    0x08035780      0x8  ota_download.o [1]
  .rodata            const    0x08035788      0x8  ota_download.o [1]
  .rodata            const    0x08035790      0x8  ota_transport.o [1]
  .rodata            const    0x08035798      0x8  ota_transport.o [1]
  .rodata            const    0x080357a0      0x8  ota_transport.o [1]
  .rodata            const    0x080357a8      0x8  ota_transport.o [1]
  .rodata            const    0x080357b0      0x8  ota_transport.o [1]
  .rodata            const    0x080357b8      0x8  ota_transport.o [1]
  .rodata            const    0x080357c0      0x8  ota_transport.o [1]
  .rodata            const    0x080357c8      0x8  ota_update_manifest.o [1]
  .rodata            const    0x080357d0      0x8  soc_impl.o [1]
  .rodata            const    0x080357d8      0x8  soc_impl.o [1]
  .rodata            const    0x080357e0      0x8  soc_impl.o [1]
  .rodata            const    0x080357e8      0x8  system_stm32l4xx.o [1]
  .rodata            const    0x080357f0      0x8  utils_httpc.o [1]
  .rodata            const    0x080357f8      0x8  utils_httpc.o [1]
  .rodata            const    0x08035800      0x8  utils_httpc.o [1]
  .rodata            const    0x08035808      0x8  utils_httpc.o [1]
  .rodata            const    0x08035810      0x8  utils_httpc.o [1]
  .rodata            const    0x08035818      0x8  utils_httpc.o [1]
  .rodata            const    0x08035820      0x8  utils_httpc.o [1]
  .rodata            const    0x08035828      0x8  utils_httpc.o [1]
  .rodata            const    0x08035830      0x8  utils_httpc.o [1]
  .rodata            const    0x08035838      0x8  utils_list.o [1]
  .rodata            const    0x08035840      0x8  utils_list.o [1]
  .rodata            const    0x08035848      0x8  utils_list.o [1]
  .rodata            const    0x08035850      0x8  version.o [1]
  .rodata            const    0x08035858      0x8  vl53l0x_api_strings.o [1]
  .rodata            const    0x08035860      0x6  xlocale_c.o [3]
  .rodata            const    0x08035868      0x4  cli.o [1]
  .rodata            const    0x0803586c      0x4  cli.o [1]
  .rodata            const    0x08035870      0x4  dumpsys.o [1]
  .rodata            const    0x08035874      0x4  dumpsys.o [1]
  .rodata            const    0x08035878      0x4  dumpsys.o [1]
  .rodata            const    0x0803587c      0x4  kvmgr.o [1]
  .rodata            const    0x08035880      0x4  lite-log.o [1]
  .rodata            const    0x08035884      0x4  lite-log.o [1]
  .rodata            const    0x08035888      0x4  lite-log.o [1]
  .rodata            const    0x0803588c      0x4  lite-log.o [1]
  .rodata            const    0x08035890      0x4  lite-log.o [1]
  .rodata            const    0x08035894      0x4  lite-log.o [1]
  .rodata            const    0x08035898      0x4  mqtt-example-b_l475e.o [1]
  .rodata            const    0x0803589c      0x4  mqtt_client.o [1]
  .rodata            const    0x080358a0      0x4  MQTTConnectClient.o [1]
  .rodata            const    0x080358a4      0x4  MQTTConnectClient.o [1]
  .rodata            const    0x080358a8      0x4  MQTTConnectClient.o [1]
  .rodata            const    0x080358ac      0x4  MQTTConnectClient.o [1]
  .rodata            const    0x080358b0      0x4  MQTTConnectClient.o [1]
  .rodata            const    0x080358b4      0x4  MQTTDeserializePublish.o [1]
  .rodata            const    0x080358b8      0x4  MQTTDeserializePublish.o [1]
  .rodata            const    0x080358bc      0x4  MQTTSerializePublish.o [1]
  .rodata            const    0x080358c0      0x4  MQTTSerializePublish.o [1]
  .rodata            const    0x080358c4      0x4  MQTTSubscribeClient.o [1]
  .rodata            const    0x080358c8      0x4  MQTTSubscribeClient.o [1]
  .rodata            const    0x080358cc      0x4  MQTTUnsubscribeClient.o [1]
  .rodata            const    0x080358d0      0x4  stm32l475e_iot01.o [1]
  .rodata            const    0x080358d4      0x4  stm32l475e_iot01.o [1]
  .rodata            const    0x080358d8      0x4  stm32l475e_iot01.o [1]
  .rodata            const    0x080358dc      0x4  stm32l475e_iot01.o [1]
  .rodata            const    0x080358e0      0x4  stm32l475e_iot01.o [1]
  .text              ro code  0x080358e4      0x4  startup_stm32l475xx_icc.o [1]
  .text              ro code  0x080358e8      0x4  startup_stm32l475xx_icc.o [1]
  .text              ro code  0x080358ec      0x4  startup_stm32l475xx_icc.o [1]
  .text              ro code  0x080358f0      0x4  startup_stm32l475xx_icc.o [1]
  .text              ro code  0x080358f4      0x4  startup_stm32l475xx_icc.o [1]
  .text              ro code  0x080358f8      0x4  startup_stm32l475xx_icc.o [1]
  .text              ro code  0x080358fc      0x4  startup_stm32l475xx_icc.o [1]
  .text              ro code  0x08035900      0x4  startup_stm32l475xx_icc.o [1]
  .text              ro code  0x08035904      0x4  startup_stm32l475xx_icc.o [1]
  .text              ro code  0x08035908      0x4  startup_stm32l475xx_icc.o [1]
  .text              ro code  0x0803590c      0x4  startup_stm32l475xx_icc.o [1]
  .text              ro code  0x08035910      0x4  startup_stm32l475xx_icc.o [1]
  .text              ro code  0x08035914      0x4  startup_stm32l475xx_icc.o [1]
  .text              ro code  0x08035918      0x4  startup_stm32l475xx_icc.o [1]
  .text              ro code  0x0803591c      0x4  startup_stm32l475xx_icc.o [1]
  .text              ro code  0x08035920      0x4  startup_stm32l475xx_icc.o [1]
  .text              ro code  0x08035924      0x4  startup_stm32l475xx_icc.o [1]
  .text              ro code  0x08035928      0x4  startup_stm32l475xx_icc.o [1]
  .text              ro code  0x0803592c      0x4  startup_stm32l475xx_icc.o [1]
  .text              ro code  0x08035930      0x4  startup_stm32l475xx_icc.o [1]
  .text              ro code  0x08035934      0x4  startup_stm32l475xx_icc.o [1]
  .text              ro code  0x08035938      0x4  startup_stm32l475xx_icc.o [1]
  .text              ro code  0x0803593c      0x4  startup_stm32l475xx_icc.o [1]
  .text              ro code  0x08035940      0x4  startup_stm32l475xx_icc.o [1]
  .text              ro code  0x08035944      0x4  startup_stm32l475xx_icc.o [1]
  .text              ro code  0x08035948      0x4  startup_stm32l475xx_icc.o [1]
  .text              ro code  0x0803594c      0x4  startup_stm32l475xx_icc.o [1]
  .text              ro code  0x08035950      0x4  startup_stm32l475xx_icc.o [1]
  .text              ro code  0x08035954      0x4  startup_stm32l475xx_icc.o [1]
  .text              ro code  0x08035958      0x4  startup_stm32l475xx_icc.o [1]
  .text              ro code  0x0803595c      0x4  startup_stm32l475xx_icc.o [1]
  .text              ro code  0x08035960      0x4  startup_stm32l475xx_icc.o [1]
  .text              ro code  0x08035964      0x4  startup_stm32l475xx_icc.o [1]
  .text              ro code  0x08035968      0x4  startup_stm32l475xx_icc.o [1]
  .text              ro code  0x0803596c      0x4  startup_stm32l475xx_icc.o [1]
  .text              ro code  0x08035970      0x4  startup_stm32l475xx_icc.o [1]
  .text              ro code  0x08035974      0x4  startup_stm32l475xx_icc.o [1]
  .text              ro code  0x08035978      0x4  startup_stm32l475xx_icc.o [1]
  .text              ro code  0x0803597c      0x4  startup_stm32l475xx_icc.o [1]
  .text              ro code  0x08035980      0x4  startup_stm32l475xx_icc.o [1]
  .text              ro code  0x08035984      0x4  startup_stm32l475xx_icc.o [1]
  .text              ro code  0x08035988      0x4  startup_stm32l475xx_icc.o [1]
  .text              ro code  0x0803598c      0x4  startup_stm32l475xx_icc.o [1]
  .text              ro code  0x08035990      0x4  startup_stm32l475xx_icc.o [1]
  .text              ro code  0x08035994      0x4  startup_stm32l475xx_icc.o [1]
  .text              ro code  0x08035998      0x4  startup_stm32l475xx_icc.o [1]
  .text              ro code  0x0803599c      0x4  startup_stm32l475xx_icc.o [1]
  .text              ro code  0x080359a0      0x4  startup_stm32l475xx_icc.o [1]
  .text              ro code  0x080359a4      0x4  startup_stm32l475xx_icc.o [1]
  .text              ro code  0x080359a8      0x4  startup_stm32l475xx_icc.o [1]
  .text              ro code  0x080359ac      0x4  startup_stm32l475xx_icc.o [1]
  .text              ro code  0x080359b0      0x4  startup_stm32l475xx_icc.o [1]
  .text              ro code  0x080359b4      0x4  startup_stm32l475xx_icc.o [1]
  .text              ro code  0x080359b8      0x4  startup_stm32l475xx_icc.o [1]
  .text              ro code  0x080359bc      0x4  startup_stm32l475xx_icc.o [1]
  .text              ro code  0x080359c0      0x4  startup_stm32l475xx_icc.o [1]
  .text              ro code  0x080359c4      0x4  startup_stm32l475xx_icc.o [1]
  .text              ro code  0x080359c8      0x4  startup_stm32l475xx_icc.o [1]
  .text              ro code  0x080359cc      0x4  startup_stm32l475xx_icc.o [1]
  .text              ro code  0x080359d0      0x4  startup_stm32l475xx_icc.o [1]
  .text              ro code  0x080359d4      0x4  startup_stm32l475xx_icc.o [1]
  .text              ro code  0x080359d8      0x4  startup_stm32l475xx_icc.o [1]
  .text              ro code  0x080359dc      0x4  startup_stm32l475xx_icc.o [1]
  .text              ro code  0x080359e0      0x4  startup_stm32l475xx_icc.o [1]
  .text              ro code  0x080359e4      0x4  startup_stm32l475xx_icc.o [1]
  .text              ro code  0x080359e8      0x4  startup_stm32l475xx_icc.o [1]
  .text              ro code  0x080359ec      0x4  startup_stm32l475xx_icc.o [1]
  .text              ro code  0x080359f0      0x4  startup_stm32l475xx_icc.o [1]
  .text              ro code  0x080359f4      0x4  startup_stm32l475xx_icc.o [1]
  .text              ro code  0x080359f8      0x4  startup_stm32l475xx_icc.o [1]
  .text              ro code  0x080359fc      0x4  startup_stm32l475xx_icc.o [1]
  .text              ro code  0x08035a00      0x4  startup_stm32l475xx_icc.o [1]
  .text              ro code  0x08035a04      0x4  startup_stm32l475xx_icc.o [1]
  .text              ro code  0x08035a08      0x4  startup_stm32l475xx_icc.o [1]
  .text              ro code  0x08035a0c      0x4  startup_stm32l475xx_icc.o [1]
  .text              ro code  0x08035a10      0x4  startup_stm32l475xx_icc.o [1]
  .rodata            const    0x08035a14      0x0  zero_init3.o [8]
  .rodata            const    0x08035a14      0x0  lz77_init.o [8]
  Initializer bytes  const    0x08035a14    0x4a8  <for P2 s0>
                            - 0x08035ebc  0x35d34

"P2", part 1 of 3:                          0x85c
  P2 s0                       0x20000000    0x85c  <Init block>
    .data            inited   0x20000000    0x1b8  vl53l0x_api.o [1]
    .data            inited   0x200001b8    0x188  vl53l0x_proximity.o [1]
    .data            inited   0x20000340     0xf4  vl53l0x_api.o [1]
    .data            inited   0x20000434     0x70  wifi_port.o [1]
    .data            inited   0x200004a4     0x48  xfiles.o [3]
    .data            inited   0x200004ec     0x48  xfiles.o [3]
    .data            inited   0x20000534     0x48  xfiles.o [3]
    .data            inited   0x2000057c     0x48  xlocale_c.o [3]
    .data            inited   0x200005c4     0x38  xlocale_c.o [3]
    .data            inited   0x200005fc     0x34  lis3mdl.o [1]
    .data            inited   0x20000630     0x34  lsm6dsl.o [1]
    .data            inited   0x20000664     0x34  lsm6dsl.o [1]
    .data            inited   0x20000698     0x24  ota_port.o [1]
    .data            inited   0x200006bc     0x24  x509.o [6]
    .data            inited   0x200006e0     0x20  threading.o [6]
    .data            inited   0x20000700     0x20  xfiles.o [3]
    .data            inited   0x20000720     0x1c  guider.o [1]
    .data            inited   0x2000073c     0x18  lite-log.o [1]
    .data            inited   0x20000754     0x14  netmgr.o [1]
    .data            inited   0x20000768     0x10  hts221.o [1]
    .data            inited   0x20000778     0x10  soc_impl.o [1]
    .data            inited   0x20000788     0x10  vl53l0x_api_calibration.o [1]
    .data            inited   0x20000798     0x10  ssl_tls.o [6]
    .data            inited   0x200007a8      0xc  hts221.o [1]
    .data            inited   0x200007b4      0xc  kvmgr.o [1]
    .data            inited   0x200007c0      0xc  lps22hb.o [1]
    .data            inited   0x200007cc      0xc  netmgr.o [1]
    .data            inited   0x200007d8      0xc  version.o [1]
    .data            inited   0x200007e4      0xc  pkparse.o [6]
    .data            inited   0x200007f0      0x8  local_event.o [1]
    .data            inited   0x200007f8      0x8  local_event.o [1]
    .data            inited   0x20000800      0x8  ota_util.o [1]
    .data            inited   0x20000808      0x8  stm32l475e_iot01.o [1]
    .data            inited   0x20000810      0x8  stm32l475e_iot01.o [1]
    .data            inited   0x20000818      0x8  stm32l475e_iot01.o [1]
    .data            inited   0x20000820      0x8  wifi.o [1]
    .data            inited   0x20000828      0x8  rand.o [3]
    .data            inited   0x20000830      0x8  XShttio.o [3]
    .data            inited   0x20000838      0x4  ca.o [1]
    .data            inited   0x2000083c      0x4  log.o [1]
    .data            inited   0x20000840      0x4  ota_util.o [1]
    .data            inited   0x20000844      0x4  soc_impl.o [1]
    .data            inited   0x20000848      0x4  soc_impl.o [1]
    .data            inited   0x2000084c      0x4  stm32l475e_iot01.o [1]
    .data            inited   0x20000850      0x4  stm32l475e_iot01.o [1]
    .data            inited   0x20000854      0x4  system_stm32l4xx.o [1]
    .data            inited   0x20000858      0x4  ali_crypto_rand.o [4]
                            - 0x2000085c    0x85c

"P2", part 2 of 3:                         0x4b4c
  .bss               zero     0x2000085c    0x6a0  wifi_iar.o [1]
  .bss               zero     0x20000f00    0x500  k_obj.o [1]
  .bss               zero     0x20001400    0x4b0  k_obj.o [1]
  .bss               zero     0x200018b0    0x400  aes.o [5]
  .bss               zero     0x20001cb0    0x400  aes.o [5]
  .bss               zero     0x200020b0    0x400  aes.o [5]
  .bss               zero     0x200024b0    0x400  aes.o [5]
  .bss               zero     0x200028b0    0x400  aes.o [5]
  .bss               zero     0x20002cb0    0x400  aes.o [5]
  .bss               zero     0x200030b0    0x400  aes.o [5]
  .bss               zero     0x200034b0    0x400  aes.o [5]
  .bss               zero     0x200038b0    0x320  k_obj.o [1]
  .bss               zero     0x20003bd0    0x28c  device_iar.o [1]
  .bss               zero     0x20003e5c    0x258  vfs.o [1]
  .bss               zero     0x200040b4    0x258  vfs_inode.o [1]
  .bss               zero     0x2000430c    0x114  netmgr.o [1]
  .bss               zero     0x20004420    0x10c  lite-log.o [1]
  .bss               zero     0x2000452c    0x104  k_obj.o [1]
  .bss               zero     0x20004630    0x100  ota_version.o [1]
  .bss               zero     0x20004730    0x100  soc_init.o [1]
  .bss               zero     0x20004830    0x100  aes.o [5]
  .bss               zero     0x20004930    0x100  aes.o [5]
  .bss               zero     0x20004a30     0xc8  board.o [1]
  .bss               zero     0x20004af8     0xa4  device_iar.o [1]
  .bss               zero     0x20004b9c     0xa0  k_obj.o [1]
  .bss               zero     0x20004c3c     0x84  rand.o [3]
  .bss               zero     0x20004cc0     0x80  XShHandles.o [3]
  .bss               zero     0x20004d40     0x70  k_obj.o [1]
  .bss               zero     0x20004db0     0x70  k_obj.o [1]
  .bss               zero     0x20004e20     0x64  es_wifi_io.o [1]
  .bss               zero     0x20004e84     0x58  ota_download.o [1]
  .bss               zero     0x20004edc     0x50  xfiles.o [3]
  .bss               zero     0x20004f2c     0x50  xfiles.o [3]
  .bss               zero     0x20004f7c     0x4c  stm32l475e_iot01.o [1]
  .bss               zero     0x20004fc8     0x48  k_obj.o [1]
  .bss               zero     0x20005010     0x40  cli.o [1]
  .bss               zero     0x20005050     0x40  cli.o [1]
  .bss               zero     0x20005090     0x40  vl53l0x_platform.o [1]
  .bss               zero     0x200050d0     0x38  k_obj.o [1]
  .bss               zero     0x20005108     0x2c  aes.o [5]
  .bss               zero     0x20005134     0x28  k_obj.o [1]
  .bss               zero     0x2000515c     0x24  ota_update_manifest.o [1]
  .bss               zero     0x20005180     0x24  soc_init.o [1]
  .bss               zero     0x200051a4     0x20  k_obj.o [1]
  .bss               zero     0x200051c4     0x20  stm32l4xx_hal_flash.o [1]
  .bss               zero     0x200051e4     0x18  kvmgr.o [1]
  .bss               zero     0x200051fc     0x18  ssl_ciphersuites.o [6]
  .bss               zero     0x20005214     0x14  hw.o [1]
  .bss               zero     0x20005228     0x14  soc_init.o [1]
  .bss               zero     0x2000523c     0x10  ota_service.o [1]
  .bss               zero     0x2000524c      0xc  aos.o [1]
  .bss               zero     0x20005258      0xc  mqtt-example-b_l475e.o [1]
  .bss               zero     0x20005264      0xc  ota_transport.o [1]
  .bss               zero     0x20005270      0xc  sensors_data.o [1]
  .bss               zero     0x2000527c      0xc  soc_init.o [1]
  .tbss              zero     0x20005288      0xc  strerror.o [3]
  .bss               zero     0x20005294      0x4  aos.o [1]
  .bss               zero     0x20005298      0x8  k_obj.o [1]
  .bss               zero     0x200052a0      0x8  k_obj.o [1]
  .bss               zero     0x200052a8      0x8  k_obj.o [1]
  .bss               zero     0x200052b0      0x8  k_obj.o [1]
  .bss               zero     0x200052b8      0x8  k_obj.o [1]
  .bss               zero     0x200052c0      0x8  k_obj.o [1]
  .bss               zero     0x200052c8      0x8  ota_port.o [1]
  .bss               zero     0x200052d0      0x8  sensors_data.o [1]
  .bss               zero     0x200052d8      0x8  sensors_data.o [1]
  .bss               zero     0x200052e0      0x4  aos_rhino.o [1]
  .bss               zero     0x200052e4      0x4  cJSON.o [1]
  .bss               zero     0x200052e8      0x4  cli.o [1]
  .bss               zero     0x200052ec      0x4  cli.o [1]
  .bss               zero     0x200052f0      0x4  device.o [1]
  .bss               zero     0x200052f4      0x4  device_iar.o [1]
  .bss               zero     0x200052f8      0x4  es_wifi_io.o [1]
  .bss               zero     0x200052fc      0x4  es_wifi_io.o [1]
  .bss               zero     0x20005300      0x4  es_wifi_io.o [1]
  .bss               zero     0x20005304      0x4  es_wifi_io.o [1]
  .bss               zero     0x20005308      0x4  HAL_TCP_rhino.o [1]
  .bss               zero     0x2000530c      0x4  HAL_TLS_mbedtls.o [1]
  .bss               zero     0x20005310      0x4  k_mm.o [1]
  .bss               zero     0x20005314      0x4  k_obj.o [1]
  .bss               zero     0x20005318      0x4  k_obj.o [1]
  .bss               zero     0x2000531c      0x4  k_obj.o [1]
  .bss               zero     0x20005320      0x4  k_obj.o [1]
  .bss               zero     0x20005324      0x4  mqtt-example-b_l475e.o [1]
  .bss               zero     0x20005328      0x4  mqtt-example-b_l475e.o [1]
  .bss               zero     0x2000532c      0x4  mqtt-example-b_l475e.o [1]
  .bss               zero     0x20005330      0x4  MQTTPacket.o [1]
  .bss               zero     0x20005334      0x4  ota.o [1]
  .bss               zero     0x20005338      0x4  ota_port.o [1]
  .bss               zero     0x2000533c      0x4  ota_service.o [1]
  .bss               zero     0x20005340      0x4  ota_service.o [1]
  .bss               zero     0x20005344      0x4  ota_service.o [1]
  .bss               zero     0x20005348      0x4  ota_transport.o [1]
  .bss               zero     0x2000534c      0x4  ota_update_manifest.o [1]
  .bss               zero     0x20005350      0x4  ota_update_manifest.o [1]
  .bss               zero     0x20005354      0x4  ota_update_manifest.o [1]
  .bss               zero     0x20005358      0x4  sensors_data.o [1]
  .bss               zero     0x2000535c      0x4  sensors_data.o [1]
  .bss               zero     0x20005360      0x4  sensors_data.o [1]
  .bss               zero     0x20005364      0x4  stm32l475e_iot01_accelero.o [1]
  .bss               zero     0x20005368      0x4  stm32l475e_iot01_gyro.o [1]
  .bss               zero     0x2000536c      0x4  stm32l475e_iot01_hsensor.o [1]
  .bss               zero     0x20005370      0x4  stm32l475e_iot01_magneto.o [1]
  .bss               zero     0x20005374      0x4  stm32l475e_iot01_psensor.o [1]
  .bss               zero     0x20005378      0x4  stm32l475e_iot01_tsensor.o [1]
  .bss               zero     0x2000537c      0x4  stm32l4xx_hal.o [1]
  .bss               zero     0x20005380      0x4  vfs.o [1]
  .bss               zero     0x20005384      0x4  yloop.o [1]
  .bss               zero     0x20005388      0x4  yloop.o [1]
  .bss               zero     0x2000538c      0x4  strtok.o [3]
  .bss               zero     0x20005390      0x4  xfail_s.o [3]
  .tbss              zero     0x20005394      0x4  errno.o [3]
  .bss               zero     0x20005398      0x2  k_obj.o [1]
  .bss               zero     0x2000539a      0x2  ota_port.o [1]
  .bss               zero     0x2000539c      0x2  sensors_data.o [1]
  .bss               zero     0x2000539e      0x1  cli.o [1]
  .bss               zero     0x2000539f      0x1  k_obj.o [1]
  .bss               zero     0x200053a0      0x1  k_obj.o [1]
  .bss               zero     0x200053a1      0x1  k_obj.o [1]
  .bss               zero     0x200053a2      0x1  netmgr.o [1]
  .bss               zero     0x200053a3      0x1  soc_init.o [1]
  .bss               zero     0x200053a4      0x1  vfs.o [1]
  .bss               zero     0x200053a5      0x1  XShttio.o [3]
                            - 0x200053a6   0x4b4a

"P2", part 3 of 3:                         0x2000
  CSTACK                      0x200053a8   0x2000  <Block>
    CSTACK           uninit   0x200053a8   0x2000  <Block tail>
                            - 0x200073a8   0x2000


*******************************************************************************
*** INIT TABLE
***

          Address     Size
          -------     ----
Zero (__iar_zero_init3)
    1 destination range, total size 0x4b4a:
          0x2000085c  0x4b4a

Copy/lz77 (__iar_lz77_init3)
    1 source range, total size 0x4a8 (55% of destination):
          0x08035a14   0x4a8
    1 destination range, total size 0x85c:
          0x20000000   0x85c



*******************************************************************************
*** MODULE SUMMARY
***

    Module                        ro code  ro data  rw data
    ------                        -------  -------  -------
C:\repo\AliOS-Things\projects\IAR\mqttapp\Debug\Obj: [1]
    CheckSumUtils.o                   122
    HAL_OS_rhino.o                    138
    HAL_TCP_rhino.o                   384      384        4
    HAL_TLS_mbedtls.o               1 848    1 324        4
    MQTTConnectClient.o               768       36
    MQTTDeserializePublish.o          296        8
    MQTTPacket.o                      600                 4
    MQTTSerializePublish.o            336        8
    MQTTSubscribeClient.o             392        8
    MQTTUnsubscribeClient.o           268        4
    aos.o                             298      192       16
    aos_init.o                         54
    aos_rhino.o                     2 208       12        4
    board.o                           276       72      200
    cJSON.o                         1 912       32        4
    ca.o                               12    1 287        4
    cli.o                           3 748    1 156      137
    device.o                          780       36        4
    device_iar.o                      284      216      820
    download_common.o                  30
    dumpsys.o                       1 652      760
    es_wifi.o                       2 740      176
    es_wifi_io.o                    1 644       64      116
    flash_l4.o                        972      288
    flash_port.o                      408       24
    guider.o                        3 212    1 621       28
    hts221.o                          612       16       28
    hw.o                               44       24       20
    iar_libc.o                         60
    json_parser.o                     964      100
    json_token.o                      284       68
    k_dyn_mem_proc.o                  208       20
    k_err.o                            28
    k_idle.o                           60
    k_mm.o                          2 812      184        4
    k_mm_blk.o                        370
    k_mm_debug.o                      668      680
    k_mutex.o                       1 072
    k_obj.o                                           4 193
    k_pend.o                          404
    k_queue.o                         464
    k_ringbuf.o                       582
    k_sched.o                       1 088
    k_sem.o                           704
    k_stats.o                          80
    k_sys.o                           418       20
    k_task.o                        2 292
    k_tick.o                          428
    k_time.o                          162
    k_timer.o                       1 032       40
    kvmgr.o                         3 808      185       36
    lis3mdl.o                         388       29       52
    lite-log.o                        428      101      292
    local_event.o                     328       21       16
    log.o                              96        2        4
    lps22hb.o                         230        6       12
    lsm6dsl.o                         788       58      104
    main.o                             32       32
    mbedtls_net.o                     628      556
    md5.o                           2 314       64
    mem_stats.o                       116       56
    mqtt-example-b_l475e.o          2 396    1 552       24
    mqtt_client.o                  11 392    3 880
    netmgr.o                        1 994      371      309
    ota.o                             126                 4
    ota_download.o                  1 416      824       88
    ota_platform_os.o                  96
    ota_port.o                        524      312       50
    ota_service.o                     440       76       28
    ota_socket.o                      662      652
    ota_transport.o                 1 960    1 176       16
    ota_update_manifest.o           1 426      516       48
    ota_util.o                        268        7       12
    ota_version.o                     148       32      256
    port_c.o                          244
    port_s.o                          140
    sdk-impl.o                        304      148
    sensors_data.o                    464      488       42
    soc_impl.o                        128       97       24
    soc_init.o                      1 488               325
    startup_stm32l475xx_icc.o         712
    stm32l475e_iot01.o              1 356       41      108
    stm32l475e_iot01_accelero.o       152                 4
    stm32l475e_iot01_gyro.o           156                 4
    stm32l475e_iot01_hsensor.o         64                 4
    stm32l475e_iot01_magneto.o        120                 4
    stm32l475e_iot01_psensor.o         64                 4
    stm32l475e_iot01_tsensor.o         56                 4
    stm32l4xx_hal.o                   122                 4
    stm32l4xx_hal_cortex.o            364
    stm32l4xx_hal_dma.o                88
    stm32l4xx_hal_flash.o             796                32
    stm32l4xx_hal_flash_ex.o        2 160
    stm32l4xx_hal_gpio.o              632
    stm32l4xx_hal_i2c.o             3 084
    stm32l4xx_hal_i2c_ex.o            100
    stm32l4xx_hal_msp.o                76
    stm32l4xx_hal_msp_template.o        2
    stm32l4xx_hal_pwr_ex.o            168
    stm32l4xx_hal_rcc.o             2 708
    stm32l4xx_hal_rcc_ex.o          2 096
    stm32l4xx_hal_rng.o                70
    stm32l4xx_hal_rtc.o               944
    stm32l4xx_hal_spi.o             3 776
    stm32l4xx_hal_spi_ex.o             42
    stm32l4xx_hal_uart.o            2 728
    stm32l4xx_hal_uart_ex.o             2
    stm32l4xx_it.o                    132
    system_stm32l4xx.o                108       74        4
    trace_impl.o                       16       24
    utils_hmac.o                      256
    utils_httpc.o                   4 660    1 832
    utils_list.o                      540      168
    utils_md5.o                        20
    utils_net.o                       592      136
    utils_sha1.o                    6 308       64
    utils_timer.o                     220      156
    version.o                         104      111       12
    vfs.o                           1 216               605
    vfs_inode.o                       368               600
    vfs_register.o                    140
    vl53l0x_api.o                   4 776      381      684
    vl53l0x_api_calibration.o       2 520        9       16
    vl53l0x_api_core.o              7 030
    vl53l0x_api_strings.o             296       68
    vl53l0x_platform.o                648                64
    vl53l0x_proximity.o               556      622      392
    wifi.o                            234        5        8
    wifi_iar.o                        644             1 696
    wifi_port.o                       460      350      112
    yloop.o                           820       80        8
    -------------------------------------------------------
    Total:                        130 292   24 222   11 701

command line: [2]
    -------------------------------------------------------
    Total:

dl7M_tlf.a: [3]
    XShHandles.o                       76               128
    XShttio.o                          60        4        9
    abort.o                             6
    abs.o                               8
    errno.o                            56                 4
    exit.o                              4
    fflush.o                          172
    fprintf.o                          60
    iar_Stolx.o                       134
    iar_Stoulx.o                      380
    isspace.o                          20
    low_level_init.o                    4
    printf.o                           40
    putchar.o                          12
    rand.o                            168        4      140
    snprintf.o                         68
    sprintf.o                          64
    sscanf.o                           40
    strcat.o                           32
    strcspn.o                          34
    strerror.o                        268                12
    strncmp.o                          40
    strspn.o                           34
    strstr.o                           48
    strtok.o                           72                 4
    tolower.o                          20
    tp_nothreads.o                      4
    vprintf.o                          32
    vsnprint.o                         60
    xfail_s.o                          68                 4
    xfiles.o                                   138      408
    xfprout.o                          24
    xlocale_c.o                        64       77      128
    xprintffull_nomb.o              3 554
    xprout.o                           22
    xscanflarge_nomb.o              1 732
    xsnprout.o                         26
    xsprout.o                          10
    xsscin.o                           30
    -------------------------------------------------------
    Total:                          7 546      223      837

libalicrypto.a: [4]
    aes.o                           1 760
    ali_crypto_rand.o                 228        3        4
    rsa.o                           3 164
    -------------------------------------------------------
    Total:                          5 152        3        4

libmbedcrytpo.a: [5]
    aes.o                           3 558             8 748
    bignum.o                        6 352
    mbedtls_alt.o                     108
    oid.o                             204      176
    rsa.o                           2 532
    -------------------------------------------------------
    Total:                         12 754      176    8 748

libmbedtls.a: [6]
    asn1parse.o                       456
    base64.o                          388
    cipher.o                          974
    cipher_wrap.o                      72      324
    mbedtls_alt.o                   1 816
    md.o                              652
    md5.o                           2 556
    md_wrap.o                         184      220
    pem.o                           1 032
    pk.o                              468
    pk_wrap.o                         192       52
    pkparse.o                         360        6       12
    sha1.o                          4 208
    sha256.o                        3 064
    ssl_ciphersuites.o                264      129       24
    ssl_cli.o                       2 482
    ssl_tls.o                       7 864        9       16
    threading.o                        68       18       32
    x509.o                            620       20       36
    x509_crt.o                      2 900
    -------------------------------------------------------
    Total:                         30 620      778      120

m7M_tls.a: [7]
    DblAdd.o                          376
    DblCmpEq.o                         32
    DblCmpGe.o                         46
    DblCmpLe.o                         46
    DblDiv.o                          582
    DblMul.o                          418
    DblSub.o                          226
    DblToS32.o                         58
    DblToU32.o                         40
    FltToDbl.o                         72
    S32ToDbl.o                         34
    U32ToDbl.o                         26
    fpinit_M.o                         34
    frexp.o                           112
    iar_Exp64.o                     1 048
    ldexp.o                           314
    math_wrappers64.o                  22
    pow64.o                         2 856
    -------------------------------------------------------
    Total:                          6 342

rt7M_tl.a: [8]
    ABImemclr.o                         6
    ABImemclr4.o                        6
    ABImemcpy.o                       166
    ABImemmove.o                      150
    ABImemset.o                       102
    ABImemset48.o                      50
    I64DivMod.o                       558
    I64DivZer.o                         2
    I64Shl.o                           34
    U64Shr.o                           30
    cexit.o                            10
    cmain.o                            30
    cstartup_M.o                       12
    data_init.o                        40
    lz77_init.o                       498
    memchr.o                           88
    memcmp.o                          104
    memset.o                           20
    strchr.o                           22
    strcmp.o                           74
    strcpy.o                           76
    strlen.o                           54
    strncpy.o                         112
    zero_init3.o                       64
    -------------------------------------------------------
    Total:                          2 308

shb_l.a: [9]
    ABIassert.o                        36
    dwrite.o                           30
    exit.o                             20
    iarttio.o                         124
    iarwrite.o                         34
    iarwstd.o                          32
    write.o                            16
    -------------------------------------------------------
    Total:                            292

    Gaps                               97       11        4
    Linker created                              44    8 192
-----------------------------------------------------------
    Grand Total:                  195 403   25 457   29 606


*******************************************************************************
*** ENTRY LIST
***

Entry                      Address    Size  Type      Object
-----                      -------    ----  ----      ------
.iar.init_table$$Base   0x08032f70           --   Gb  - Linker created -
.iar.init_table$$Limit  0x08032f9c           --   Gb  - Linker created -
?main                   0x0803363d          Code  Gb  cmain.o [8]
ACC_Value               0x200052d0     0x8  Data  Lc  sensors_data.o [1]
AHBPrescTable           0x08034f8c    0x10  Data  Gb  system_stm32l4xx.o [1]
APBPrescTable           0x080357e8     0x8  Data  Gb  system_stm32l4xx.o [1]
AT_ExecuteCommand       0x08011759    0x66  Code  Lc  es_wifi.o [1]
AT_ParseConnSettings    0x0801165d    0xfc  Code  Lc  es_wifi.o [1]
AT_ParseInfo            0x080115a9    0xac  Code  Lc  es_wifi.o [1]
AT_RequestReceiveData   0x08011979    0x70  Code  Lc  es_wifi.o [1]
AT_RequestSendData      0x080117bf    0xa8  Code  Lc  es_wifi.o [1]
AccelerometerDrv        0x20005364     0x4  Data  Lc  stm32l475e_iot01_accelero.o [1]
BLK_MAGIC_NUM           0x0800772f     0x1  Data  Lc  kvmgr.o [1]
BSP_ACCELERO_AccGetXYZ  0x0802aee3    0x22  Code  Gb  stm32l475e_iot01_accelero.o [1]
BSP_ACCELERO_Init       0x0802ae79    0x6a  Code  Gb  stm32l475e_iot01_accelero.o [1]
BSP_COM_Init            0x0801993b   0x184  Code  Gb  stm32l475e_iot01.o [1]
BSP_GYRO_GetXYZ         0x0802ae4b    0x22  Code  Gb  stm32l475e_iot01_gyro.o [1]
BSP_GYRO_Init           0x0802addd    0x6e  Code  Gb  stm32l475e_iot01_gyro.o [1]
BSP_HSENSOR_Init        0x0802acad    0x26  Code  Gb  stm32l475e_iot01_hsensor.o [1]
BSP_HSENSOR_ReadHumidity
                        0x0802acd3     0xe  Code  Gb  stm32l475e_iot01_hsensor.o [1]
BSP_LED_Init            0x080197d5    0x56  Code  Gb  stm32l475e_iot01.o [1]
BSP_LED_Off             0x0801984d    0x22  Code  Gb  stm32l475e_iot01.o [1]
BSP_LED_On              0x0801982b    0x22  Code  Gb  stm32l475e_iot01.o [1]
BSP_LED_Toggle          0x0801986f    0x20  Code  Gb  stm32l475e_iot01.o [1]
BSP_MAGNETO_GetXYZ      0x0802adaf    0x22  Code  Gb  stm32l475e_iot01_magneto.o [1]
BSP_MAGNETO_Init        0x0802ad65    0x4a  Code  Gb  stm32l475e_iot01_magneto.o [1]
BSP_PB_Init             0x0801988f    0xac  Code  Gb  stm32l475e_iot01.o [1]
BSP_PSENSOR_Init        0x0802ad25    0x26  Code  Gb  stm32l475e_iot01_psensor.o [1]
BSP_PSENSOR_ReadPressure
                        0x0802ad4b     0xe  Code  Gb  stm32l475e_iot01_psensor.o [1]
BSP_TSENSOR_Init        0x0802aced    0x20  Code  Gb  stm32l475e_iot01_tsensor.o [1]
BSP_TSENSOR_ReadTemp    0x0802ad0d     0xe  Code  Gb  stm32l475e_iot01_tsensor.o [1]
BUTTON_IRQn             0x0800500e     0x2  Data  Gb  stm32l475e_iot01.o [1]
BUTTON_PIN              0x08003cca     0x2  Data  Gb  stm32l475e_iot01.o [1]
BUTTON_PORT             0x20000850     0x4  Data  Gb  stm32l475e_iot01.o [1]
BusFault_Handler        0x0803011b     0x2  Code  Gb  stm32l4xx_it.o [1]
Button_ISR              0x08017d01    0x10  Code  Lc  soc_init.o [1]
Button_WaitForPush      0x08017d11    0x44  Code  Gb  soc_init.o [1]
COM_RX_AF               0x080358e0     0x4  Data  Gb  stm32l475e_iot01.o [1]
COM_RX_PIN              0x080358d8     0x4  Data  Gb  stm32l475e_iot01.o [1]
COM_RX_PORT             0x20000818     0x8  Data  Gb  stm32l475e_iot01.o [1]
COM_TX_AF               0x080358dc     0x4  Data  Gb  stm32l475e_iot01.o [1]
COM_TX_PIN              0x080358d4     0x4  Data  Gb  stm32l475e_iot01.o [1]
COM_TX_PORT             0x20000810     0x8  Data  Gb  stm32l475e_iot01.o [1]
COM_USART               0x20000808     0x8  Data  Gb  stm32l475e_iot01.o [1]
CRC16_Final             0x0802f15b    0x20  Code  Gb  CheckSumUtils.o [1]
CRC16_Init              0x0802f12f     0x6  Code  Gb  CheckSumUtils.o [1]
CRC16_Update            0x0802f135    0x26  Code  Gb  CheckSumUtils.o [1]
CRT_OID_PKCS1_MD5       0x200006bc     0xc  Data  Lc  x509.o [6]
CRT_OID_PKCS1_RSA       0x200007e4     0xc  Data  Lc  pkparse.o [6]
CRT_OID_PKCS1_SHA1      0x200006c8     0xc  Data  Lc  x509.o [6]
CRT_OID_PKCS1_SHA256    0x200006d4     0xc  Data  Lc  x509.o [6]
CSTACK$$Base            0x200053a8           --   Gb  - Linker created -
CSTACK$$Limit           0x200073a8           --   Gb  - Linker created -
DebugMon_Handler        0x08030121     0x2  Code  Gb  stm32l4xx_it.o [1]
Decode                  0x0802df9b    0x38  Code  Lc  md5.o [1]
DefaultTuningSettings   0x20000340    0xf4  Data  Gb  vl53l0x_api.o [1]
Dev                     0x200001b8   0x188  Data  Gb  vl53l0x_proximity.o [1]
ES_WIFI_Connect         0x08011a65    0xae  Code  Gb  es_wifi.o [1]
ES_WIFI_DNS_LookUp      0x08011bb5    0x4a  Code  Gb  es_wifi.o [1]
ES_WIFI_Disconnect      0x08011b13    0x1e  Code  Gb  es_wifi.o [1]
ES_WIFI_GetMACAddress   0x08011b67    0x40  Code  Gb  es_wifi.o [1]
ES_WIFI_GetNetworkSettings
                        0x08011b31    0x36  Code  Gb  es_wifi.o [1]
ES_WIFI_Init            0x080119e9    0x3e  Code  Gb  es_wifi.o [1]
ES_WIFI_ReceiveData     0x08011e1d    0xbe  Code  Gb  es_wifi.o [1]
ES_WIFI_RegisterBusIO   0x08011a27    0x3e  Code  Gb  es_wifi.o [1]
ES_WIFI_SendData        0x08011d55    0xc6  Code  Gb  es_wifi.o [1]
ES_WIFI_StartClientConnection
                        0x08011c09    0xf2  Code  Gb  es_wifi.o [1]
ES_WIFI_StopClientConnection
                        0x08011cfd    0x4c  Code  Gb  es_wifi.o [1]
EXTI15_10_IRQHandler    0x08030149     0xc  Code  Gb  stm32l4xx_it.o [1]
Encode                  0x0802df5d    0x3e  Code  Lc  md5.o [1]
Error_Handler           0x08018111    0x10  Code  Gb  soc_init.o [1]
EsWifiObj               0x2000085c   0x6a0  Data  Gb  wifi_iar.o [1]
FLASH_FlushCaches       0x080267fd    0x92  Code  Gb  stm32l4xx_hal_flash_ex.o [1]
FLASH_MassErase         0x08026759    0x3a  Code  Lc  stm32l4xx_hal_flash_ex.o [1]
FLASH_OB_GetPCROP       0x08026c97    0xbe  Code  Lc  stm32l4xx_hal_flash_ex.o [1]
FLASH_OB_GetRDP         0x08026c67    0x26  Code  Lc  stm32l4xx_hal_flash_ex.o [1]
FLASH_OB_GetUser        0x08026c8d     0xa  Code  Lc  stm32l4xx_hal_flash_ex.o [1]
FLASH_OB_GetWRP         0x08026bff    0x68  Code  Lc  stm32l4xx_hal_flash_ex.o [1]
FLASH_OB_PCROPConfig    0x08026ad1   0x12e  Code  Lc  stm32l4xx_hal_flash_ex.o [1]
FLASH_OB_RDPConfig      0x0802694d    0x58  Code  Lc  stm32l4xx_hal_flash_ex.o [1]
FLASH_OB_UserConfig     0x080269a5   0x12c  Code  Lc  stm32l4xx_hal_flash_ex.o [1]
FLASH_OB_WRPConfig      0x0802688f    0xbe  Code  Lc  stm32l4xx_hal_flash_ex.o [1]
FLASH_PageErase         0x08026793    0x6a  Code  Gb  stm32l4xx_hal_flash_ex.o [1]
FLASH_Program_DoubleWord
                        0x080264b5    0x18  Code  Lc  stm32l4xx_hal_flash.o [1]
FLASH_Program_Fast      0x080264cd    0x2c  Code  Lc  stm32l4xx_hal_flash.o [1]
FLASH_SetErrorCode      0x080263c3    0xf2  Code  Lc  stm32l4xx_hal_flash.o [1]
FLASH_WaitForLastOperation
                        0x0802632b    0x98  Code  Gb  stm32l4xx_hal_flash.o [1]
FLASH_bank1_enabled     0x080261e9    0x24  Code  Gb  flash_l4.o [1]
FLASH_get_bank          0x08025f2f    0x70  Code  Gb  flash_l4.o [1]
FLASH_get_pageInBank    0x08025f9f    0x94  Code  Gb  flash_l4.o [1]
FLASH_read_at           0x080261bd    0x2c  Code  Gb  flash_l4.o [1]
FLASH_set_boot_bank     0x08026103    0x8c  Code  Gb  flash_l4.o [1]
FLASH_unlock_erase      0x08025e41    0x6e  Code  Gb  flash_l4.o [1]
FLASH_update            0x08026033    0xd0  Code  Gb  flash_l4.o [1]
FLASH_write_at          0x08025eaf    0x80  Code  Gb  flash_l4.o [1]
FSb                     0x20004830   0x100  Data  Lc  aes.o [5]
FT0                     0x200018b0   0x400  Data  Lc  aes.o [5]
FT1                     0x20001cb0   0x400  Data  Lc  aes.o [5]
FT2                     0x200020b0   0x400  Data  Lc  aes.o [5]
FT3                     0x200024b0   0x400  Data  Lc  aes.o [5]
GPIO_PIN                0x080358d0     0x4  Data  Gb  stm32l475e_iot01.o [1]
GPIO_PORT               0x2000084c     0x4  Data  Gb  stm32l475e_iot01.o [1]
GYR_Value               0x20005270     0xc  Data  Lc  sensors_data.o [1]
GyroscopeDrv            0x20005368     0x4  Data  Lc  stm32l475e_iot01_gyro.o [1]
HAL_DMA_Abort_IT        0x08020039    0x58  Code  Gb  stm32l4xx_hal_dma.o [1]
HAL_Delay               0x0801bf39    0x20  Code  Wk  stm32l4xx_hal.o [1]
HAL_FLASHEx_Erase       0x08026529   0x134  Code  Gb  stm32l4xx_hal_flash_ex.o [1]
HAL_FLASHEx_OBGetConfig
                        0x080266f1    0x68  Code  Gb  stm32l4xx_hal_flash_ex.o [1]
HAL_FLASHEx_OBProgram   0x0802665d    0x94  Code  Gb  stm32l4xx_hal_flash_ex.o [1]
HAL_FLASH_OB_Launch     0x08026313    0x18  Code  Gb  stm32l4xx_hal_flash.o [1]
HAL_FLASH_OB_Unlock     0x080262f7    0x1c  Code  Gb  stm32l4xx_hal_flash.o [1]
HAL_FLASH_Program       0x0802620d    0xce  Code  Gb  stm32l4xx_hal_flash.o [1]
HAL_FLASH_Unlock        0x080262db    0x1c  Code  Gb  stm32l4xx_hal_flash.o [1]
HAL_Free                0x0800325f     0xc  Code  Gb  HAL_OS_rhino.o [1]
HAL_GPIO_EXTI_Callback  0x080180fd    0x14  Code  Gb  soc_init.o [1]
HAL_GPIO_EXTI_IRQHandler
                        0x0801f327    0x1e  Code  Gb  stm32l4xx_hal_gpio.o [1]
HAL_GPIO_Init           0x0801f105   0x1f2  Code  Gb  stm32l4xx_hal_gpio.o [1]
HAL_GPIO_ReadPin        0x0801f2f7    0x14  Code  Gb  stm32l4xx_hal_gpio.o [1]
HAL_GPIO_TogglePin      0x0801f31d     0xa  Code  Gb  stm32l4xx_hal_gpio.o [1]
HAL_GPIO_WritePin       0x0801f30b    0x12  Code  Gb  stm32l4xx_hal_gpio.o [1]
HAL_GetPartnerID        0x080032a1     0x6  Code  Gb  HAL_OS_rhino.o [1]
HAL_GetTick             0x0801b0d5     0xc  Code  Wk  stm32l4xx_hal.o [1]
HAL_I2CEx_ConfigAnalogFilter
                        0x0801ff89    0x64  Code  Gb  stm32l4xx_hal_i2c_ex.o [1]
HAL_I2C_DeInit          0x0801f449    0x42  Code  Gb  stm32l4xx_hal_i2c.o [1]
HAL_I2C_Init            0x0801f37d    0xcc  Code  Gb  stm32l4xx_hal_i2c.o [1]
HAL_I2C_Master_Receive  0x0801f61f   0x194  Code  Gb  stm32l4xx_hal_i2c.o [1]
HAL_I2C_Master_Transmit
                        0x0801f48b   0x194  Code  Gb  stm32l4xx_hal_i2c.o [1]
HAL_I2C_Mem_Read        0x0801f9cd   0x216  Code  Gb  stm32l4xx_hal_i2c.o [1]
HAL_I2C_Mem_Write       0x0801f7b3   0x216  Code  Gb  stm32l4xx_hal_i2c.o [1]
HAL_IncTick             0x08030199    0x10  Code  Wk  stm32l4xx_hal.o [1]
HAL_Init                0x080197bd    0x16  Code  Gb  stm32l4xx_hal.o [1]
HAL_InitTick            0x0801f0d9    0x28  Code  Wk  stm32l4xx_hal.o [1]
HAL_Malloc              0x08003253     0xc  Code  Gb  HAL_OS_rhino.o [1]
HAL_MspInit             0x0801f101     0x2  Code  Gb  stm32l4xx_hal_msp_template.o [1]
HAL_MutexCreate         0x0800321d    0x14  Code  Gb  HAL_OS_rhino.o [1]
HAL_MutexDestroy        0x08003231     0xa  Code  Gb  HAL_OS_rhino.o [1]
HAL_MutexLock           0x0800323b     0xe  Code  Gb  HAL_OS_rhino.o [1]
HAL_MutexUnlock         0x08003249     0xa  Code  Gb  HAL_OS_rhino.o [1]
HAL_NVIC_EnableIRQ      0x0800ffcb     0xe  Code  Gb  stm32l4xx_hal_cortex.o [1]
HAL_NVIC_SetPriority    0x0800ffa1    0x2a  Code  Gb  stm32l4xx_hal_cortex.o [1]
HAL_NVIC_SetPriorityGrouping
                        0x0800ff95     0xc  Code  Gb  stm32l4xx_hal_cortex.o [1]
HAL_NVIC_SystemReset    0x0800ffd9     0x8  Code  Gb  stm32l4xx_hal_cortex.o [1]
HAL_PWREx_ControlVoltageScaling
                        0x0801b039    0x8a  Code  Gb  stm32l4xx_hal_pwr_ex.o [1]
HAL_PWREx_GetVoltageRange
                        0x0801b02d     0xc  Code  Gb  stm32l4xx_hal_pwr_ex.o [1]
HAL_Printf              0x0800327f    0x1c  Code  Gb  HAL_OS_rhino.o [1]
HAL_RCCEx_EnableMSIPLLMode
                        0x0801ac95    0x12  Code  Gb  stm32l4xx_hal_rcc_ex.o [1]
HAL_RCCEx_PeriphCLKConfig
                        0x0801a7fd   0x484  Code  Gb  stm32l4xx_hal_rcc_ex.o [1]
HAL_RCC_ClockConfig     0x0801a3ab   0x1d2  Code  Gb  stm32l4xx_hal_rcc.o [1]
HAL_RCC_GetHCLKFreq     0x0801a6db     0x6  Code  Gb  stm32l4xx_hal_rcc.o [1]
HAL_RCC_GetPCLK1Freq    0x0801a6e1    0x20  Code  Gb  stm32l4xx_hal_rcc.o [1]
HAL_RCC_GetPCLK2Freq    0x0801a701    0x20  Code  Gb  stm32l4xx_hal_rcc.o [1]
HAL_RCC_GetSysClockFreq
                        0x0801a57d   0x15e  Code  Gb  stm32l4xx_hal_rcc.o [1]
HAL_RCC_OscConfig       0x08019d69   0x642  Code  Gb  stm32l4xx_hal_rcc.o [1]
HAL_RNG_Init            0x08019d21    0x46  Code  Gb  stm32l4xx_hal_rng.o [1]
HAL_RNG_MspInit         0x0801ffed    0x26  Code  Gb  stm32l4xx_hal_msp.o [1]
HAL_RTC_Init            0x0801bb89    0xba  Code  Gb  stm32l4xx_hal_rtc.o [1]
HAL_RTC_MspInit         0x08020013    0x16  Code  Gb  stm32l4xx_hal_msp.o [1]
HAL_RTC_SetDate         0x0801bd6f   0x11c  Code  Gb  stm32l4xx_hal_rtc.o [1]
HAL_RTC_SetTime         0x0801bc43   0x12c  Code  Gb  stm32l4xx_hal_rtc.o [1]
HAL_RTC_WaitForSynchro  0x0801be99    0x36  Code  Gb  stm32l4xx_hal_rtc.o [1]
HAL_SPIEx_FlushRxFifo   0x080282c7    0x2a  Code  Gb  stm32l4xx_hal_spi_ex.o [1]
HAL_SPI_DeInit          0x08026e61    0x38  Code  Gb  stm32l4xx_hal_spi.o [1]
HAL_SPI_IRQHandler      0x08027601   0x110  Code  Gb  stm32l4xx_hal_spi.o [1]
HAL_SPI_Init            0x08026d99    0xc8  Code  Gb  stm32l4xx_hal_spi.o [1]
HAL_SPI_Receive         0x08026e99   0x19e  Code  Gb  stm32l4xx_hal_spi.o [1]
HAL_SPI_Receive_IT      0x080273eb    0xf2  Code  Gb  stm32l4xx_hal_spi.o [1]
HAL_SPI_RxCpltCallback  0x08028277     0xc  Code  Gb  es_wifi_io.o [1]
HAL_SPI_TransmitReceive
                        0x08027037   0x300  Code  Gb  stm32l4xx_hal_spi.o [1]
HAL_SPI_TransmitReceive_IT
                        0x080274dd   0x102  Code  Gb  stm32l4xx_hal_spi.o [1]
HAL_SPI_Transmit_IT     0x08027337    0xb4  Code  Gb  stm32l4xx_hal_spi.o [1]
HAL_SPI_TxCpltCallback  0x08028283     0xc  Code  Gb  es_wifi_io.o [1]
HAL_SSL_Destroy         0x08006117    0x2e  Code  Gb  HAL_TLS_mbedtls.o [1]
HAL_SSL_Destroy::__FUNCTION__
                        0x08034d2c    0x10  Data  Lc  HAL_TLS_mbedtls.o [1]
HAL_SSL_Establish       0x08006145    0x8e  Code  Gb  HAL_TLS_mbedtls.o [1]
HAL_SSL_Read            0x080060e7    0x18  Code  Gb  HAL_TLS_mbedtls.o [1]
HAL_SSL_Write           0x080060ff    0x18  Code  Gb  HAL_TLS_mbedtls.o [1]
HAL_SYSTICK_Config      0x0800ffe1     0xc  Code  Gb  stm32l4xx_hal_cortex.o [1]
HAL_SleepMs             0x08003273     0xc  Code  Gb  HAL_OS_rhino.o [1]
HAL_TCP_Destroy         0x08005a33    0x32  Code  Gb  HAL_TCP_rhino.o [1]
HAL_TCP_Destroy::__FUNCTION__
                        0x08034cec    0x10  Data  Lc  HAL_TCP_rhino.o [1]
HAL_TCP_Establish       0x080059b9    0x7a  Code  Gb  HAL_TCP_rhino.o [1]
HAL_TCP_Establish::__FUNCTION__
                        0x0803466c    0x14  Data  Lc  HAL_TCP_rhino.o [1]
HAL_TCP_Read            0x08005aaf    0x58  Code  Gb  HAL_TCP_rhino.o [1]
HAL_TCP_Read::__FUNCTION__
                        0x08034d0c    0x10  Data  Lc  HAL_TCP_rhino.o [1]
HAL_TCP_Write           0x08005a65    0x4a  Code  Gb  HAL_TCP_rhino.o [1]
HAL_TCP_Write::__FUNCTION__
                        0x08034cfc    0x10  Data  Lc  HAL_TCP_rhino.o [1]
HAL_UARTEx_WakeupCallback
                        0x08020093     0x2  Code  Wk  stm32l4xx_hal_uart_ex.o [1]
HAL_UART_IRQHandler     0x0801b27b   0x17a  Code  Gb  stm32l4xx_hal_uart.o [1]
HAL_UART_Init           0x0801b0e1    0x7e  Code  Gb  stm32l4xx_hal_uart.o [1]
HAL_UART_Receive_IT     0x0801b1bb    0xc0  Code  Gb  stm32l4xx_hal_uart.o [1]
HAL_UART_RxCpltCallback
                        0x08018155    0x30  Code  Gb  soc_init.o [1]
HAL_UART_Transmit_IT    0x0801b15f    0x5c  Code  Gb  stm32l4xx_hal_uart.o [1]
HAL_UART_TxCpltCallback
                        0x08018121    0x30  Code  Gb  soc_init.o [1]
HAL_UptimeMs            0x0800326b     0x8  Code  Gb  HAL_OS_rhino.o [1]
HTS221_H_Drv            0x200007a8     0xc  Data  Gb  hts221.o [1]
HTS221_H_Init           0x0802ec91    0x34  Code  Gb  hts221.o [1]
HTS221_H_ReadHumidity   0x0802ecdd    0xf2  Code  Gb  hts221.o [1]
HTS221_H_ReadID         0x0802ecc5    0x18  Code  Gb  hts221.o [1]
HTS221_T_Drv            0x20000768    0x10  Data  Gb  hts221.o [1]
HTS221_T_Init           0x0802eddd    0x36  Code  Gb  hts221.o [1]
HTS221_T_ReadTemp       0x0802ee13    0xe2  Code  Gb  hts221.o [1]
HUMIDITY_Value          0x2000535c     0x4  Data  Lc  sensors_data.o [1]
HardFault_Handler       0x08030117     0x2  Code  Gb  stm32l4xx_it.o [1]
Hex2Num                 0x08011471    0x42  Code  Lc  es_wifi.o [1]
Hsensor_drv             0x2000536c     0x4  Data  Lc  stm32l475e_iot01_hsensor.o [1]
I2C_Flush_TXDR          0x0801fd2f    0x24  Code  Lc  stm32l4xx_hal_i2c.o [1]
I2C_IsAcknowledgeFailed
                        0x0801fed5    0x7e  Code  Lc  stm32l4xx_hal_i2c.o [1]
I2C_RequestMemoryRead   0x0801fc8d    0xa2  Code  Lc  stm32l4xx_hal_i2c.o [1]
I2C_RequestMemoryWrite  0x0801fbe9    0xa4  Code  Lc  stm32l4xx_hal_i2c.o [1]
I2C_TransferConfig      0x0801ff53    0x28  Code  Lc  stm32l4xx_hal_i2c.o [1]
I2C_WaitOnFlagUntilTimeout
                        0x0801fd53    0x58  Code  Lc  stm32l4xx_hal_i2c.o [1]
I2C_WaitOnRXNEFlagUntilTimeout
                        0x0801fe55    0x80  Code  Lc  stm32l4xx_hal_i2c.o [1]
I2C_WaitOnSTOPFlagUntilTimeout
                        0x0801fe03    0x52  Code  Lc  stm32l4xx_hal_i2c.o [1]
I2C_WaitOnTXISFlagUntilTimeout
                        0x0801fdab    0x58  Code  Lc  stm32l4xx_hal_i2c.o [1]
I2Cx_Error              0x08019c39    0x14  Code  Lc  stm32l475e_iot01.o [1]
I2Cx_Init               0x08019b57    0x3a  Code  Lc  stm32l475e_iot01.o [1]
I2Cx_MspInit            0x08019abf    0x98  Code  Lc  stm32l475e_iot01.o [1]
I2Cx_ReadMultiple       0x08019b91    0x54  Code  Lc  stm32l475e_iot01.o [1]
I2Cx_WriteMultiple      0x08019be5    0x54  Code  Lc  stm32l475e_iot01.o [1]
IOT_MQTT_Construct      0x080027d5   0x266  Code  Gb  mqtt_client.o [1]
IOT_MQTT_Construct::__FUNCTION__
                        0x0803493c    0x14  Data  Lc  mqtt_client.o [1]
IOT_MQTT_Destroy        0x08002a45    0x8e  Code  Gb  mqtt_client.o [1]
IOT_MQTT_Destroy::__FUNCTION__
                        0x08034978    0x14  Data  Lc  mqtt_client.o [1]
IOT_MQTT_Publish        0x08002ccd    0x74  Code  Gb  mqtt_client.o [1]
IOT_MQTT_Publish::__FUNCTION__
                        0x080349b4    0x14  Data  Lc  mqtt_client.o [1]
IOT_MQTT_Subscribe      0x08002b79    0xd0  Code  Gb  mqtt_client.o [1]
IOT_MQTT_Subscribe::__FUNCTION__
                        0x0803498c    0x14  Data  Lc  mqtt_client.o [1]
IOT_MQTT_Unsubscribe    0x08002c4d    0x70  Code  Gb  mqtt_client.o [1]
IOT_MQTT_Unsubscribe::__FUNCTION__
                        0x08034238    0x18  Data  Lc  mqtt_client.o [1]
IOT_MQTT_Yield          0x08002add    0x8a  Code  Gb  mqtt_client.o [1]
IOT_MQTT_Yield::__FUNCTION__
                        0x08034f1c    0x10  Data  Lc  mqtt_client.o [1]
IOT_SetupConnInfo       0x08029d7d   0x112  Code  Gb  sdk-impl.o [1]
IOT_SetupConnInfo::__FUNCTION__
                        0x080349dc    0x14  Data  Lc  sdk-impl.o [1]
ITEM_MAGIC_NUM          0x08008892     0x1  Data  Lc  kvmgr.o [1]
InStream_Read           0x0802f18f    0x26  Code  Lc  lz77_init.o [8]
InStream_StepRegion     0x0802f17b    0x14  Code  Lc  lz77_init.o [8]
InterruptThresholdSettings
                        0x20000000   0x1b8  Data  Gb  vl53l0x_api.o [1]
K                       0x08013038   0x100  Data  Lc  sha256.o [6]
LIS3MDL_MagDeInit       0x0802f57b    0x24  Code  Gb  lis3mdl.o [1]
LIS3MDL_MagInit         0x0802f539    0x42  Code  Gb  lis3mdl.o [1]
LIS3MDL_MagLowPower     0x0802f5af    0x2e  Code  Gb  lis3mdl.o [1]
LIS3MDL_MagReadID       0x0802f59f    0x10  Code  Gb  lis3mdl.o [1]
LIS3MDL_MagReadXYZ      0x0802f5dd    0xca  Code  Gb  lis3mdl.o [1]
LITE_free_internal      0x08003be3     0xc  Code  Gb  mem_stats.o [1]
LITE_free_routine       0x08003bef    0x2a  Code  Gb  mem_stats.o [1]
LITE_free_routine::__FUNCTION__
                        0x080347c0    0x14  Data  Lc  mem_stats.o [1]
LITE_get_loglevel       0x08002ecb     0x6  Code  Gb  lite-log.o [1]
LITE_get_logname        0x08002ec7     0x4  Code  Gb  lite-log.o [1]
LITE_json_value_of      0x0800773d   0x10a  Code  Gb  json_token.o [1]
LITE_json_value_of::__func__
                        0x080346bc    0x14  Data  Lc  json_token.o [1]
LITE_malloc_internal    0x08003bb1    0x32  Code  Gb  mem_stats.o [1]
LITE_openlog            0x08002eab    0x1c  Code  Gb  lite-log.o [1]
LITE_set_loglevel       0x08002ed1     0x6  Code  Gb  lite-log.o [1]
LITE_syslog             0x08002e09    0xa2  Code  Gb  lite-log.o [1]
LPS22HB_Init            0x0802fc9d    0x52  Code  Lc  lps22hb.o [1]
LPS22HB_P_Drv           0x200007c0     0xc  Data  Gb  lps22hb.o [1]
LPS22HB_P_Init          0x0802fc09     0xe  Code  Gb  lps22hb.o [1]
LPS22HB_P_ReadID        0x0802fc17    0x18  Code  Gb  lps22hb.o [1]
LPS22HB_P_ReadPressure  0x0802fc31    0x68  Code  Gb  lps22hb.o [1]
LSM6DSL_AccDeInit       0x0802e635    0x20  Code  Gb  lsm6dsl.o [1]
LSM6DSL_AccInit         0x0802e5e5    0x50  Code  Gb  lsm6dsl.o [1]
LSM6DSL_AccLowPower     0x0802e665    0x2e  Code  Gb  lsm6dsl.o [1]
LSM6DSL_AccReadID       0x0802e655    0x10  Code  Gb  lsm6dsl.o [1]
LSM6DSL_AccReadXYZ      0x0802e695    0xca  Code  Gb  lsm6dsl.o [1]
LSM6DSL_GyroDeInit      0x0802e7af    0x20  Code  Gb  lsm6dsl.o [1]
LSM6DSL_GyroInit        0x0802e75f    0x50  Code  Gb  lsm6dsl.o [1]
LSM6DSL_GyroLowPower    0x0802e7df    0x2e  Code  Gb  lsm6dsl.o [1]
LSM6DSL_GyroReadID      0x0802e7cf    0x10  Code  Gb  lsm6dsl.o [1]
LSM6DSL_GyroReadXYZAngRate
                        0x0802e80d    0xc6  Code  Gb  lsm6dsl.o [1]
Led_Off                 0x08017cf7     0xa  Code  Gb  soc_init.o [1]
Led_On                  0x08017ced     0xa  Code  Gb  soc_init.o [1]
Lis3mdlMagDrv           0x200005fc    0x34  Data  Gb  lis3mdl.o [1]
LoadInt                 0x08007c4b    0x7a  Code  Lc  xprintffull_nomb.o [3]
Lsm6dslAccDrv           0x20000630    0x34  Data  Gb  lsm6dsl.o [1]
Lsm6dslGyroDrv          0x20000664    0x34  Data  Gb  lsm6dsl.o [1]
MAG_Value               0x200052d8     0x8  Data  Lc  sensors_data.o [1]
MD5Transform            0x0802d7c9   0x67e  Code  Lc  md5.o [1]
MD5_Final               0x0802d781    0x48  Code  Gb  md5.o [1]
MD5_Init                0x0802d6c9    0x22  Code  Gb  md5.o [1]
MD5_Update              0x0802d6eb    0x96  Code  Gb  md5.o [1]
MQTTConnect             0x080003b5    0xa2  Code  Gb  mqtt_client.o [1]
MQTTConnect::__FUNCTION__
                        0x08035340     0xc  Data  Lc  mqtt_client.o [1]
MQTTDeserialize_ack     0x08003fdb    0x6a  Code  Gb  MQTTDeserializePublish.o [1]
MQTTDeserialize_connack
                        0x080034a3    0x80  Code  Gb  MQTTConnectClient.o [1]
MQTTDeserialize_publish
                        0x08003f25    0xb6  Code  Gb  MQTTDeserializePublish.o [1]
MQTTDeserialize_suback  0x08003a03    0x98  Code  Gb  MQTTSubscribeClient.o [1]
MQTTDeserialize_unsuback
                        0x08003b7d    0x34  Code  Gb  MQTTUnsubscribeClient.o [1]
MQTTDisconnect          0x08000885    0x50  Code  Lc  mqtt_client.o [1]
MQTTKeepalive           0x0800031d    0x98  Code  Lc  mqtt_client.o [1]
MQTTKeepalive::__FUNCTION__
                        0x08034dfc    0x10  Data  Lc  mqtt_client.o [1]
MQTTPacket_decode       0x08003cf7    0x4c  Code  Gb  MQTTPacket.o [1]
MQTTPacket_decodeBuf    0x08003d8f    0x14  Code  Gb  MQTTPacket.o [1]
MQTTPacket_encode       0x08003ccd    0x2a  Code  Gb  MQTTPacket.o [1]
MQTTPacket_equals       0x08003ecb    0x4e  Code  Gb  MQTTPacket.o [1]
MQTTPacket_len          0x08003d43    0x24  Code  Gb  MQTTPacket.o [1]
MQTTPubInfoProc         0x08002261    0xfa  Code  Lc  mqtt_client.o [1]
MQTTPubInfoProc::__FUNCTION__
                        0x08034ecc    0x10  Data  Lc  mqtt_client.o [1]
MQTTPuback              0x08000589    0xd2  Code  Lc  mqtt_client.o [1]
MQTTPublish             0x0800045d   0x12c  Code  Gb  mqtt_client.o [1]
MQTTPublish::__FUNCTION__
                        0x0803534c     0xc  Data  Lc  mqtt_client.o [1]
MQTTRePublish           0x08002219    0x48  Code  Lc  mqtt_client.o [1]
MQTTSerialize_ack       0x08003689    0x70  Code  Gb  MQTTSerializePublish.o [1]
MQTTSerialize_connect   0x0800333d   0x166  Code  Gb  MQTTConnectClient.o [1]
MQTTSerialize_connectLength
                        0x080032b1    0x8c  Code  Gb  MQTTConnectClient.o [1]
MQTTSerialize_disconnect
                        0x0800358d    0x12  Code  Gb  MQTTConnectClient.o [1]
MQTTSerialize_pingreq   0x0800359f    0x12  Code  Gb  MQTTConnectClient.o [1]
MQTTSerialize_publish   0x080035d1    0xb8  Code  Gb  MQTTSerializePublish.o [1]
MQTTSerialize_publishLength
                        0x080035b1    0x20  Code  Gb  MQTTSerializePublish.o [1]
MQTTSerialize_subscribe
                        0x08003947    0xbc  Code  Gb  MQTTSubscribeClient.o [1]
MQTTSerialize_subscribeLength
                        0x0800391d    0x2a  Code  Gb  MQTTSubscribeClient.o [1]
MQTTSerialize_unsubscribe
                        0x08003acf    0xaa  Code  Gb  MQTTUnsubscribeClient.o [1]
MQTTSerialize_unsubscribeLength
                        0x08003aa5    0x2a  Code  Gb  MQTTUnsubscribeClient.o [1]
MQTTSerialize_zero      0x08003523    0x4c  Code  Gb  MQTTConnectClient.o [1]
MQTTSubInfoProc         0x08002019   0x12c  Code  Lc  mqtt_client.o [1]
MQTTSubInfoProc::__FUNCTION__
                        0x08034eac    0x10  Data  Lc  mqtt_client.o [1]
MQTTSubscribe           0x0800065b   0x124  Code  Lc  mqtt_client.o [1]
MQTTSubscribe::__FUNCTION__
                        0x08034e0c    0x10  Data  Lc  mqtt_client.o [1]
MQTTUnsubscribe         0x0800077f   0x106  Code  Lc  mqtt_client.o [1]
MQTTUnsubscribe::__FUNCTION__
                        0x08034e1c    0x10  Data  Lc  mqtt_client.o [1]
MQTTstrlen              0x08003eb1    0x1a  Code  Gb  MQTTPacket.o [1]
MSIRangeTable           0x08031ca4    0x30  Data  Gb  system_stm32l4xx.o [1]
MagnetoDrv              0x20005370     0x4  Data  Lc  stm32l475e_iot01_magneto.o [1]
MemManage_Handler       0x08030119     0x2  Code  Gb  stm32l4xx_it.o [1]
NMI_Handler             0x08030115     0x2  Code  Gb  stm32l4xx_it.o [1]
NVIC_EnableIRQ          0x0800fecb    0x16  Code  Lc  stm32l4xx_hal_cortex.o [1]
NVIC_EncodePriority     0x0800ff07    0x42  Code  Lc  stm32l4xx_hal_cortex.o [1]
NVIC_GetPriorityGrouping
                        0x0800fec1     0xa  Code  Lc  stm32l4xx_hal_cortex.o [1]
NVIC_SetPriority        0x0800fee1    0x26  Code  Lc  stm32l4xx_hal_cortex.o [1]
NVIC_SetPriorityGrouping
                        0x0800fea5    0x1c  Code  Lc  stm32l4xx_hal_cortex.o [1]
NVIC_SystemReset        0x0800ff49    0x1c  Code  Lc  stm32l4xx_hal_cortex.o [1]
NetCallback             0x0802f4bd    0x26  Code  Gb  wifi_port.o [1]
OSA_mutex_free          0x08030473    0x18  Code  Gb  mbedtls_alt.o [5]
OSA_mutex_init          0x08030459    0x1a  Code  Gb  mbedtls_alt.o [5]
OSA_mutex_lock          0x0803048b    0x18  Code  Gb  mbedtls_alt.o [5]
OSA_mutex_unlock        0x080304a3    0x14  Code  Gb  mbedtls_alt.o [5]
OutStream_Write         0x0802f1b5    0x42  Code  Lc  lz77_init.o [8]
PADDING                 0x08030cc0    0x40  Data  Lc  md5.o [1]
PRESSURE_Value          0x20005360     0x4  Data  Lc  sensors_data.o [1]
PROXIMITY_Value         0x2000539c     0x2  Data  Lc  sensors_data.o [1]
ParseHexNumber          0x080114b3    0x4a  Code  Lc  es_wifi.o [1]
ParseIP                 0x08011577    0x32  Code  Gb  es_wifi.o [1]
ParseMAC                0x08011545    0x32  Code  Lc  es_wifi.o [1]
ParseNumber             0x080114fd    0x48  Code  Lc  es_wifi.o [1]
PendSV_Handler          0x080101bb          Code  Gb  port_s.o [1]
PrepareMqttPayload      0x08029c3d   0x100  Code  Gb  sensors_data.o [1]
Psensor_drv             0x20005374     0x4  Data  Lc  stm32l475e_iot01_psensor.o [1]
RCCEx_PLLSAI1_Config    0x0801aca9   0x1d4  Code  Lc  stm32l4xx_hal_rcc_ex.o [1]
RCCEx_PLLSAI2_Config    0x0801ae7d   0x192  Code  Lc  stm32l4xx_hal_rcc_ex.o [1]
RCC_SetFlashLatencyFromMSIRange
                        0x0801a739    0x9a  Code  Lc  stm32l4xx_hal_rcc.o [1]
RCON                    0x20005108    0x28  Data  Lc  aes.o [5]
RSb                     0x20004930   0x100  Data  Lc  aes.o [5]
RT0                     0x200028b0   0x400  Data  Lc  aes.o [5]
RT1                     0x20002cb0   0x400  Data  Lc  aes.o [5]
RT2                     0x200030b0   0x400  Data  Lc  aes.o [5]
RT3                     0x200034b0   0x400  Data  Lc  aes.o [5]
RTC_Bcd2ToByte          0x0801bf1f    0x1a  Code  Gb  stm32l4xx_hal_rtc.o [1]
RTC_ByteToBcd2          0x0801bf09    0x16  Code  Gb  stm32l4xx_hal_rtc.o [1]
RTC_EnterInitMode       0x0801becf    0x3a  Code  Gb  stm32l4xx_hal_rtc.o [1]
RTC_Init                0x08018061    0x9c  Code  Lc  soc_init.o [1]
ReceiveLongDataLen      0x080118d3    0xa6  Code  Lc  es_wifi.o [1]
ReceiveShortDataLen     0x0801186d    0x66  Code  Lc  es_wifi.o [1]
Region$$Table$$Base     0x08032f70           --   Gb  - Linker created -
Region$$Table$$Limit    0x08032f9c           --   Gb  - Linker created -
SENSOR_IO_Init          0x08019c4d     0xa  Code  Gb  stm32l475e_iot01.o [1]
SENSOR_IO_Read          0x08019c79    0x2c  Code  Gb  stm32l475e_iot01.o [1]
SENSOR_IO_ReadMultiple  0x08019ca5    0x28  Code  Gb  stm32l475e_iot01.o [1]
SENSOR_IO_Write         0x08019c57    0x22  Code  Gb  stm32l475e_iot01.o [1]
SPI3_IRQHandler         0x08030155    0x12  Code  Gb  stm32l4xx_it.o [1]
SPI_2linesRxISR_16BIT   0x080277ef    0x3e  Code  Lc  stm32l4xx_hal_spi.o [1]
SPI_2linesRxISR_8BIT    0x08027729    0x72  Code  Lc  stm32l4xx_hal_spi.o [1]
SPI_2linesTxISR_16BIT   0x0802782d    0x3a  Code  Lc  stm32l4xx_hal_spi.o [1]
SPI_2linesTxISR_8BIT    0x0802779b    0x54  Code  Lc  stm32l4xx_hal_spi.o [1]
SPI_CloseRxTx_ISR       0x08027b43    0x66  Code  Lc  stm32l4xx_hal_spi.o [1]
SPI_CloseRx_ISR         0x08027ba9    0x46  Code  Lc  stm32l4xx_hal_spi.o [1]
SPI_CloseTx_ISR         0x08027bef    0x62  Code  Lc  stm32l4xx_hal_spi.o [1]
SPI_DMAAbortOnError     0x08027711    0x18  Code  Lc  stm32l4xx_hal_spi.o [1]
SPI_EndRxTransaction    0x08027a53    0x86  Code  Lc  stm32l4xx_hal_spi.o [1]
SPI_EndRxTxTransaction  0x08027ad9    0x6a  Code  Lc  stm32l4xx_hal_spi.o [1]
SPI_RxISR_16BIT         0x08027891    0x2c  Code  Lc  stm32l4xx_hal_spi.o [1]
SPI_RxISR_8BIT          0x08027867    0x2a  Code  Lc  stm32l4xx_hal_spi.o [1]
SPI_TxISR_16BIT         0x080278e1    0x26  Code  Lc  stm32l4xx_hal_spi.o [1]
SPI_TxISR_8BIT          0x080278bd    0x24  Code  Lc  stm32l4xx_hal_spi.o [1]
SPI_WIFI_DeInit         0x08027f73    0x2e  Code  Gb  es_wifi_io.o [1]
SPI_WIFI_Delay          0x0802826b     0xc  Code  Gb  es_wifi_io.o [1]
SPI_WIFI_Init           0x08027dd7   0x19c  Code  Gb  es_wifi_io.o [1]
SPI_WIFI_MspInit        0x08027c59   0x17e  Code  Gb  es_wifi_io.o [1]
SPI_WIFI_ReceiveData    0x08027fa1   0x184  Code  Gb  es_wifi_io.o [1]
SPI_WIFI_SendData       0x08028125   0x146  Code  Gb  es_wifi_io.o [1]
SPI_WaitFifoStateUntilTimeout
                        0x080279a7    0xac  Code  Lc  stm32l4xx_hal_spi.o [1]
SPI_WaitFlagStateUntilTimeout
                        0x08027907    0xa0  Code  Lc  stm32l4xx_hal_spi.o [1]
SVC_Handler             0x0803011f     0x2  Code  Gb  stm32l4xx_it.o [1]
SetupSingleShot         0x0802afd1   0x13c  Code  Gb  vl53l0x_proximity.o [1]
SysTick_Config          0x0800ff65    0x30  Code  Lc  stm32l4xx_hal_cortex.o [1]
SysTick_Handler         0x08030123    0x26  Code  Gb  stm32l4xx_it.o [1]
SystemClock_Config      0x08017c25    0xc8  Code  Lc  soc_init.o [1]
SystemCoreClock         0x20000854     0x4  Data  Gb  system_stm32l4xx.o [1]
SystemInit              0x080303ed    0x4e  Code  Gb  system_stm32l4xx.o [1]
TEMPERATURE_Value       0x20005358     0x4  Data  Lc  sensors_data.o [1]
TLSConnectNetwork       0x08005e93   0x254  Code  Gb  HAL_TLS_mbedtls.o [1]
TLSConnectNetwork::__FUNCTION__
                        0x08034694    0x14  Data  Lc  HAL_TLS_mbedtls.o [1]
UART4_IRQHandler        0x08030179    0x12  Code  Gb  stm32l4xx_it.o [1]
UART_AdvFeatureConfig   0x0801b86d    0xda  Code  Gb  stm32l4xx_hal_uart.o [1]
UART_CheckIdleState     0x0801b947    0x6e  Code  Gb  stm32l4xx_hal_uart.o [1]
UART_DMAAbortOnError    0x0801ba4d    0x1a  Code  Lc  stm32l4xx_hal_uart.o [1]
UART_EndRxTransfer      0x0801ba23    0x2a  Code  Lc  stm32l4xx_hal_uart.o [1]
UART_EndTransmit_IT     0x0801bad9    0x20  Code  Lc  stm32l4xx_hal_uart.o [1]
UART_Init               0x08017d55   0x14e  Code  Lc  soc_init.o [1]
UART_Receive_IT         0x0801baf9    0x8c  Code  Lc  stm32l4xx_hal_uart.o [1]
UART_SetConfig          0x0801b3f5   0x448  Code  Gb  stm32l4xx_hal_uart.o [1]
UART_Transmit_IT        0x0801ba69    0x70  Code  Lc  stm32l4xx_hal_uart.o [1]
UART_WaitOnFlagUntilTimeout
                        0x0801b9b5    0x6e  Code  Gb  stm32l4xx_hal_uart.o [1]
USART1_IRQHandler       0x08030167    0x12  Code  Gb  stm32l4xx_it.o [1]
UpdateCRC16             0x0802f101    0x2e  Code  Gb  CheckSumUtils.o [1]
UsageFault_Handler      0x0803011d     0x2  Code  Gb  stm32l4xx_it.o [1]
VL53L0X_CheckAndLoadInterruptSettings
                        0x08022893    0xa4  Code  Gb  vl53l0x_api.o [1]
VL53L0X_ClearInterruptMask
                        0x08022f11    0x70  Code  Gb  vl53l0x_api.o [1]
VL53L0X_DataInit        0x08021d49   0x17a  Code  Gb  vl53l0x_api.o [1]
VL53L0X_GetDeviceInfo   0x08021d21    0x14  Code  Gb  vl53l0x_api.o [1]
VL53L0X_GetDeviceMode   0x080221f5     0xc  Code  Gb  vl53l0x_api.o [1]
VL53L0X_GetDeviceParameters
                        0x080220f9    0xd2  Code  Gb  vl53l0x_api.o [1]
VL53L0X_GetFractionEnable
                        0x08022201    0x24  Code  Gb  vl53l0x_api.o [1]
VL53L0X_GetInterMeasurementPeriodMilliSeconds
                        0x080224b1    0x4a  Code  Gb  vl53l0x_api.o [1]
VL53L0X_GetInterruptMaskStatus
                        0x08022f81    0x30  Code  Gb  vl53l0x_api.o [1]
VL53L0X_GetInterruptThresholds
                        0x08022eb3    0x50  Code  Gb  vl53l0x_api.o [1]
VL53L0X_GetLimitCheckEnable
                        0x08022647    0x2c  Code  Gb  vl53l0x_api.o [1]
VL53L0X_GetLimitCheckValue
                        0x08022707    0xe2  Code  Gb  vl53l0x_api.o [1]
VL53L0X_GetMeasurementDataReady
                        0x08022a15    0x52  Code  Gb  vl53l0x_api.o [1]
VL53L0X_GetMeasurementTimingBudgetMicroSeconds
                        0x08022239    0x14  Code  Gb  vl53l0x_api.o [1]
VL53L0X_GetOffsetCalibrationDataMicroMeter
                        0x08021d35    0x14  Code  Gb  vl53l0x_api.o [1]
VL53L0X_GetRangingMeasurementData
                        0x08022a67   0x1d8  Code  Gb  vl53l0x_api.o [1]
VL53L0X_GetSequenceStepEnables
                        0x080223c5    0x8e  Code  Gb  vl53l0x_api.o [1]
VL53L0X_GetSequenceStepTimeout
                        0x08022453    0x5e  Code  Gb  vl53l0x_api.o [1]
VL53L0X_GetVcselPulsePeriod
                        0x08022269    0x1a  Code  Gb  vl53l0x_api.o [1]
VL53L0X_GetWrapAroundCheckEnable
                        0x080227e9    0x42  Code  Gb  vl53l0x_api.o [1]
VL53L0X_GetXTalkCompensationEnable
                        0x080224fb     0xc  Code  Gb  vl53l0x_api.o [1]
VL53L0X_GetXTalkCompensationRateMegaCps
                        0x08022507    0x40  Code  Gb  vl53l0x_api.o [1]
VL53L0X_PROXIMITY_GetDistance
                        0x0802af8b    0x14  Code  Gb  vl53l0x_proximity.o [1]
VL53L0X_PROXIMITY_Init  0x0802af11    0x7a  Code  Gb  vl53l0x_proximity.o [1]
VL53L0X_PROXIMITY_MspInit
                        0x0802af9f    0x32  Code  Gb  vl53l0x_proximity.o [1]
VL53L0X_PerformRefCalibration
                        0x08022879    0x1a  Code  Gb  vl53l0x_api.o [1]
VL53L0X_PerformRefSpadManagement
                        0x08022fb1    0x18  Code  Gb  vl53l0x_api.o [1]
VL53L0X_PerformSingleMeasurement
                        0x0802282b    0x4e  Code  Gb  vl53l0x_api.o [1]
VL53L0X_PerformSingleRangingMeasurement
                        0x08022c3f    0x46  Code  Gb  vl53l0x_api.o [1]
VL53L0X_PollingDelay    0x0802323f    0x12  Code  Gb  vl53l0x_platform.o [1]
VL53L0X_RdByte          0x08023015    0x3c  Code  Gb  vl53l0x_platform.o [1]
VL53L0X_RdDWord         0x0802312b    0x5c  Code  Gb  vl53l0x_platform.o [1]
VL53L0X_RdWord          0x080230df    0x4c  Code  Gb  vl53l0x_platform.o [1]
VL53L0X_ReadMulti       0x0802309b    0x44  Code  Gb  vl53l0x_platform.o [1]
VL53L0X_SetDeviceMode   0x080221cb    0x2a  Code  Gb  vl53l0x_api.o [1]
VL53L0X_SetGpioConfig   0x08022c85   0x22e  Code  Gb  vl53l0x_api.o [1]
VL53L0X_SetLimitCheckEnable
                        0x08022547   0x100  Code  Gb  vl53l0x_api.o [1]
VL53L0X_SetLimitCheckValue
                        0x08022673    0x94  Code  Gb  vl53l0x_api.o [1]
VL53L0X_SetMeasurementTimingBudgetMicroSeconds
                        0x08022225    0x14  Code  Gb  vl53l0x_api.o [1]
VL53L0X_SetSequenceStepEnable
                        0x08022283    0xee  Code  Gb  vl53l0x_api.o [1]
VL53L0X_SetVcselPulsePeriod
                        0x0802224d    0x1c  Code  Gb  vl53l0x_api.o [1]
VL53L0X_StartMeasurement
                        0x08022937    0xde  Code  Gb  vl53l0x_api.o [1]
VL53L0X_StaticInit      0x08021ec3   0x226  Code  Gb  vl53l0x_api.o [1]
VL53L0X_UpdateByte      0x080231f5    0x4a  Code  Gb  vl53l0x_platform.o [1]
VL53L0X_WrByte          0x08023187    0x2e  Code  Gb  vl53l0x_platform.o [1]
VL53L0X_WrWord          0x080231b5    0x38  Code  Gb  vl53l0x_platform.o [1]
VL53L0X_WriteMulti      0x08023051    0x4a  Code  Gb  vl53l0x_platform.o [1]
VL53L0X_calc_dmax       0x080215dd   0x17e  Code  Gb  vl53l0x_api_core.o [1]
VL53L0X_calc_macro_period_ps
                        0x080209c5    0x1a  Code  Gb  vl53l0x_api_core.o [1]
VL53L0X_calc_sigma_estimate
                        0x0802175b   0x2ce  Code  Gb  vl53l0x_api_core.o [1]
VL53L0X_calc_timeout_mclks
                        0x08020a2b    0x34  Code  Gb  vl53l0x_api_core.o [1]
VL53L0X_calc_timeout_us
                        0x08020a5f    0x36  Code  Gb  vl53l0x_api_core.o [1]
VL53L0X_check_part_used
                        0x08023c31    0x5c  Code  Gb  vl53l0x_api_strings.o [1]
VL53L0X_decode_timeout  0x08020a13    0x18  Code  Gb  vl53l0x_api_core.o [1]
VL53L0X_decode_vcsel_period
                        0x080201eb     0xc  Code  Gb  vl53l0x_api_core.o [1]
VL53L0X_device_read_strobe
                        0x08020233    0x5a  Code  Gb  vl53l0x_api_core.o [1]
VL53L0X_encode_timeout  0x080209df    0x34  Code  Gb  vl53l0x_api_core.o [1]
VL53L0X_encode_vcsel_period
                        0x080201f7    0x10  Code  Gb  vl53l0x_api_core.o [1]
VL53L0X_get_device_info
                        0x08023c8d    0xb4  Code  Gb  vl53l0x_api_strings.o [1]
VL53L0X_get_info_from_device
                        0x0802028d   0x738  Code  Gb  vl53l0x_api_core.o [1]
VL53L0X_get_measurement_timing_budget_micro_seconds
                        0x0802130f   0x120  Code  Gb  vl53l0x_api_core.o [1]
VL53L0X_get_offset_calibration_data_micro_meter
                        0x08023251    0x5c  Code  Gb  vl53l0x_api_calibration.o [1]
VL53L0X_get_pal_range_status
                        0x08021a39   0x2e6  Code  Gb  vl53l0x_api_core.o [1]
VL53L0X_get_total_signal_rate
                        0x080215b3    0x2a  Code  Gb  vl53l0x_api_core.o [1]
VL53L0X_get_total_xtalk_rate
                        0x0802156f    0x44  Code  Gb  vl53l0x_api_core.o [1]
VL53L0X_get_vcsel_pulse_period
                        0x0802114d    0x52  Code  Gb  vl53l0x_api_core.o [1]
VL53L0X_isqrt           0x08020207    0x2c  Code  Gb  vl53l0x_api_core.o [1]
VL53L0X_load_tuning_settings
                        0x0802142f   0x140  Code  Gb  vl53l0x_api_core.o [1]
VL53L0X_measurement_poll_for_completion
                        0x080201a9    0x42  Code  Gb  vl53l0x_api_core.o [1]
VL53L0X_perform_phase_calibration
                        0x08023b19    0xac  Code  Gb  vl53l0x_api_calibration.o [1]
VL53L0X_perform_ref_calibration
                        0x08023bc5    0x64  Code  Gb  vl53l0x_api_calibration.o [1]
VL53L0X_perform_ref_spad_management
                        0x080234f1   0x348  Code  Gb  vl53l0x_api_calibration.o [1]
VL53L0X_perform_single_ref_calibration
                        0x08023923    0x54  Code  Gb  vl53l0x_api_calibration.o [1]
VL53L0X_perform_vhv_calibration
                        0x08023a67    0xb2  Code  Gb  vl53l0x_api_calibration.o [1]
VL53L0X_ref_calibration_io
                        0x08023977    0xf0  Code  Gb  vl53l0x_api_calibration.o [1]
VL53L0X_set_measurement_timing_budget_micro_seconds
                        0x0802119f   0x170  Code  Gb  vl53l0x_api_core.o [1]
VL53L0X_set_reference_spads
                        0x08023839    0xea  Code  Gb  vl53l0x_api_calibration.o [1]
VL53L0X_set_vcsel_pulse_period
                        0x08020d67   0x3e6  Code  Gb  vl53l0x_api_core.o [1]
WIFI_CloseClientConnection
                        0x0800a77f    0x2e  Code  Gb  wifi_iar.o [1]
WIFI_Connect            0x0800a64b    0x34  Code  Gb  wifi_iar.o [1]
WIFI_Disconnect         0x0800a6c9    0x22  Code  Gb  wifi_iar.o [1]
WIFI_GetHostAddress     0x0800a6eb    0x20  Code  Gb  wifi_iar.o [1]
WIFI_GetIP_Address      0x0800a69d    0x2c  Code  Gb  wifi_iar.o [1]
WIFI_GetMAC_Address     0x0800a67f    0x1e  Code  Gb  wifi_iar.o [1]
WIFI_GetModuleFwRevision
                        0x0800a829    0x16  Code  Gb  wifi_iar.o [1]
WIFI_GetModuleID        0x0800a83f    0x16  Code  Gb  wifi_iar.o [1]
WIFI_GetModuleName      0x0800a855    0x16  Code  Gb  wifi_iar.o [1]
WIFI_Init               0x0800a60d    0x3e  Code  Gb  wifi_iar.o [1]
WIFI_OpenClientConnection
                        0x0800a70b    0x74  Code  Gb  wifi_iar.o [1]
WIFI_ReceiveData        0x0800a7ef    0x3a  Code  Gb  wifi_iar.o [1]
WIFI_SendData           0x0800a7ad    0x42  Code  Gb  wifi_iar.o [1]
WifiStatusHandler       0x0802f4e3    0x2a  Code  Gb  wifi_port.o [1]
_FProut                 0x08034569    0x18  Code  Gb  xfprout.o [3]
_Files                  0x20000700    0x20  Data  Gb  xfiles.o [3]
_GenldFullNoMb          0x080085b7   0x250  Code  Lc  xprintffull_nomb.o [3]
_GetN                   0x08014879    0x22  Code  Lc  xscanflarge_nomb.o [3]
_GetintLargeNoMb        0x08014cbf   0x204  Code  Lc  xscanflarge_nomb.o [3]
_GetstrLargeNoMb        0x08014b25   0x194  Code  Lc  xscanflarge_nomb.o [3]
_I2CBuffer              0x20005090    0x40  Data  Gb  vl53l0x_platform.o [1]
_I2CRead                0x08022fed    0x28  Code  Gb  vl53l0x_platform.o [1]
_I2CWrite               0x08022fc9    0x24  Code  Gb  vl53l0x_platform.o [1]
_LdtobFullNoMb          0x0800818d   0x3fe  Code  Lc  xprintffull_nomb.o [3]
_LitobFullNoMb          0x08008035   0x112  Code  Lc  xprintffull_nomb.o [3]
_LocaleC_isspace        0x0800fe71    0x14  Code  Gb  xlocale_c.o [3]
_LocaleC_isupper        0x0800fe65     0x2  Code  Gb  xlocale_c.o [3]
_LocaleC_tolower        0x0800fe85     0xc  Code  Gb  xlocale_c.o [3]
_Locale_lconv           0x200005c4    0x38  Data  Lc  xlocale_c.o [3]
_PrintfFullNoMb         0x08007ab1   0x18c  Code  Gb  xprintffull_nomb.o [3]
_Prout                  0x08034581    0x16  Code  Gb  xprout.o [3]
_PutcharsFullNoMb       0x08008807    0x2e  Code  Lc  xprintffull_nomb.o [3]
_PutfldFullNoMb         0x08007cc5   0x264  Code  Lc  xprintffull_nomb.o [3]
_PuttxtFullNoMb         0x08007f29   0x10c  Code  Lc  xprintffull_nomb.o [3]
_Rand_idx               0x20004cbc     0x4  Data  Lc  rand.o [3]
_Rand_rv                0x20004c3c    0x80  Data  Lc  rand.o [3]
_Randinit               0x20000828     0x1  Data  Gb  rand.o [3]
_Randseed               0x2000082c     0x4  Data  Gb  rand.o [3]
_SNProut                0x0800306f    0x1a  Code  Gb  xsnprout.o [3]
_SProut                 0x080032a7     0xa  Code  Gb  xsprout.o [3]
_SScin                  0x08002feb    0x1e  Code  Gb  xsscin.o [3]
_ScanfLargeNoMb         0x080148b5   0x224  Code  Gb  xscanflarge_nomb.o [3]
_Strerror_sbuf          0x20005288     0xc  Tls   Lc  strerror.o [3]
_Strtok_ssave           0x2000538c     0x4  Data  Lc  strtok.o [3]
_UngetN                 0x0801489b    0x1a  Code  Lc  xscanflarge_nomb.o [3]
__aeabi_assert          0x0800638d    0x24  Code  Gb  ABIassert.o [9]
__aeabi_cdcmpeq         0x08028e19          Code  Gb  DblCmpEq.o [7]
__aeabi_cdcmple         0x0800f8f9          Code  Gb  DblCmpLe.o [7]
__aeabi_cdrcmple        0x0800f929          Code  Gb  DblCmpGe.o [7]
__aeabi_d2iz            0x0800fa95          Code  Gb  DblToS32.o [7]
__aeabi_d2uiz           0x0800fe21          Code  Gb  DblToU32.o [7]
__aeabi_dadd            0x08014f41          Code  Gb  DblAdd.o [7]
__aeabi_ddiv            0x0800fbd9          Code  Gb  DblDiv.o [7]
__aeabi_dmul            0x0800f6e5          Code  Gb  DblMul.o [7]
__aeabi_dsub            0x0800faf5          Code  Gb  DblSub.o [7]
__aeabi_errno_addr      0x0800d615     0xc  Code  Gb  errno.o [3]
__aeabi_f2d             0x0802b13d          Code  Gb  FltToDbl.o [7]
__aeabi_i2d             0x0800fad1          Code  Gb  S32ToDbl.o [7]
__aeabi_ldiv0           0x08014f3d          Code  Gb  I64DivZer.o [8]
__aeabi_llsl            0x08013209          Code  Gb  I64Shl.o [8]
__aeabi_llsr            0x080131e9          Code  Gb  U64Shr.o [8]
__aeabi_memclr          0x08013179          Code  Gb  ABImemclr.o [8]
__aeabi_memclr4         0x08007729          Code  Gb  ABImemclr4.o [8]
__aeabi_memcpy          0x08003c25          Code  Gb  ABImemcpy.o [8]
__aeabi_memcpy4         0x08003c45          Code  Gb  ABImemcpy.o [8]
__aeabi_memcpy8         0x08003c45          Code  Gb  ABImemcpy.o [8]
__aeabi_memmove         0x0800ef61          Code  Gb  ABImemmove.o [8]
__aeabi_memmove4        0x0800ef61          Code  Gb  ABImemmove.o [8]
__aeabi_memmove8        0x0800ef61          Code  Gb  ABImemmove.o [8]
__aeabi_memset          0x08003009          Code  Gb  ABImemset.o [8]
__aeabi_ui2d            0x0800fe49          Code  Gb  U32ToDbl.o [7]
__aeabi_uldivmod        0x0800f4b5          Code  Gb  I64DivMod.o [8]
__bss_end__ {Abs}       0x20017fff          Data  Gb  command line/config [2]
__bss_start__ {Abs}     0x20000830          Data  Gb  command line/config [2]
__cmain                 0x0803363d          Code  Gb  cmain.o [8]
__dlist_add             0x0802e8f9     0xa  Code  Lc  device.o [1]
__dlist_add             0x08029ead     0xa  Code  Lc  local_event.o [1]
__dlist_add             0x08010011     0xa  Code  Lc  wifi.o [1]
__dwrite                0x08011451    0x1e  Code  Gb  dwrite.o [9]
__exit                  0x08014865    0x14  Code  Gb  exit.o [9]
__firewall_ROM_start {Abs}
                        0x08066d00          Data  Gb  command line/config [2]
__iar_Errno             0x20005394     0x4  Tls   Gb  errno.o [3]
__iar_Exp64             0x08028e39   0x3b8  Code  Gb  iar_Exp64.o [7]
__iar_Fail_s            0x0800f471    0x1e  Code  Gb  xfail_s.o [3]
__iar_Memchr            0x0800f419          Code  Gb  memchr.o [8]
__iar_Memset            0x08003009          Code  Gb  ABImemset.o [8]
__iar_Memset4_word      0x0800eff9          Code  Gb  ABImemset48.o [8]
__iar_Memset8_word      0x0800eff9          Code  Gb  ABImemset48.o [8]
__iar_Memset_word       0x08003011          Code  Gb  ABImemset.o [8]
__iar_Pow64             0x080282f1   0x654  Code  Lc  pow64.o [7]
__iar_Stderr            0x20000534    0x48  Data  Gb  xfiles.o [3]
__iar_Stdin             0x200004a4    0x48  Data  Gb  xfiles.o [3]
__iar_Stdout            0x200004ec    0x48  Data  Gb  xfiles.o [3]
__iar_Stolx             0x08017485    0x82  Code  Gb  iar_Stolx.o [3]
__iar_Stoulx            0x08007859   0x116  Code  Gb  iar_Stoulx.o [3]
__iar_Strchr            0x08004fb5          Code  Gb  strchr.o [8]
__iar_close_ttio        0x08017409    0x2c  Code  Gb  iarttio.o [9]
__iar_dadd              0x0800fb05          Code  Gb  DblSub.o [7]
__iar_data_init3        0x080327d5    0x28  Code  Gb  data_init.o [8]
__iar_dsub              0x08014f51          Code  Gb  DblAdd.o [7]
__iar_dsubStart         0x08014f63          Code  Gb  DblAdd.o [7]
__iar_errno_set_EDOM    0x0800d5f5     0xe  Code  Gb  errno.o [3]
__iar_errno_set_ERANGE  0x0800d603     0xc  Code  Gb  errno.o [3]
__iar_frexp             0x0800f895          Code  Gb  frexp.o [7]
__iar_frexpl            0x0800f895          Code  Gb  frexp.o [7]
__iar_get_ttio          0x08017435    0x4c  Code  Gb  iarttio.o [9]
__iar_globLocale        0x2000057c    0x48  Data  Lc  xlocale_c.o [3]
__iar_global_Locale     0x0800fe91     0x4  Code  Gb  xlocale_c.o [3]
__iar_init_vfp          0x08032f4d          Code  Gb  fpinit_M.o [7]
__iar_ldexp64           0x0800f959          Code  Gb  ldexp.o [7]
__iar_lookup_ttioh      0x080197af     0x4  Code  Gb  XShttio.o [3]
__iar_lz77_init3        0x0802f1f7   0x176  Code  Gb  lz77_init.o [8]
__iar_nothread_read_tp  0x08014861     0x4  Code  Gb  tp_nothreads.o [3]
__iar_pow64             0x080289e5    0x14  Code  Gb  pow64.o [7]
__iar_pow_medium        0x080289e5    0x14  Code  Gb  pow64.o [7]
__iar_pow_medium64      0x080289e5    0x14  Code  Gb  pow64.o [7]
__iar_pow_mediuml       0x080289e5    0x14  Code  Gb  pow64.o [7]
__iar_program_start     0x0803549d          Code  Gb  cstartup_M.o [8]
__iar_scalbln64         0x0800f959          Code  Gb  ldexp.o [7]
__iar_scalbn64          0x0800f959          Code  Gb  ldexp.o [7]
__iar_sh_Move           0x080183f9    0x46  Code  Gb  XShHandles.o [3]
__iar_sh_stdout         0x0801612d    0x20  Code  Gb  iarwstd.o [9]
__iar_sh_write          0x0801614d    0x22  Code  Gb  iarwrite.o [9]
__iar_softfp___iar_frexp64
                        0x0800f889          Code  Gb  frexp.o [7]
__iar_softfp_frexp      0x0800f889          Code  Gb  frexp.o [7]
__iar_softfp_frexpl     0x0800f889          Code  Gb  frexp.o [7]
__iar_systems$$module {Abs}
                        0x00000001          Data  Gb  command line/config [2]
__iar_ttio_guard_lock   0x08019781    0x1e  Code  Gb  XShttio.o [3]
__iar_ttio_guard_unlock
                        0x0801979f    0x10  Code  Gb  XShttio.o [3]
__iar_ttio_handles      0x20000830     0x8  Data  Lc  XShttio.o [3]
__iar_vfp_pow           0x0802d41f    0x10  Code  Gb  math_wrappers64.o [7]
__iar_zero_init3        0x08030e41    0x40  Code  Gb  zero_init3.o [8]
__item_find_cb          0x08025133    0x64  Code  Lc  kvmgr.o [1]
__item_gc_cb            0x08025197    0xaa  Code  Lc  kvmgr.o [1]
__item_print_cb         0x08025a21    0xa2  Code  Lc  kvmgr.o [1]
__item_recovery_cb      0x080250c3    0x70  Code  Lc  kvmgr.o [1]
__low_level_init        0x0803365b     0x4  Code  Gb  low_level_init.o [3]
__vector_table          0x08000000          Data  Gb  startup_stm32l475xx_icc.o [1]
__write                 0x0800a5e7    0x10  Code  Gb  write.o [9]
_ali_get_hash_size      0x08018b85    0x3e  Code  Lc  rsa.o [4]
_ali_get_hash_size::__FUNCTION__
                        0x08018bc4    0x14  Data  Lc  rsa.o [4]
_ali_get_hash_type      0x08018c05    0x46  Code  Lc  rsa.o [4]
_ali_get_hash_type::__FUNCTION__
                        0x08018c4c    0x14  Data  Lc  rsa.o [4]
_ali_rsa_public_encrypt_pre
                        0x08018df5    0x68  Code  Lc  rsa.o [4]
_ali_rsa_public_encrypt_pre::__FUNCTION__
                        0x080192f8    0x1c  Data  Lc  rsa.o [4]
_authenticate_http_url  0x0800495f    0x2a  Code  Lc  guider.o [1]
_authenticate_string    0x08004989    0xb4  Code  Lc  guider.o [1]
_avRandom               0x08005b39    0x12  Code  Lc  HAL_TLS_mbedtls.o [1]
_calc_hmac_signature    0x080042c5   0x138  Code  Lc  guider.o [1]
_calc_hmac_signature::__FUNCTION__
                        0x08033ea8    0x18  Data  Lc  guider.o [1]
_call_main              0x08033649          Code  Gb  cmain.o [8]
_demo_message_arrive    0x080294bb    0xc6  Code  Lc  mqtt-example-b_l475e.o [1]
_demo_message_arrive::__func__
                        0x08033fe0    0x18  Data  Lc  mqtt-example-b_l475e.o [1]
_edata {Abs}            0x20000830          Data  Gb  command line/config [2]
_event_write            0x0802e9d5    0xbe  Code  Lc  device.o [1]
_exit                   0x08033665          Code  Gb  cexit.o [8]
_fill_conn_string       0x08004a3d    0x58  Code  Lc  guider.o [1]
_get_context            0x0802a7fd     0xe  Code  Lc  yloop.o [1]
_http_response          0x080043fd   0x1d4  Code  Lc  guider.o [1]
_http_response::__func__
                        0x08034c2c    0x10  Data  Lc  guider.o [1]
_ident_partner          0x0800490f    0x50  Code  Lc  guider.o [1]
_iotId_iotToken_http    0x080045d5   0x2f0  Code  Lc  guider.o [1]
_iotId_iotToken_http::__FUNCTION__
                        0x08033ef0    0x18  Data  Lc  guider.o [1]
_main                   0x08033657          Code  Gb  cmain.o [8]
_off_set                0x20005338     0x4  Data  Gb  ota_port.o [1]
_ready_list_add_head    0x0801057b    0x3a  Code  Lc  k_sched.o [1]
_ready_list_add_tail    0x0801054d    0x2e  Code  Lc  k_sched.o [1]
_real_confirm           0x08005ba9    0x20  Code  Lc  HAL_TLS_mbedtls.o [1]
_real_confirm::__FUNCTION__
                        0x08034d1c    0x10  Data  Lc  HAL_TLS_mbedtls.o [1]
_sdata {Abs}            0x20000000          Data  Gb  command line/config [2]
_secure_mode_num        0x080048db     0xc  Code  Lc  guider.o [1]
_secure_mode_str        0x080048e7    0x28  Code  Lc  guider.o [1]
_set_context            0x0802a7eb    0x12  Code  Lc  yloop.o [1]
_ssl_client_init        0x08005bc9   0x112  Code  Lc  HAL_TLS_mbedtls.o [1]
_ssl_client_init::__FUNCTION__
                        0x08034680    0x14  Data  Lc  HAL_TLS_mbedtls.o [1]
_ssl_debug              0x08005b79    0x30  Code  Lc  HAL_TLS_mbedtls.o [1]
_ssl_random             0x08005b4b    0x2e  Code  Lc  HAL_TLS_mbedtls.o [1]
_timestamp_string       0x080048c5    0x16  Code  Lc  guider.o [1]
abort                   0x0800d62d     0x6  Code  Gb  abort.o [3]
abs                     0x08023c29     0x8  Code  Gb  abs.o [3]
add_autoconfig_plugin   0x0802a565    0x10  Code  Lc  netmgr.o [1]
addsize                 0x08009a8f    0x52  Code  Lc  k_mm.o [1]
aes_128_cbc_info        0x0802f774    0x1c  Data  Lc  cipher_wrap.o [6]
aes_128_ecb_info        0x0802f720    0x1c  Data  Lc  cipher_wrap.o [6]
aes_192_cbc_info        0x0802f790    0x1c  Data  Lc  cipher_wrap.o [6]
aes_192_ecb_info        0x0802f73c    0x1c  Data  Lc  cipher_wrap.o [6]
aes_256_cbc_info        0x0802f7ac    0x1c  Data  Lc  cipher_wrap.o [6]
aes_256_ecb_info        0x0802f758    0x1c  Data  Lc  cipher_wrap.o [6]
aes_crypt_cbc_wrap      0x080308e9    0x10  Code  Lc  cipher_wrap.o [6]
aes_crypt_ecb_wrap      0x080308e5     0x4  Code  Lc  cipher_wrap.o [6]
aes_ctx_alloc           0x08030901    0x1a  Code  Lc  cipher_wrap.o [6]
aes_ctx_free            0x0803091b    0x12  Code  Lc  cipher_wrap.o [6]
aes_gen_tables          0x0801bf59   0x224  Code  Lc  aes.o [5]
aes_info                0x0802f704    0x1c  Data  Lc  cipher_wrap.o [6]
aes_init_done           0x20005130     0x4  Data  Lc  aes.o [5]
aes_setkey_dec_wrap     0x080308f9     0x4  Code  Lc  cipher_wrap.o [6]
aes_setkey_enc_wrap     0x080308fd     0x4  Code  Lc  cipher_wrap.o [6]
ali_aes_get_ctx_size    0x08018445    0x56  Code  Gb  aes.o [4]
ali_aes_get_ctx_size::__FUNCTION__
                        0x0801879c    0x18  Data  Lc  aes.o [4]
ali_aes_init            0x0801849d   0x140  Code  Gb  aes.o [4]
ali_aes_init::__FUNCTION__
                        0x0801880c    0x10  Data  Lc  aes.o [4]
ali_aes_process         0x080185dd   0x16a  Code  Gb  aes.o [4]
ali_aes_process::__FUNCTION__
                        0x0801894c    0x10  Data  Lc  aes.o [4]
ali_aes_reset           0x0801875f    0x1e  Code  Gb  aes.o [4]
ali_aes_reset::__FUNCTION__
                        0x08018ae8    0x10  Data  Lc  aes.o [4]
ali_rand_gen            0x0801cd41    0x54  Code  Gb  ali_crypto_rand.o [4]
ali_rand_gen::__FUNCTION__
                        0x0801cde8    0x10  Data  Lc  ali_crypto_rand.o [4]
ali_rsa_get_pubkey_size
                        0x08018c8d    0x2a  Code  Gb  rsa.o [4]
ali_rsa_get_pubkey_size::__FUNCTION__
                        0x08018cb8    0x18  Data  Lc  rsa.o [4]
ali_rsa_init_pubkey     0x08018d0d    0x6c  Code  Gb  rsa.o [4]
ali_rsa_init_pubkey::__FUNCTION__
                        0x08018da0    0x14  Data  Lc  rsa.o [4]
ali_rsa_public_encrypt  0x08018e5d   0x28c  Code  Gb  rsa.o [4]
ali_rsa_public_encrypt::__FUNCTION__
                        0x08019374    0x18  Data  Lc  rsa.o [4]
ali_rsa_verify          0x080190fd   0x1d6  Code  Gb  rsa.o [4]
ali_rsa_verify::__FUNCTION__
                        0x08019568    0x10  Data  Lc  rsa.o [4]
ali_seed                0x0801cd95    0x44  Code  Gb  ali_crypto_rand.o [4]
aliot_mqtt_ota_callback
                        0x0802b79f    0x3a  Code  Lc  ota_transport.o [1]
aos_cli_init            0x08015d6f    0x94  Code  Gb  cli.o [1]
aos_cli_printf          0x08015e09    0x6a  Code  Gb  cli.o [1]
aos_cli_register_command
                        0x08015cc3    0x7a  Code  Gb  cli.o [1]
aos_cli_register_commands
                        0x08015d49    0x26  Code  Gb  cli.o [1]
aos_event_service_init  0x08029f59    0x2c  Code  Gb  local_event.o [1]
aos_fcntl               0x0802b60d    0x26  Code  Gb  vfs.o [1]
aos_framework_init      0x0802fa89    0x20  Code  Gb  main.o [1]
aos_free                0x08005877    0x10  Code  Gb  aos_rhino.o [1]
aos_get_app_version     0x0802c381     0x8  Code  Wk  version.o [1]
aos_get_log_level       0x080150b9     0x8  Code  Lc  cli.o [1]
aos_get_os_version      0x0802ce09     0x8  Code  Gb  ota_version.o [1]
aos_init                0x080058a1     0x8  Code  Gb  aos_rhino.o [1]
aos_ioctl               0x0802b38b    0x72  Code  Gb  vfs.o [1]
aos_kernel_init         0x0802fa41    0x36  Code  Gb  aos_init.o [1]
aos_kv_del              0x0802588d    0x50  Code  Gb  kvmgr.o [1]
aos_kv_gc               0x0802577d   0x110  Code  Gb  kvmgr.o [1]
aos_kv_get              0x0802597f    0x9c  Code  Gb  kvmgr.o [1]
aos_kv_init             0x08025bdb    0x82  Code  Gb  kvmgr.o [1]
aos_kv_set              0x080258dd    0xa2  Code  Gb  kvmgr.o [1]
aos_log_get_level       0x08029ff5     0x8  Code  Lc  netmgr.o [1]
aos_log_get_level       0x0802ce31     0x8  Code  Lc  ota_download.o [1]
aos_log_get_level       0x0802aaf5     0x6  Code  Lc  ota_service.o [1]
aos_log_get_level       0x0802d431     0x6  Code  Lc  ota_socket.o [1]
aos_log_get_level       0x0802b645     0x8  Code  Lc  ota_transport.o [1]
aos_log_get_level       0x0802bded     0x8  Code  Lc  ota_update_manifest.o [1]
aos_log_get_level       0x0802a7e3     0x8  Code  Lc  yloop.o [1]
aos_log_level           0x2000083c     0x4  Data  Gb  log.o [1]
aos_loop_init           0x0802a839    0x70  Code  Gb  yloop.o [1]
aos_loop_run            0x0802a9a5   0x138  Code  Gb  yloop.o [1]
aos_loop_set_eventfd    0x0802a82d     0xc  Code  Gb  yloop.o [1]
aos_malloc              0x08005853    0x24  Code  Gb  aos_rhino.o [1]
aos_msleep              0x0800588f    0x12  Code  Gb  aos_rhino.o [1]
aos_mutex_free          0x08005405    0x1a  Code  Gb  aos_rhino.o [1]
aos_mutex_lock          0x0800541f    0xfc  Code  Gb  aos_rhino.o [1]
aos_mutex_new           0x08005315    0xea  Code  Gb  aos_rhino.o [1]
aos_mutex_unlock        0x0800551b    0xdc  Code  Gb  aos_rhino.o [1]
aos_now_ms              0x08005887     0x8  Code  Gb  aos_rhino.o [1]
aos_open                0x0802b255    0xc8  Code  Gb  vfs.o [1]
aos_poll                0x0802b55f    0xae  Code  Gb  vfs.o [1]
aos_poll_read_fd        0x0802a8a9    0xfc  Code  Gb  yloop.o [1]
aos_post_event          0x08029f85    0x28  Code  Gb  local_event.o [1]
aos_read                0x0802b31d    0x6e  Code  Gb  vfs.o [1]
aos_reboot              0x08005011     0x8  Code  Gb  aos_rhino.o [1]
aos_register_driver     0x0802ec05    0x86  Code  Gb  vfs_register.o [1]
aos_register_event_filter
                        0x08029fad    0x38  Code  Gb  local_event.o [1]
aos_sem_free            0x080056e9    0x1a  Code  Gb  aos_rhino.o [1]
aos_sem_new             0x080055f7    0xee  Code  Gb  aos_rhino.o [1]
aos_sem_signal          0x080057f1    0x10  Code  Gb  aos_rhino.o [1]
aos_sem_signal_all      0x08005801    0x10  Code  Gb  aos_rhino.o [1]
aos_sem_wait            0x08005703    0xee  Code  Gb  aos_rhino.o [1]
aos_set_log_level       0x08017531    0x3c  Code  Gb  log.o [1]
aos_start               0x080058a9     0x8  Code  Gb  aos_rhino.o [1]
aos_task_exit           0x080051f3     0xc  Code  Gb  aos_rhino.o [1]
aos_task_getspecific    0x080052fd    0x18  Code  Gb  aos_rhino.o [1]
aos_task_key_create     0x080051ff    0x36  Code  Gb  aos_rhino.o [1]
aos_task_new            0x0800501f    0xe4  Code  Gb  aos_rhino.o [1]
aos_task_new_ext        0x08005103    0xf0  Code  Gb  aos_rhino.o [1]
aos_task_setspecific    0x08005235    0xc8  Code  Gb  aos_rhino.o [1]
aos_version_get         0x08005019     0x6  Code  Gb  aos_rhino.o [1]
aos_zalloc              0x08005819    0x3a  Code  Gb  aos_rhino.o [1]
application_start       0x08029a51    0x34  Code  Gb  mqtt-example-b_l475e.o [1]
atoi                    0x08007975     0x2  Code  Gb  iar_Stoulx.o [3]
base64_dec_map          0x08017388    0x80  Data  Lc  base64.o [6]
bitmap_search           0x08009e17    0x92  Code  Lc  k_mm.o [1]
board_init              0x0802f92d   0x114  Code  Gb  board.o [1]
bufchar                 0x08003d67    0x28  Code  Gb  MQTTPacket.o [1]
bufptr                  0x20005330     0x4  Data  Lc  MQTTPacket.o [1]
built_ins               0x0802fff4    0x9c  Data  Lc  cli.o [1]
button_flags            0x200053a3     0x1  Data  Lc  soc_init.o [1]
cJSON_Delete            0x0802cbb7    0x48  Code  Gb  cJSON.o [1]
cJSON_GetErrorPtr       0x0802cbb1     0x6  Code  Gb  cJSON.o [1]
cJSON_GetObjectItem     0x0802cc51    0x20  Code  Gb  cJSON.o [1]
cJSON_New_Item          0x0802c4f9    0x20  Code  Lc  cJSON.o [1]
cJSON_Parse             0x0802cbff    0x38  Code  Gb  cJSON.o [1]
cJSON_strcasecmp        0x0802c519    0x54  Code  Lc  cJSON.o [1]
calloc                  0x08005989    0x24  Code  Gb  iar_libc.o [1]
cancel_update           0x0802abc3    0x48  Code  Gb  ota_service.o [1]
check_md5               0x0802d2bd    0x9a  Code  Gb  ota_download.o [1]
ciphersuite_definitions
                        0x08013c48    0xa0  Data  Lc  ssl_ciphersuites.o [6]
ciphersuite_preference  0x08013c34    0x14  Data  Lc  ssl_ciphersuites.o [6]
clear_wifi_ssid         0x0802a393    0x4e  Code  Lc  netmgr.o [1]
cli                     0x200052e8     0x4  Data  Lc  cli.o [1]
cli_getchar             0x08015e93    0x22  Code  Gb  cli.o [1]
cli_main                0x08015841    0xf4  Code  Lc  cli.o [1]
cli_putstr              0x08015e73    0x20  Code  Gb  cli.o [1]
cliexit                 0x200052ec     0x4  Data  Lc  cli.o [1]
cmd_proc                0x0801116f   0x118  Code  Lc  k_timer.o [1]
connect_ssl             0x08004179    0x38  Code  Lc  utils_net.o [1]
connect_ssl::__FUNCTION__
                        0x08035454     0xc  Data  Lc  utils_net.o [1]
connect_tcp             0x080040c3    0x32  Code  Lc  utils_net.o [1]
connect_tcp::__FUNCTION__
                        0x08035430     0xc  Data  Lc  utils_net.o [1]
connet_wifi_ap          0x0802f397    0xba  Code  Lc  wifi_port.o [1]
console_uart            0x20005228    0x14  Data  Lc  soc_init.o [1]
contex                  0x2000539a     0x2  Data  Lc  ota_port.o [1]
core_sched              0x08010477    0x64  Code  Gb  k_sched.o [1]
cpu_cur_get             0x0801756d     0x4  Code  Lc  dumpsys.o [1]
cpu_cur_get             0x080311c9     0x4  Code  Lc  k_idle.o [1]
cpu_cur_get             0x080091e7     0x4  Code  Lc  k_mutex.o [1]
cpu_cur_get             0x08015f71     0x4  Code  Lc  k_queue.o [1]
cpu_cur_get             0x080103b1     0x4  Code  Lc  k_sched.o [1]
cpu_cur_get             0x080096bb     0x4  Code  Lc  k_sem.o [1]
cpu_cur_get             0x0800a44b     0x4  Code  Lc  k_sys.o [1]
cpu_cur_get             0x080088ed     0x4  Code  Lc  k_task.o [1]
cpu_cur_get             0x080095e5     0x4  Code  Lc  k_time.o [1]
cpu_first_task_start    0x0801019b          Code  Gb  port_s.o [1]
cpu_intrpt_restore      0x08010185          Code  Gb  port_s.o [1]
cpu_intrpt_save         0x0801017d          Code  Gb  port_s.o [1]
cpu_intrpt_switch       0x08010193          Code  Gb  port_s.o [1]
cpu_task_stack_init     0x08010209    0xf4  Code  Gb  port_c.o [1]
cpu_task_switch         0x0801018b          Code  Gb  port_s.o [1]
csp_printf              0x0801750d    0x24  Code  Wk  log.o [1]
def_smart_config_result_cb
                        0x0802a7bd     0x2  Code  Lc  netmgr.o [1]
def_smart_config_start  0x0802a717    0x30  Code  Lc  netmgr.o [1]
def_smart_config_stop   0x0802a747     0xe  Code  Lc  netmgr.o [1]
deinit_parg             0x0802b43d     0xc  Code  Lc  vfs.o [1]
del_file                0x0802b245    0x10  Code  Lc  vfs.o [1]
devname_cmd             0x08015c17    0x18  Code  Lc  cli.o [1]
digits                  0x08007984    0x28  Data  Lc  iar_Stoulx.o [3]
disconnect_ssl          0x08004151    0x28  Code  Lc  utils_net.o [1]
disconnect_ssl::__FUNCTION__
                        0x0803502c    0x10  Data  Lc  utils_net.o [1]
disconnect_tcp          0x080040a5    0x1e  Code  Lc  utils_net.o [1]
dlist_add               0x0802e903    0x12  Code  Lc  device.o [1]
dlist_add_tail          0x0802e915    0x12  Code  Lc  device.o [1]
dlist_add_tail          0x08029eb7    0x12  Code  Lc  local_event.o [1]
dlist_add_tail          0x0801001b    0x12  Code  Lc  wifi.o [1]
dlist_del               0x0802e927     0xa  Code  Lc  device.o [1]
dlist_del               0x0802a7c1     0xa  Code  Lc  yloop.o [1]
dlist_empty             0x0802e939    0x10  Code  Lc  device.o [1]
dlist_empty             0x0801002d    0x10  Code  Lc  wifi.o [1]
dlist_empty             0x0802a7d3    0x10  Code  Lc  yloop.o [1]
dlist_init              0x0802e931     0x8  Code  Lc  device.o [1]
dlist_init              0x0802a7cb     0x8  Code  Lc  yloop.o [1]
do_update               0x0802abb5     0xe  Code  Gb  ota_service.o [1]
dump_kmm_free_map       0x08010d39    0x80  Code  Gb  k_mm_debug.o [1]
dump_kmm_map            0x08010db9    0x52  Code  Gb  k_mm_debug.o [1]
dump_kmm_statistic_info
                        0x08010e0b    0x60  Code  Gb  k_mm_debug.o [1]
dump_task_stack         0x08017987   0x194  Code  Gb  dumpsys.o [1]
dump_task_stack_byname  0x08017b1b    0x5a  Code  Gb  dumpsys.o [1]
dumpsys_cmd             0x08015c35    0x18  Code  Lc  cli.o [1]
dumpsys_func            0x08017885   0x102  Code  Gb  dumpsys.o [1]
dumpsys_info_func       0x0801780f    0x70  Code  Lc  dumpsys.o [1]
dumpsys_mm_info_func    0x08010e6b    0x50  Code  Gb  k_mm_debug.o [1]
dumpsys_task_func       0x08017571   0x29e  Code  Gb  dumpsys.o [1]
dyn_mem_proc_task       0x08010f97    0x7a  Code  Gb  k_dyn_mem_proc.o [1]
dyn_mem_proc_task_start
                        0x08011011    0x26  Code  Gb  k_dyn_mem_proc.o [1]
ebuf                    0x20004edc    0x50  Data  Lc  xfiles.o [3]
echo_cmd                0x080159f9    0x6e  Code  Lc  cli.o [1]
enable_ref_spads        0x0802339f    0xc4  Code  Gb  vl53l0x_api_calibration.o [1]
enable_spad_bit         0x0802333d    0x36  Code  Gb  vl53l0x_api_calibration.o [1]
ep                      0x200052e4     0x4  Data  Lc  cJSON.o [1]
esc_tag                 0x20005010    0x40  Data  Gb  cli.o [1]
esc_tag_len             0x2000539e     0x1  Data  Lc  cli.o [1]
event_close             0x0802e987    0x4e  Code  Lc  device.o [1]
event_fops              0x08033e00    0x18  Data  Lc  device.o [1]
event_handle_mqtt       0x0802928d   0x22e  Code  Gb  mqtt-example-b_l475e.o [1]
event_handle_mqtt::__func__
                        0x080347d4    0x14  Data  Lc  mqtt-example-b_l475e.o [1]
event_ioctl             0x0802eaa9    0x44  Code  Lc  device.o [1]
event_open              0x0802e949    0x3e  Code  Lc  device.o [1]
event_poll              0x0802eb65    0x68  Code  Lc  device.o [1]
event_read              0x0802eaed    0x78  Code  Lc  device.o [1]
event_read_cb           0x08029f3b    0x1e  Code  Lc  local_event.o [1]
event_write             0x0802ea93    0x16  Code  Lc  device.o [1]
exit                    0x0803365f     0x4  Code  Gb  exit.o [3]
exit_cmd                0x08015a67     0xe  Code  Lc  cli.o [1]
fflush                  0x08005945    0x34  Code  Gb  fflush.o [3]
fflushOne               0x080058d1    0x74  Code  Lc  fflush.o [3]
files                   0x20003e5c   0x258  Data  Lc  vfs.o [1]
find_last_bit           0x08009ea9    0x1e  Code  Lc  k_mm.o [1]
findblk_byidx           0x08009fc3    0x88  Code  Lc  k_mm.o [1]
firstByteMark           0x080354c8     0x8  Data  Lc  cJSON.o [1]
fprintf                 0x0800a939    0x3c  Code  Gb  fprintf.o [3]
fputc                   0x08017ea3    0x2c  Code  Gb  soc_init.o [1]
free                    0x080059ad     0xc  Code  Gb  iar_libc.o [1]
free_msg_temp           0x0802be5d    0x20  Code  Lc  ota_update_manifest.o [1]
g_active_task           0x20005318     0x4  Data  Gb  k_obj.o [1]
g_aos_init              0x20005294     0x4  Data  Gb  aos.o [1]
g_ctx                   0x20004e84    0x58  Data  Gb  ota_download.o [1]
g_def_smartconfig       0x20000754    0x14  Data  Lc  netmgr.o [1]
g_err_proc              0x20000848     0x4  Data  Gb  soc_impl.o [1]
g_finish_cb             0x20005350     0x4  Data  Gb  ota_update_manifest.o [1]
g_host                  0x20005308     0x4  Data  Gb  HAL_TCP_rhino.o [1]
g_idle_count            0x20005298     0x8  Data  Gb  k_obj.o [1]
g_idle_task             0x20004d40    0x70  Data  Gb  k_obj.o [1]
g_idle_task_spawned     0x2000539f     0x1  Data  Gb  k_obj.o [1]
g_idle_task_stack       0x200038b0   0x320  Data  Gb  k_obj.o [1]
g_intrpt_nested_level   0x200053a1     0x1  Data  Gb  k_obj.o [1]
g_kmm_head              0x20005320     0x4  Data  Gb  k_obj.o [1]
g_kobj_list             0x200050d0    0x38  Data  Gb  k_obj.o [1]
g_kv_mgr                0x200051e4    0x18  Data  Lc  kvmgr.o [1]
g_led_flag              0x2000532c     0x4  Data  Gb  mqtt-example-b_l475e.o [1]
g_local_event_list      0x200007f8     0x8  Data  Lc  local_event.o [1]
g_loop_key              0x20005388     0x4  Data  Lc  yloop.o [1]
g_main_ctx              0x20005384     0x4  Data  Lc  yloop.o [1]
g_mm_region             0x20000778    0x10  Data  Gb  soc_impl.o [1]
g_netmgr_cxt            0x2000430c   0x114  Data  Lc  netmgr.o [1]
g_ota_device_info       0x20005264     0xc  Data  Gb  ota_transport.o [1]
g_ota_info              0x20000840     0x4  Data  Lc  ota_util.o [1]
g_ota_info_storage      0x20000800     0x8  Data  Lc  ota_util.o [1]
g_preferred_ready_task  0x20005314     0x4  Data  Gb  k_obj.o [1]
g_ready_queue           0x2000452c   0x104  Data  Gb  k_obj.o [1]
g_region_num            0x20000844     0x4  Data  Gb  soc_impl.o [1]
g_res_list              0x200052c0     0x8  Data  Gb  k_obj.o [1]
g_res_sem               0x20005134    0x28  Data  Gb  k_obj.o [1]
g_sched_lock            0x200053a0     0x1  Data  Gb  k_obj.o [1]
g_station_is_up         0x200053a2     0x1  Data  Lc  netmgr.o [1]
g_sys_stat              0x20005398     0x2  Data  Gb  k_obj.o [1]
g_sys_time_tick         0x200052a8     0x8  Data  Gb  k_obj.o [1]
g_tick_count            0x2000531c     0x4  Data  Gb  k_obj.o [1]
g_tick_head             0x200052a0     0x8  Data  Gb  k_obj.o [1]
g_timer_count           0x200052b8     0x8  Data  Gb  k_obj.o [1]
g_timer_head            0x200052b0     0x8  Data  Gb  k_obj.o [1]
g_timer_msg             0x20004b9c    0xa0  Data  Gb  k_obj.o [1]
g_timer_pool            0x200051a4    0x20  Data  Gb  k_obj.o [1]
g_timer_queue           0x20004fc8    0x48  Data  Gb  k_obj.o [1]
g_timer_task            0x20004db0    0x70  Data  Gb  k_obj.o [1]
g_timer_task_stack      0x20001400   0x4b0  Data  Gb  k_obj.o [1]
g_upgrad_topic          0x20005348     0x4  Data  Lc  ota_transport.o [1]
g_vfs_dev_nodes         0x200040b4   0x258  Data  Lc  vfs_inode.o [1]
g_vfs_init              0x200053a4     0x1  Data  Lc  vfs.o [1]
g_vfs_mutex             0x20005380     0x4  Data  Gb  vfs.o [1]
g_wifi_hal_event        0x08033ab4    0x1c  Data  Lc  netmgr.o [1]
g_wifi_module           0x20000820     0x8  Data  Lc  wifi.o [1]
g_write_func            0x2000534c     0x4  Data  Gb  ota_update_manifest.o [1]
get_block               0x08009f39    0x8a  Code  Lc  k_mm.o [1]
get_bssid               0x0802a0dd    0x14  Code  Lc  netmgr.o [1]
get_context             0x0802a80b    0x22  Code  Lc  yloop.o [1]
get_download_url        0x0802bdf5     0x8  Code  Lc  ota_update_manifest.o [1]
get_fd                  0x0802b1d1    0x10  Code  Lc  vfs.o [1]
get_file                0x0802b1e1    0x2a  Code  Lc  vfs.o [1]
get_input               0x080154a1   0x388  Code  Lc  cli.o [1]
get_ip_stat             0x0802f47b     0x6  Code  Lc  wifi_port.o [1]
get_link_stat           0x0802f481     0x6  Code  Lc  wifi_port.o [1]
get_next_good_spad      0x080232ad    0x70  Code  Gb  vl53l0x_api_calibration.o [1]
get_no_padding          0x08012423    0x10  Code  Lc  cipher.o [6]
get_ref_spad_map        0x08023389    0x16  Code  Gb  vl53l0x_api_calibration.o [1]
get_sequence_step_timeout
                        0x08020a95   0x15a  Code  Gb  vl53l0x_api_core.o [1]
get_wifi_ssid           0x0802a327    0x6c  Code  Lc  netmgr.o [1]
hI2cHandler             0x20004f7c    0x4c  Data  Gb  stm32l475e_iot01.o [1]
hal_flash_erase         0x08025dc7    0x7a  Code  Gb  flash_port.o [1]
hal_flash_get_info      0x08025ca9    0x10  Code  Gb  flash_port.o [1]
hal_flash_read          0x08025d3d    0x8a  Code  Gb  flash_port.o [1]
hal_flash_write         0x08025cb9    0x7a  Code  Gb  flash_port.o [1]
hal_init                0x0802f88d     0x8  Code  Lc  aos.o [1]
hal_ota_get_crc16       0x0802f0a7    0x1c  Code  Lc  ota_port.o [1]
hal_ota_get_default_module
                        0x080100fd     0x6  Code  Gb  ota.o [1]
hal_ota_init            0x08010109    0x14  Code  Gb  ota.o [1]
hal_ota_register_module
                        0x08010103     0x6  Code  Gb  ota.o [1]
hal_ota_save_crc16      0x0802f0c3    0x10  Code  Lc  ota_port.o [1]
hal_ota_set_boot        0x08010153    0x28  Code  Gb  ota.o [1]
hal_ota_switch_to_new_fw
                        0x0802eef5    0x36  Code  Gb  ota_port.o [1]
hal_ota_write           0x08010121    0x32  Code  Gb  ota.o [1]
hal_partitions          0x20004a30    0xc8  Data  Gb  board.o [1]
hal_reboot              0x08008895     0x8  Code  Gb  hw.o [1]
hal_uart_recv           0x08017f97    0xca  Code  Gb  soc_init.o [1]
hal_uart_send           0x08017ecf    0xc8  Code  Gb  soc_init.o [1]
hal_wifi_get_default_module
                        0x0801003d    0x18  Code  Gb  wifi.o [1]
hal_wifi_get_mac_addr   0x08010069    0x2c  Code  Gb  wifi.o [1]
hal_wifi_install_event  0x080100db     0x4  Code  Gb  wifi.o [1]
hal_wifi_register_module
                        0x08010055     0xe  Code  Gb  wifi.o [1]
hal_wifi_set_mac_addr   0x08010095    0x2c  Code  Gb  wifi.o [1]
hal_wifi_start          0x080100c1    0x1a  Code  Gb  wifi.o [1]
hal_wifi_start_debug_mode
                        0x080100df    0x1c  Code  Gb  wifi.o [1]
handle_events           0x08029ec9    0x3e  Code  Lc  local_event.o [1]
handle_input            0x0801514f   0x23a  Code  Lc  cli.o [1]
handle_input::argv      0x20005050    0x40  Data  Lc  cli.o [1]
handle_kv_cmd           0x08025ad1   0x10a  Code  Lc  kvmgr.o [1]
handle_netmgr_cmd       0x0802a60b    0x7a  Code  Lc  netmgr.o [1]
handle_wifi_disconnect  0x0802a433    0x1a  Code  Lc  netmgr.o [1]
has_valid_ap            0x0802a54f    0x16  Code  Lc  netmgr.o [1]
heap2_end {Abs}         0x10007fff          Data  Gb  command line/config [2]
heap2_len {Abs}         0x00008000          Data  Gb  command line/config [2]
heap2_start {Abs}       0x10000000          Data  Gb  command line/config [2]
heap_end {Abs}          0x20017fff          Data  Gb  command line/config [2]
heap_len {Abs}          0x00010c00          Data  Gb  command line/config [2]
heap_start {Abs}        0x20007400          Data  Gb  command line/config [2]
help_cmd                0x08015935    0xa4  Code  Lc  cli.o [1]
hex                     0x08015afd    0x42  Code  Lc  cli.o [1]
hexstr2bin              0x08015b3f    0x38  Code  Lc  cli.o [1]
hrng                    0x2000527c     0xc  Data  Gb  soc_init.o [1]
hrtc                    0x20005180    0x24  Data  Gb  soc_init.o [1]
hspi                    0x20004e20    0x64  Data  Gb  es_wifi_io.o [1]
http_gethost_info       0x0802ce39    0xf2  Code  Gb  ota_download.o [1]
httpclient_base64enc    0x080064f5    0x7e  Code  Lc  utils_httpc.o [1]
httpclient_close        0x08007521    0x16  Code  Gb  utils_httpc.o [1]
httpclient_common       0x08007537   0x128  Code  Gb  utils_httpc.o [1]
httpclient_common::__FUNCTION__
                        0x08034b08    0x14  Data  Lc  utils_httpc.o [1]
httpclient_conn         0x08006573    0x28  Code  Lc  utils_httpc.o [1]
httpclient_conn::__FUNCTION__
                        0x08034f9c    0x10  Data  Lc  utils_httpc.o [1]
httpclient_connect      0x08007385    0x16  Code  Gb  utils_httpc.o [1]
httpclient_get_info     0x0800676f    0x78  Code  Gb  utils_httpc.o [1]
httpclient_parse_host   0x080066f1    0x7e  Code  Lc  utils_httpc.o [1]
httpclient_parse_host::__FUNCTION__
                        0x08034328    0x18  Data  Lc  utils_httpc.o [1]
httpclient_parse_url    0x0800659b   0x156  Code  Lc  utils_httpc.o [1]
httpclient_parse_url::__FUNCTION__
                        0x08034310    0x18  Data  Lc  utils_httpc.o [1]
httpclient_recv         0x08006c0f    0xa6  Code  Lc  utils_httpc.o [1]
httpclient_recv::__FUNCTION__
                        0x08034fbc    0x10  Data  Lc  utils_httpc.o [1]
httpclient_recv_response
                        0x08007429    0xd8  Code  Gb  utils_httpc.o [1]
httpclient_recv_response::__FUNCTION__
                        0x08033ce4    0x1c  Data  Lc  utils_httpc.o [1]
httpclient_response_parse
                        0x08007109   0x270  Code  Lc  utils_httpc.o [1]
httpclient_response_parse::__FUNCTION__
                        0x08033cac    0x1c  Data  Lc  utils_httpc.o [1]
httpclient_retrieve_content
                        0x08006cbd   0x41e  Code  Lc  utils_httpc.o [1]
httpclient_retrieve_content::__FUNCTION__
                        0x08033c58    0x1c  Data  Lc  utils_httpc.o [1]
httpclient_send_auth    0x080067e7    0x8a  Code  Gb  utils_httpc.o [1]
httpclient_send_auth::__FUNCTION__
                        0x08034340    0x18  Data  Lc  utils_httpc.o [1]
httpclient_send_header  0x08006879   0x2fc  Code  Gb  utils_httpc.o [1]
httpclient_send_header::__FUNCTION__
                        0x08034370    0x18  Data  Lc  utils_httpc.o [1]
httpclient_send_request
                        0x0800739b    0x70  Code  Gb  utils_httpc.o [1]
httpclient_send_request::__FUNCTION__
                        0x08034460    0x18  Data  Lc  utils_httpc.o [1]
httpclient_send_userdata
                        0x08006b81    0x8e  Code  Gb  utils_httpc.o [1]
httpclient_send_userdata::__FUNCTION__
                        0x08033c20    0x1c  Data  Lc  utils_httpc.o [1]
hw_start_hal            0x0800889d    0x16  Code  Gb  hw.o [1]
idle_task               0x080311cd    0x34  Code  Gb  k_idle.o [1]
init_device_parmas      0x0802ac1f    0x1a  Code  Lc  ota_service.o [1]
init_mm_region          0x08009a21    0x5c  Code  Lc  k_mm.o [1]
init_parg               0x0802b42d    0x10  Code  Lc  vfs.o [1]
init_sensors            0x08029bad    0x90  Code  Gb  sensors_data.o [1]
init_wifi               0x0802f801    0x8c  Code  Lc  aos.o [1]
inited                  0x200052f0     0x4  Data  Lc  device.o [1]
inode_alloc             0x0802c3a1    0x24  Code  Gb  vfs_inode.o [1]
inode_init              0x0802c389    0x18  Code  Gb  vfs_inode.o [1]
inode_open              0x0802c3c5    0x62  Code  Gb  vfs_inode.o [1]
inode_ptr_get           0x0802c427    0x20  Code  Gb  vfs_inode.o [1]
inode_ref               0x0802c447     0x8  Code  Gb  vfs_inode.o [1]
inode_reserve           0x0802c49b    0x5e  Code  Gb  vfs_inode.o [1]
inode_set_name          0x0802c461    0x3a  Code  Lc  vfs_inode.o [1]
inode_unref             0x0802c44f     0xe  Code  Gb  vfs_inode.o [1]
input_add_event         0x08029f07    0x34  Code  Lc  local_event.o [1]
insert_block            0x08009ec7    0x72  Code  Lc  k_mm.o [1]
iot_sha1_padding        0x08030e00    0x40  Data  Lc  utils_sha1.o [1]
iotx_ca_crt             0x20000838     0x4  Data  Lc  ca.o [1]
iotx_ca_get             0x08007731     0xc  Code  Gb  ca.o [1]
iotx_conn_info          0x20003bd0   0x28c  Data  Lc  device_iar.o [1]
iotx_conn_info_get      0x08006351     0x4  Code  Gb  device_iar.o [1]
iotx_device_info        0x20004af8    0xa4  Data  Lc  device_iar.o [1]
iotx_device_info_get    0x0800634d     0x4  Code  Gb  device_iar.o [1]
iotx_device_info_init   0x08006271    0x58  Code  Gb  device_iar.o [1]
iotx_device_info_init::__FUNCTION__
                        0x08033e18    0x18  Data  Lc  device_iar.o [1]
iotx_device_info_set    0x080062c9    0x84  Code  Gb  device_iar.o [1]
iotx_device_info_set::__FUNCTION__
                        0x08033e30    0x18  Data  Lc  device_iar.o [1]
iotx_devinfo_inited     0x200052f4     0x4  Data  Lc  device_iar.o [1]
iotx_guider_authenticate
                        0x08004aa1   0x39a  Code  Gb  guider.o [1]
iotx_guider_authenticate::__FUNCTION__
                        0x0803376c    0x1c  Data  Lc  guider.o [1]
iotx_mc_attempt_reconnect
                        0x080024ad    0x58  Code  Lc  mqtt_client.o [1]
iotx_mc_attempt_reconnect::__FUNCTION__
                        0x08033a44    0x1c  Data  Lc  mqtt_client.o [1]
iotx_mc_check_handle_is_identical
                        0x080018df    0x56  Code  Lc  mqtt_client.o [1]
iotx_mc_check_rule      0x08000189    0x9e  Code  Lc  mqtt_client.o [1]
iotx_mc_check_rule::__FUNCTION__
                        0x08034824    0x14  Data  Lc  mqtt_client.o [1]
iotx_mc_check_state_normal
                        0x080018c1    0x1e  Code  Lc  mqtt_client.o [1]
iotx_mc_check_topic     0x08000227    0xf6  Code  Lc  mqtt_client.o [1]
iotx_mc_check_topic::__FUNCTION__
                        0x08034838    0x14  Data  Lc  mqtt_client.o [1]
iotx_mc_connect         0x08002381   0x120  Code  Lc  mqtt_client.o [1]
iotx_mc_connect::__FUNCTION__
                        0x08034edc    0x10  Data  Lc  mqtt_client.o [1]
iotx_mc_cycle           0x080016ed   0x1c4  Code  Lc  mqtt_client.o [1]
iotx_mc_cycle::__FUNCTION__
                        0x08034e6c    0x10  Data  Lc  mqtt_client.o [1]
iotx_mc_decode_packet   0x08000d0b    0x7a  Code  Lc  mqtt_client.o [1]
iotx_mc_deliver_message
                        0x08001079    0xfe  Code  Lc  mqtt_client.o [1]
iotx_mc_deliver_message::__FUNCTION__
                        0x080340b8    0x18  Data  Lc  mqtt_client.o [1]
iotx_mc_disconnect      0x080025c1    0x4c  Code  Lc  mqtt_client.o [1]
iotx_mc_disconnect::__FUNCTION__
                        0x08034900    0x14  Data  Lc  mqtt_client.o [1]
iotx_mc_disconnect_callback
                        0x08002619    0x26  Code  Lc  mqtt_client.o [1]
iotx_mc_get_client_state
                        0x08001bd9    0x22  Code  Lc  mqtt_client.o [1]
iotx_mc_get_next_packetid
                        0x08000c69    0x36  Code  Lc  mqtt_client.o [1]
iotx_mc_handle_reconnect
                        0x08002509    0xb2  Code  Lc  mqtt_client.o [1]
iotx_mc_handle_reconnect::__FUNCTION__
                        0x08033a60    0x1c  Data  Lc  mqtt_client.o [1]
iotx_mc_handle_recv_CONNACK
                        0x08001181    0x88  Code  Lc  mqtt_client.o [1]
iotx_mc_handle_recv_CONNACK::__FUNCTION__
                        0x08033964    0x1c  Data  Lc  mqtt_client.o [1]
iotx_mc_handle_recv_PUBACK
                        0x0800120d    0x6a  Code  Lc  mqtt_client.o [1]
iotx_mc_handle_recv_PUBLISH
                        0x08001405   0x182  Code  Lc  mqtt_client.o [1]
iotx_mc_handle_recv_PUBLISH::__func__
                        0x080339b8    0x1c  Data  Lc  mqtt_client.o [1]
iotx_mc_handle_recv_SUBACK
                        0x08001277   0x186  Code  Lc  mqtt_client.o [1]
iotx_mc_handle_recv_SUBACK::__FUNCTION__
                        0x08033980    0x1c  Data  Lc  mqtt_client.o [1]
iotx_mc_handle_recv_UNSUBACK
                        0x080015a9    0xbc  Code  Lc  mqtt_client.o [1]
iotx_mc_init            0x08001d85   0x282  Code  Lc  mqtt_client.o [1]
iotx_mc_init::__func__  0x08034e9c    0x10  Data  Lc  mqtt_client.o [1]
iotx_mc_is_topic_matched
                        0x08000ff5    0x84  Code  Lc  mqtt_client.o [1]
iotx_mc_keepalive       0x08002151    0xbe  Code  Lc  mqtt_client.o [1]
iotx_mc_keepalive::__FUNCTION__
                        0x080348ec    0x14  Data  Lc  mqtt_client.o [1]
iotx_mc_keepalive_sub   0x0800271b    0x9a  Code  Lc  mqtt_client.o [1]
iotx_mc_keepalive_sub::__FUNCTION__
                        0x080341a8    0x18  Data  Lc  mqtt_client.o [1]
iotx_mc_mask_pubInfo_from
                        0x080008d5    0x92  Code  Lc  mqtt_client.o [1]
iotx_mc_mask_pubInfo_from::__FUNCTION__
                        0x08033884    0x1c  Data  Lc  mqtt_client.o [1]
iotx_mc_mask_subInfo_from
                        0x08000ba5    0xa2  Code  Lc  mqtt_client.o [1]
iotx_mc_mask_subInfo_from::__FUNCTION__
                        0x08033910    0x1c  Data  Lc  mqtt_client.o [1]
iotx_mc_publish         0x08001b01    0xce  Code  Lc  mqtt_client.o [1]
iotx_mc_publish::__FUNCTION__
                        0x08034e8c    0x10  Data  Lc  mqtt_client.o [1]
iotx_mc_push_pubInfo_to
                        0x08000967   0x12c  Code  Lc  mqtt_client.o [1]
iotx_mc_push_pubInfo_to::__FUNCTION__
                        0x08034070    0x18  Data  Lc  mqtt_client.o [1]
iotx_mc_push_subInfo_to
                        0x08000a93   0x112  Code  Lc  mqtt_client.o [1]
iotx_mc_push_subInfo_to::__FUNCTION__
                        0x08034088    0x18  Data  Lc  mqtt_client.o [1]
iotx_mc_read_packet     0x08000d85   0x254  Code  Lc  mqtt_client.o [1]
iotx_mc_read_packet::__FUNCTION__
                        0x0803484c    0x14  Data  Lc  mqtt_client.o [1]
iotx_mc_reconnect_callback
                        0x080026f5    0x26  Code  Lc  mqtt_client.o [1]
iotx_mc_release         0x0800263f    0xaa  Code  Lc  mqtt_client.o [1]
iotx_mc_release::__FUNCTION__
                        0x08034efc    0x10  Data  Lc  mqtt_client.o [1]
iotx_mc_send_packet     0x08000c9f    0x6c  Code  Lc  mqtt_client.o [1]
iotx_mc_set_client_state
                        0x08001bfb    0x18  Code  Lc  mqtt_client.o [1]
iotx_mc_set_connect_params
                        0x08001c13   0x154  Code  Lc  mqtt_client.o [1]
iotx_mc_set_connect_params::__FUNCTION__
                        0x08033a0c    0x1c  Data  Lc  mqtt_client.o [1]
iotx_mc_subscribe       0x08001935    0xec  Code  Lc  mqtt_client.o [1]
iotx_mc_subscribe::__FUNCTION__
                        0x0803489c    0x14  Data  Lc  mqtt_client.o [1]
iotx_mc_unsubscribe     0x08001a2d    0xc6  Code  Lc  mqtt_client.o [1]
iotx_mc_unsubscribe::__FUNCTION__
                        0x080348b0    0x14  Data  Lc  mqtt_client.o [1]
iotx_mc_wait_CONNACK    0x08001665    0x80  Code  Lc  mqtt_client.o [1]
iotx_mc_wait_CONNACK::__FUNCTION__
                        0x08034100    0x18  Data  Lc  mqtt_client.o [1]
iotx_net_connect        0x08004223    0x1a  Code  Gb  utils_net.o [1]
iotx_net_disconnect     0x08004209    0x1a  Code  Gb  utils_net.o [1]
iotx_net_init           0x0800423d    0x58  Code  Gb  utils_net.o [1]
iotx_net_init::__FUNCTION__
                        0x0803503c    0x10  Data  Lc  utils_net.o [1]
iotx_time_init          0x080031b5     0xa  Code  Gb  utils_timer.o [1]
iotx_time_left          0x08003169    0x26  Code  Gb  utils_timer.o [1]
iotx_time_start         0x08003141    0x10  Code  Gb  utils_timer.o [1]
is_aperture             0x0802331d    0x1a  Code  Gb  vl53l0x_api_calibration.o [1]
is_demo_started         0x20005324     0x4  Data  Lc  mqtt-example-b_l475e.o [1]
is_klist_empty          0x08010f79    0x10  Code  Lc  k_dyn_mem_proc.o [1]
is_klist_empty          0x080091bb    0x10  Code  Lc  k_mutex.o [1]
is_klist_empty          0x0800968f    0x10  Code  Lc  k_sem.o [1]
is_klist_empty          0x080088c1    0x10  Code  Lc  k_task.o [1]
is_klist_empty          0x0801104f    0x10  Code  Lc  k_timer.o [1]
is_ready_list_empty     0x08010537    0x16  Code  Lc  k_sched.o [1]
isspace                 0x0800f3f1    0x14  Code  Gb  isspace.o [3]
json_get_next_object    0x0800f065   0x200  Code  Gb  json_parser.o [1]
json_get_object         0x0800f02d    0x38  Code  Gb  json_parser.o [1]
json_get_value_by_name  0x0800f385    0x4c  Code  Gb  json_parser.o [1]
json_get_value_by_name_cb
                        0x0800f347    0x3e  Code  Gb  json_parser.o [1]
json_parse_name_value   0x0800f265    0xe2  Code  Gb  json_parser.o [1]
json_parse_name_value::__FUNCTION__
                        0x08033f80    0x18  Data  Lc  json_parser.o [1]
k_err_proc              0x08010afd    0x1c  Code  Gb  k_err.o [1]
k_mm_alloc              0x0800a04b   0x1ac  Code  Gb  k_mm.o [1]
k_mm_free               0x0800a1f7   0x1ba  Code  Gb  k_mm.o [1]
k_mm_init               0x080099db    0x46  Code  Gb  k_mm.o [1]
k_mm_smallblk_alloc     0x08009db3    0x32  Code  Lc  k_mm.o [1]
k_mm_smallblk_free      0x08009de5    0x32  Code  Lc  k_mm.o [1]
kinit                   0x2000524c     0xc  Data  Lc  aos.o [1]
klist_init              0x080091b5     0x6  Code  Lc  k_mutex.o [1]
klist_init              0x08015f5d     0x6  Code  Lc  k_queue.o [1]
klist_init              0x0801038f     0x6  Code  Lc  k_sched.o [1]
klist_init              0x08009689     0x6  Code  Lc  k_sem.o [1]
klist_init              0x08010f29     0x6  Code  Lc  k_stats.o [1]
klist_init              0x0800a445     0x6  Code  Lc  k_sys.o [1]
klist_init              0x0801073d     0x6  Code  Lc  k_tick.o [1]
klist_init              0x08011049     0x6  Code  Lc  k_timer.o [1]
klist_insert            0x08010b19     0xe  Code  Lc  k_mm_blk.o [1]
klist_insert            0x080091cb     0xe  Code  Lc  k_mutex.o [1]
klist_insert            0x080108e9     0xe  Code  Lc  k_pend.o [1]
klist_insert            0x08015f63     0xe  Code  Lc  k_queue.o [1]
klist_insert            0x08010395     0xe  Code  Lc  k_sched.o [1]
klist_insert            0x0800969f     0xe  Code  Lc  k_sem.o [1]
klist_insert            0x080088d1     0xe  Code  Lc  k_task.o [1]
klist_insert            0x08010743     0xe  Code  Lc  k_tick.o [1]
klist_insert            0x0801105f     0xe  Code  Lc  k_timer.o [1]
klist_rm                0x08010f89     0xe  Code  Lc  k_dyn_mem_proc.o [1]
klist_rm                0x080091d9     0xe  Code  Lc  k_mutex.o [1]
klist_rm                0x080108f7     0xe  Code  Lc  k_pend.o [1]
klist_rm                0x080103a3     0xe  Code  Lc  k_sched.o [1]
klist_rm                0x080096ad     0xe  Code  Lc  k_sem.o [1]
klist_rm                0x080088df     0xe  Code  Lc  k_task.o [1]
klist_rm                0x08010751     0xe  Code  Lc  k_tick.o [1]
klist_rm                0x0801106d     0xe  Code  Lc  k_timer.o [1]
kobj_list_init          0x08010f2f    0x2e  Code  Gb  k_stats.o [1]
krhino_add_mm_region    0x08009c35   0x17e  Code  Gb  k_mm.o [1]
krhino_bitmap_clear     0x0800996d    0x24  Code  Lc  k_mm.o [1]
krhino_bitmap_clear     0x08010321    0x24  Code  Lc  k_sched.o [1]
krhino_bitmap_set       0x08009949    0x24  Code  Lc  k_mm.o [1]
krhino_bitmap_set       0x080102fd    0x24  Code  Lc  k_sched.o [1]
krhino_cur_task_get     0x08008c73    0x1e  Code  Gb  k_task.o [1]
krhino_find_first_bit   0x08009991    0x4a  Code  Lc  k_mm.o [1]
krhino_find_first_bit   0x08010345    0x4a  Code  Lc  k_sched.o [1]
krhino_init             0x0800a451    0x5e  Code  Gb  k_sys.o [1]
krhino_init_mm_head     0x08009afb   0x13a  Code  Gb  k_mm.o [1]
krhino_intrpt_enter     0x0800a4dd    0x44  Code  Gb  k_sys.o [1]
krhino_intrpt_exit      0x0800a521    0x8a  Code  Gb  k_sys.o [1]
krhino_mblk_alloc       0x08010bf5    0x5a  Code  Gb  k_mm_blk.o [1]
krhino_mblk_free        0x08010c4f    0x3c  Code  Gb  k_mm_blk.o [1]
krhino_mblk_pool_init   0x08010b27    0xca  Code  Gb  k_mm_blk.o [1]
krhino_mm_alloc         0x0800a3bd    0x54  Code  Gb  k_mm.o [1]
krhino_mm_alloc{2}{3}::dumped
                        0x20005310     0x4  Data  Lc  k_mm.o [1]
krhino_mm_free          0x0800a411    0x10  Code  Gb  k_mm.o [1]
krhino_ms_to_ticks      0x0800963b    0x4c  Code  Gb  k_time.o [1]
krhino_mutex_create     0x0800923f    0x12  Code  Gb  k_mutex.o [1]
krhino_mutex_del        0x08009279    0x94  Code  Gb  k_mutex.o [1]
krhino_mutex_lock       0x08009397   0x15e  Code  Gb  k_mutex.o [1]
krhino_mutex_unlock     0x080094f5    0xd8  Code  Gb  k_mutex.o [1]
krhino_queue_create     0x08015ff9    0x1c  Code  Gb  k_queue.o [1]
krhino_queue_recv       0x08016015   0x106  Code  Gb  k_queue.o [1]
krhino_sched_disable    0x080103b5    0x56  Code  Gb  k_sched.o [1]
krhino_sched_enable     0x0801040b    0x6c  Code  Gb  k_sched.o [1]
krhino_sem_create       0x08009715    0x16  Code  Gb  k_sem.o [1]
krhino_sem_del          0x0800972b    0x7e  Code  Gb  k_sem.o [1]
krhino_sem_give         0x0800984f    0x16  Code  Gb  k_sem.o [1]
krhino_sem_give_all     0x08009865    0x16  Code  Gb  k_sem.o [1]
krhino_sem_take         0x0800987b    0xbe  Code  Gb  k_sem.o [1]
krhino_start            0x0800a4af    0x2e  Code  Gb  k_sys.o [1]
krhino_sys_tick_get     0x08009605     0x8  Code  Gb  k_time.o [1]
krhino_sys_time_get     0x08009615    0x26  Code  Gb  k_time.o [1]
krhino_task_create      0x08008a73    0x54  Code  Gb  k_task.o [1]
krhino_task_deathbed    0x08009195    0x20  Code  Gb  k_task.o [1]
krhino_task_del         0x08008e91   0x106  Code  Gb  k_task.o [1]
krhino_task_dyn_create  0x08008b7b    0x4a  Code  Gb  k_task.o [1]
krhino_task_dyn_del     0x08008f97   0x180  Code  Gb  k_task.o [1]
krhino_task_info_get    0x0800916f    0x26  Code  Gb  k_task.o [1]
krhino_task_info_set    0x08009141    0x2e  Code  Gb  k_task.o [1]
krhino_task_sleep       0x08008bc5    0xae  Code  Gb  k_task.o [1]
krhino_task_stack_cur_free
                        0x08008ccf    0x8a  Code  Gb  k_task.o [1]
krhino_task_stack_min_free
                        0x08008c91    0x3e  Code  Gb  k_task.o [1]
krhino_tick_proc        0x080095e9    0x1c  Code  Gb  k_time.o [1]
krhino_version_get      0x0800a5e1     0x6  Code  Gb  k_sys.o [1]
ktimer_init             0x080113d1    0x4e  Code  Gb  k_timer.o [1]
kv_block_format         0x08024e99    0x8a  Code  Lc  kvmgr.o [1]
kv_init                 0x08025599   0x1e4  Code  Lc  kvmgr.o [1]
kv_item_calc_pos        0x08024f23    0x50  Code  Lc  kvmgr.o [1]
kv_item_del             0x08024f73   0x150  Code  Lc  kvmgr.o [1]
kv_item_free            0x08024e6b    0x1c  Code  Lc  kvmgr.o [1]
kv_item_get             0x080253bd    0x3c  Code  Lc  kvmgr.o [1]
kv_item_store           0x080253f9   0x156  Code  Lc  kvmgr.o [1]
kv_item_traverse        0x08025241   0x17c  Code  Lc  kvmgr.o [1]
kv_item_update          0x0802554f    0x4a  Code  Lc  kvmgr.o [1]
kv_state_set            0x08024e87    0x12  Code  Lc  kvmgr.o [1]
ldexp                   0x0800f959          Code  Gb  ldexp.o [7]
ldexpl                  0x0800f959          Code  Gb  ldexp.o [7]
list_destroy            0x08003731    0x6e  Code  Gb  utils_list.o [1]
list_destroy::__FUNCTION__
                        0x08034ffc    0x10  Data  Lc  utils_list.o [1]
list_iterator_destroy   0x0800389d    0x2e  Code  Gb  utils_list.o [1]
list_iterator_destroy::__FUNCTION__
                        0x08034490    0x18  Data  Lc  utils_list.o [1]
list_iterator_new       0x08003845    0x1e  Code  Gb  utils_list.o [1]
list_iterator_new_from_node
                        0x08003863    0x22  Code  Gb  utils_list.o [1]
list_iterator_new_from_node::__func__
                        0x08033d00    0x1c  Data  Lc  utils_list.o [1]
list_iterator_next      0x08003885    0x18  Code  Gb  utils_list.o [1]
list_new                0x08003701    0x30  Code  Gb  utils_list.o [1]
list_new::__func__      0x08035418     0xc  Data  Lc  utils_list.o [1]
list_node_new           0x080038cb    0x28  Code  Gb  utils_list.o [1]
list_node_new::__func__
                        0x0803500c    0x10  Data  Lc  utils_list.o [1]
list_remove             0x080037d7    0x6e  Code  Gb  utils_list.o [1]
list_remove::__FUNCTION__
                        0x08035424     0xc  Data  Lc  utils_list.o [1]
list_rpush              0x0800379f    0x38  Code  Gb  utils_list.o [1]
lnbias                  0x080289f8   0x420  Data  Lc  pow64.o [7]
local_event             0x200007f0     0x8  Data  Lc  local_event.o [1]
localeconv              0x0800fe95     0x4  Code  Gb  xlocale_c.o [3]
log_cmd                 0x08015a79    0x7c  Code  Lc  cli.o [1]
log_multi_line_internal
                        0x08002ee1    0xb0  Code  Gb  lite-log.o [1]
logcb                   0x20004420   0x10c  Data  Lc  lite-log.o [1]
lookup_command          0x080150c1    0x8e  Code  Lc  cli.o [1]
lvl_names               0x2000073c    0x18  Data  Lc  lite-log.o [1]
mac_cmd                 0x08015b77    0x8a  Code  Lc  cli.o [1]
main                    0x0802f921     0xa  Code  Gb  aos.o [1]
malloc                  0x0800597d     0xc  Code  Gb  iar_libc.o [1]
mbedtls_aes_crypt_cbc   0x0801cbc3    0xfe  Code  Gb  aes.o [5]
mbedtls_aes_crypt_cbc_alt
                        0x08016c19    0xf0  Code  Gb  mbedtls_alt.o [6]
mbedtls_aes_crypt_cbc_alt::__FUNCTION__
                        0x08017058    0x1c  Data  Lc  mbedtls_alt.o [6]
mbedtls_aes_crypt_ctr   0x0801ccc1    0x7e  Code  Gb  aes.o [5]
mbedtls_aes_crypt_ecb   0x0801cba9    0x1a  Code  Gb  aes.o [5]
mbedtls_aes_crypt_ecb_alt
                        0x08016c0f     0xa  Code  Gb  mbedtls_alt.o [6]
mbedtls_aes_crypt_ecb_alt::__FUNCTION__
                        0x08017024    0x1c  Data  Lc  mbedtls_alt.o [6]
mbedtls_aes_decrypt     0x0801c7a5   0x386  Code  Gb  aes.o [5]
mbedtls_aes_encrypt     0x0801c421   0x384  Code  Gb  aes.o [5]
mbedtls_aes_free        0x0801c185    0x16  Code  Gb  aes.o [5]
mbedtls_aes_free_alt    0x08016b73    0x22  Code  Gb  mbedtls_alt.o [6]
mbedtls_aes_init        0x0801c17d     0x8  Code  Gb  aes.o [5]
mbedtls_aes_init_alt    0x08016b6d     0x6  Code  Gb  mbedtls_alt.o [6]
mbedtls_aes_setkey_dec  0x0801c347    0xda  Code  Gb  aes.o [5]
mbedtls_aes_setkey_dec_alt
                        0x08016bbf    0x2a  Code  Gb  mbedtls_alt.o [6]
mbedtls_aes_setkey_dec_alt::__FUNCTION__
                        0x08017008    0x1c  Data  Lc  mbedtls_alt.o [6]
mbedtls_aes_setkey_enc  0x0801c19b   0x1ac  Code  Gb  aes.o [5]
mbedtls_aes_setkey_enc_alt
                        0x08016b95    0x2a  Code  Gb  mbedtls_alt.o [6]
mbedtls_aes_setkey_enc_alt::__FUNCTION__
                        0x08016fb0    0x1c  Data  Lc  mbedtls_alt.o [6]
mbedtls_asn1_get_alg    0x08014009    0x7c  Code  Gb  asn1parse.o [6]
mbedtls_asn1_get_bitstring_null
                        0x08013fdb    0x28  Code  Gb  asn1parse.o [6]
mbedtls_asn1_get_int    0x08013f93    0x42  Code  Gb  asn1parse.o [6]
mbedtls_asn1_get_len    0x08013ed1    0x9c  Code  Gb  asn1parse.o [6]
mbedtls_asn1_get_tag    0x08013f6d    0x26  Code  Gb  asn1parse.o [6]
mbedtls_base64_decode   0x08017285   0x100  Code  Gb  base64.o [6]
mbedtls_cipher_crypt    0x0801253d    0x42  Code  Gb  cipher.o [6]
mbedtls_cipher_definitions
                        0x0802f7c8    0x38  Data  Gb  cipher_wrap.o [6]
mbedtls_cipher_finish   0x08012437    0xca  Code  Gb  cipher.o [6]
mbedtls_cipher_free     0x080121e3    0x26  Code  Gb  cipher.o [6]
mbedtls_cipher_get_block_size
                        0x080121b1    0x12  Code  Lc  cipher.o [6]
mbedtls_cipher_get_cipher_mode
                        0x0800abe9    0x12  Code  Lc  ssl_tls.o [6]
mbedtls_cipher_info_from_type
                        0x080121c3    0x1a  Code  Gb  cipher.o [6]
mbedtls_cipher_init     0x080121dd     0x6  Code  Gb  cipher.o [6]
mbedtls_cipher_reset    0x080122b7    0x1a  Code  Gb  cipher.o [6]
mbedtls_cipher_set_iv   0x0801227f    0x34  Code  Gb  cipher.o [6]
mbedtls_cipher_set_padding_mode
                        0x08012501    0x20  Code  Gb  cipher.o [6]
mbedtls_cipher_setkey   0x0801223b    0x44  Code  Gb  cipher.o [6]
mbedtls_cipher_setup    0x08012209    0x32  Code  Gb  cipher.o [6]
mbedtls_cipher_update   0x080122d1   0x152  Code  Gb  cipher.o [6]
mbedtls_md              0x08012021    0x16  Code  Gb  md.o [6]
mbedtls_md5             0x08016af9    0x34  Code  Gb  md5.o [6]
mbedtls_md5_clone       0x0801618d     0x6  Code  Gb  md5.o [6]
mbedtls_md5_finish      0x08016a3b    0xbe  Code  Gb  md5.o [6]
mbedtls_md5_free        0x08016177    0x16  Code  Gb  md5.o [6]
mbedtls_md5_info        0x0802fd0c    0x30  Data  Gb  md_wrap.o [6]
mbedtls_md5_init        0x08016171     0x6  Code  Gb  md5.o [6]
mbedtls_md5_process     0x080161b3   0x706  Code  Gb  md5.o [6]
mbedtls_md5_starts      0x08016193    0x20  Code  Gb  md5.o [6]
mbedtls_md5_update      0x080169c9    0x72  Code  Gb  md5.o [6]
mbedtls_md_finish       0x08012009    0x18  Code  Gb  md.o [6]
mbedtls_md_free         0x08011f67    0x34  Code  Gb  md.o [6]
mbedtls_md_get_size     0x080121a9     0x8  Code  Gb  md.o [6]
mbedtls_md_hmac_finish  0x080120f7    0x54  Code  Gb  md.o [6]
mbedtls_md_hmac_reset   0x0801214b    0x2a  Code  Gb  md.o [6]
mbedtls_md_hmac_starts  0x08012037    0xa0  Code  Gb  md.o [6]
mbedtls_md_hmac_update  0x080120d7    0x1c  Code  Gb  md.o [6]
mbedtls_md_info_from_type
                        0x08011f39    0x22  Code  Gb  md.o [6]
mbedtls_md_init         0x08011f5b     0xc  Code  Gb  md.o [6]
mbedtls_md_process      0x08012191    0x18  Code  Gb  md.o [6]
mbedtls_md_setup        0x08011f9b    0x3a  Code  Gb  md.o [6]
mbedtls_md_starts       0x08011fd5    0x18  Code  Gb  md.o [6]
mbedtls_md_update       0x08011ff1    0x18  Code  Gb  md.o [6]
mbedtls_mpi_add_abs     0x0801d2f1    0xa6  Code  Gb  bignum.o [5]
mbedtls_mpi_add_mpi     0x0801d453    0x44  Code  Gb  bignum.o [5]
mbedtls_mpi_bitlen      0x0801cf6f    0x3a  Code  Gb  bignum.o [5]
mbedtls_mpi_cmp_abs     0x0801d1af    0x74  Code  Gb  bignum.o [5]
mbedtls_mpi_cmp_int     0x0801d2c7    0x2a  Code  Gb  bignum.o [5]
mbedtls_mpi_cmp_mpi     0x0801d223    0x9e  Code  Gb  bignum.o [5]
mbedtls_mpi_copy        0x0801cead    0x58  Code  Gb  bignum.o [5]
mbedtls_mpi_div_mpi     0x0801d8c9   0x3ce  Code  Gb  bignum.o [5]
mbedtls_mpi_exp_mod     0x0801de17   0x412  Code  Gb  bignum.o [5]
mbedtls_mpi_fill_random
                        0x0801e33f    0x34  Code  Gb  bignum.o [5]
mbedtls_mpi_free        0x0801ce41    0x22  Code  Gb  bignum.o [5]
mbedtls_mpi_gcd         0x0801e22f   0x110  Code  Gb  bignum.o [5]
mbedtls_mpi_grow        0x0801ce63    0x44  Code  Gb  bignum.o [5]
mbedtls_mpi_init        0x0801ce33     0xe  Code  Gb  bignum.o [5]
mbedtls_mpi_inv_mod     0x0801e373   0x382  Code  Gb  bignum.o [5]
mbedtls_mpi_lsb         0x0801cf3b    0x34  Code  Gb  bignum.o [5]
mbedtls_mpi_lset        0x0801cf05    0x36  Code  Gb  bignum.o [5]
mbedtls_mpi_mod_mpi     0x0801dc9d    0x84  Code  Gb  bignum.o [5]
mbedtls_mpi_mul_int     0x0801d8af    0x1a  Code  Gb  bignum.o [5]
mbedtls_mpi_mul_mpi     0x0801d7bf    0xf0  Code  Gb  bignum.o [5]
mbedtls_mpi_read_binary
                        0x0801cfb5    0x76  Code  Gb  bignum.o [5]
mbedtls_mpi_shift_l     0x0801d073    0xa0  Code  Gb  bignum.o [5]
mbedtls_mpi_shift_r     0x0801d113    0x9c  Code  Gb  bignum.o [5]
mbedtls_mpi_size        0x0801cfa9     0xc  Code  Gb  bignum.o [5]
mbedtls_mpi_sub_abs     0x0801d3dd    0x76  Code  Gb  bignum.o [5]
mbedtls_mpi_sub_mpi     0x0801d497    0x46  Code  Gb  bignum.o [5]
mbedtls_mpi_write_binary
                        0x0801d02b    0x48  Code  Gb  bignum.o [5]
mbedtls_mpi_zeroize     0x0801ce25     0xe  Code  Lc  bignum.o [5]
mbedtls_mutex_free      0x200006e4     0x4  Data  Gb  threading.o [6]
mbedtls_mutex_init      0x200006e0     0x4  Data  Gb  threading.o [6]
mbedtls_mutex_lock      0x200006e8     0x4  Data  Gb  threading.o [6]
mbedtls_mutex_unlock    0x200006ec     0x4  Data  Gb  threading.o [6]
mbedtls_net_connect     0x0800a97d    0x86  Code  Gb  mbedtls_net.o [1]
mbedtls_net_connect::__FUNCTION__
                        0x08034770    0x14  Data  Lc  mbedtls_net.o [1]
mbedtls_net_free        0x0800ab77    0x32  Code  Gb  mbedtls_net.o [1]
mbedtls_net_free::__FUNCTION__
                        0x080347ac    0x14  Data  Lc  mbedtls_net.o [1]
mbedtls_net_init        0x0800a975     0x8  Code  Gb  mbedtls_net.o [1]
mbedtls_net_recv        0x0800aaa1    0x6a  Code  Gb  mbedtls_net.o [1]
mbedtls_net_recv::__FUNCTION__
                        0x08034798    0x14  Data  Lc  mbedtls_net.o [1]
mbedtls_net_recv_timeout
                        0x0800ab0b    0x6c  Code  Gb  mbedtls_net.o [1]
mbedtls_net_recv_timeout::__FUNCTION__
                        0x080337c0    0x1c  Data  Lc  mbedtls_net.o [1]
mbedtls_net_send        0x0800aa03    0x9e  Code  Gb  mbedtls_net.o [1]
mbedtls_net_send::__FUNCTION__
                        0x08034784    0x14  Data  Lc  mbedtls_net.o [1]
mbedtls_oid_get_md_alg  0x080200e7    0x30  Code  Gb  oid.o [5]
mbedtls_pem_free        0x080147d5    0x1a  Code  Gb  pem.o [6]
mbedtls_pem_init        0x0801446b     0xc  Code  Gb  pem.o [6]
mbedtls_pem_read_buffer
                        0x080145bf   0x1e0  Code  Gb  pem.o [6]
mbedtls_pk_can_do       0x08013d3f    0x14  Code  Gb  pk.o [6]
mbedtls_pk_encrypt      0x08013e41    0x22  Code  Gb  pk.o [6]
mbedtls_pk_free         0x08013ce9    0x26  Code  Gb  pk.o [6]
mbedtls_pk_get_bitlen   0x08013e7f    0x14  Code  Gb  pk.o [6]
mbedtls_pk_get_type     0x08013ea9    0x12  Code  Gb  pk.o [6]
mbedtls_pk_info_from_type
                        0x08013d0f     0xc  Code  Gb  pk.o [6]
mbedtls_pk_parse_subpubkey
                        0x0801433f    0xf8  Code  Gb  pkparse.o [6]
mbedtls_pk_setup        0x08013d1b    0x24  Code  Gb  pk.o [6]
mbedtls_pk_sign         0x08013df9    0x48  Code  Gb  pk.o [6]
mbedtls_pk_verify       0x08013d71    0x3c  Code  Gb  pk.o [6]
mbedtls_pk_verify_ext   0x08013dad    0x4c  Code  Gb  pk.o [6]
mbedtls_rsa_check_pubkey
                        0x0801e72f    0x5e  Code  Gb  rsa.o [5]
mbedtls_rsa_free        0x0801f04b    0x7e  Code  Gb  rsa.o [5]
mbedtls_rsa_free_alt    0x08016fa9     0x6  Code  Gb  mbedtls_alt.o [6]
mbedtls_rsa_info        0x08031944    0x30  Data  Gb  pk_wrap.o [6]
mbedtls_rsa_init        0x0801e6f5    0x3a  Code  Gb  rsa.o [5]
mbedtls_rsa_init_alt    0x08016f95    0x14  Code  Gb  mbedtls_alt.o [6]
mbedtls_rsa_pkcs1_encrypt
                        0x0801ec4d    0x3a  Code  Gb  rsa.o [5]
mbedtls_rsa_pkcs1_verify
                        0x0801f00b    0x40  Code  Gb  rsa.o [5]
mbedtls_rsa_private     0x0801e8e3   0x10c  Code  Gb  rsa.o [5]
mbedtls_rsa_public      0x0801e78d    0x8e  Code  Gb  rsa.o [5]
mbedtls_rsa_rsaes_oaep_encrypt
                        0x0801ea71   0x10a  Code  Gb  rsa.o [5]
mbedtls_rsa_rsaes_pkcs1_v15_encrypt
                        0x0801eb81    0xcc  Code  Gb  rsa.o [5]
mbedtls_rsa_rsassa_pkcs1_v15_verify
                        0x0801ee9d   0x166  Code  Gb  rsa.o [5]
mbedtls_rsa_rsassa_pss_verify
                        0x0801ee69    0x34  Code  Gb  rsa.o [5]
mbedtls_rsa_rsassa_pss_verify_ext
                        0x0801ecb9   0x1a2  Code  Gb  rsa.o [5]
mbedtls_sha1            0x08024d53    0x34  Code  Gb  sha1.o [6]
mbedtls_sha1_clone      0x08023d75     0x6  Code  Gb  sha1.o [6]
mbedtls_sha1_finish     0x08024c7f    0xd4  Code  Gb  sha1.o [6]
mbedtls_sha1_free       0x08023d5f    0x16  Code  Gb  sha1.o [6]
mbedtls_sha1_info       0x0802fd3c    0x30  Data  Gb  md_wrap.o [6]
mbedtls_sha1_init       0x08023d59     0x6  Code  Gb  sha1.o [6]
mbedtls_sha1_process    0x08023da1   0xe40  Code  Gb  sha1.o [6]
mbedtls_sha1_starts     0x08023d7b    0x26  Code  Gb  sha1.o [6]
mbedtls_sha1_update     0x08024c0d    0x72  Code  Gb  sha1.o [6]
mbedtls_sha224_info     0x0802fd6c    0x30  Data  Gb  md_wrap.o [6]
mbedtls_sha256          0x08012fff    0x38  Code  Gb  sha256.o [6]
mbedtls_sha256_clone    0x0801259d     0x6  Code  Gb  sha256.o [6]
mbedtls_sha256_finish   0x08012ee5   0x11a  Code  Gb  sha256.o [6]
mbedtls_sha256_free     0x08012587    0x16  Code  Gb  sha256.o [6]
mbedtls_sha256_info     0x0802fd9c    0x30  Data  Gb  md_wrap.o [6]
mbedtls_sha256_init     0x08012581     0x6  Code  Gb  sha256.o [6]
mbedtls_sha256_process  0x08012631   0x842  Code  Gb  sha256.o [6]
mbedtls_sha256_starts   0x080125a3    0x4c  Code  Gb  sha256.o [6]
mbedtls_sha256_update   0x08012e73    0x72  Code  Gb  sha256.o [6]
mbedtls_ssl_ciphersuite_from_id
                        0x08013c1d    0x18  Code  Gb  ssl_ciphersuites.o [6]
mbedtls_ssl_close_notify
                        0x0800c7eb    0x30  Code  Gb  ssl_tls.o [6]
mbedtls_ssl_conf_authmode
                        0x0800c591     0xa  Code  Gb  ssl_tls.o [6]
mbedtls_ssl_conf_ca_chain
                        0x0800c5cd     0x6  Code  Gb  ssl_tls.o [6]
mbedtls_ssl_conf_dbg    0x0800c5a1     0x6  Code  Gb  ssl_tls.o [6]
mbedtls_ssl_conf_endpoint
                        0x0800c57d     0xa  Code  Gb  ssl_tls.o [6]
mbedtls_ssl_conf_max_version
                        0x0800c613     0x8  Code  Gb  ssl_tls.o [6]
mbedtls_ssl_conf_min_version
                        0x0800c61b     0x8  Code  Gb  ssl_tls.o [6]
mbedtls_ssl_conf_read_timeout
                        0x0800c5b5     0x4  Code  Gb  ssl_tls.o [6]
mbedtls_ssl_conf_rng    0x0800c59b     0x6  Code  Gb  ssl_tls.o [6]
mbedtls_ssl_conf_transport
                        0x0800c587     0xa  Code  Gb  ssl_tls.o [6]
mbedtls_ssl_config_defaults
                        0x0800c94d    0x62  Code  Gb  ssl_tls.o [6]
mbedtls_ssl_config_free
                        0x0800c9bd    0x20  Code  Gb  ssl_tls.o [6]
mbedtls_ssl_config_init
                        0x0800c947     0x6  Code  Gb  ssl_tls.o [6]
mbedtls_ssl_derive_keys
                        0x0800adb7   0x22a  Code  Gb  ssl_tls.o [6]
mbedtls_ssl_dtls_replay_check
                        0x0800bb07    0x48  Code  Gb  ssl_tls.o [6]
mbedtls_ssl_dtls_replay_update
                        0x0800bb4f    0x70  Code  Gb  ssl_tls.o [6]
mbedtls_ssl_fetch_input
                        0x0800b3a5   0x134  Code  Gb  ssl_tls.o [6]
mbedtls_ssl_flush_output
                        0x0800b4d9    0x74  Code  Gb  ssl_tls.o [6]
mbedtls_ssl_free        0x0800c8af    0x92  Code  Gb  ssl_tls.o [6]
mbedtls_ssl_get_verify_result
                        0x0800c623    0x1a  Code  Gb  ssl_tls.o [6]
mbedtls_ssl_handle_message_type
                        0x0800be03    0x4a  Code  Gb  ssl_tls.o [6]
mbedtls_ssl_handshake   0x0800c671    0x24  Code  Gb  ssl_tls.o [6]
mbedtls_ssl_handshake_client_step
                        0x08013a11   0x192  Code  Gb  ssl_cli.o [6]
mbedtls_ssl_handshake_free
                        0x0800c85d    0x30  Code  Gb  ssl_tls.o [6]
mbedtls_ssl_handshake_step
                        0x0800c63d    0x24  Code  Gb  ssl_tls.o [6]
mbedtls_ssl_handshake_wrapup
                        0x0800c1f7    0x56  Code  Gb  ssl_tls.o [6]
mbedtls_ssl_hash_from_md_alg
                        0x0800c9ed    0x22  Code  Gb  ssl_tls.o [6]
mbedtls_ssl_hdr_len     0x0800abfb    0x12  Code  Lc  ssl_tls.o [6]
mbedtls_ssl_hs_hdr_len  0x0800ac0d    0x12  Code  Lc  ssl_tls.o [6]
mbedtls_ssl_hs_hdr_len  0x08013249    0x12  Code  Lc  ssl_cli.o [6]
mbedtls_ssl_init        0x0800c4dd     0x6  Code  Gb  ssl_tls.o [6]
mbedtls_ssl_list_ciphersuites
                        0x08013be1    0x36  Code  Gb  ssl_ciphersuites.o [6]
mbedtls_ssl_optimize_checksum
                        0x0800c13d    0x12  Code  Gb  ssl_tls.o [6]
mbedtls_ssl_own_key     0x0801322d    0x1c  Code  Lc  ssl_cli.o [6]
mbedtls_ssl_parse_certificate
                        0x0800bf55   0x136  Code  Gb  ssl_tls.o [6]
mbedtls_ssl_parse_change_cipher_spec
                        0x0800c0bb    0x78  Code  Gb  ssl_tls.o [6]
mbedtls_ssl_parse_finished
                        0x0800c337    0x92  Code  Gb  ssl_tls.o [6]
mbedtls_ssl_prepare_handshake_record
                        0x0800ba03    0xae  Code  Gb  ssl_tls.o [6]
mbedtls_ssl_read        0x0800c695    0xec  Code  Gb  ssl_tls.o [6]
mbedtls_ssl_read_record
                        0x0800bca1    0x2c  Code  Gb  ssl_tls.o [6]
mbedtls_ssl_read_record_layer
                        0x0800bcd1   0x120  Code  Gb  ssl_tls.o [6]
mbedtls_ssl_read_version
                        0x0800ca29    0x26  Code  Gb  ssl_tls.o [6]
mbedtls_ssl_recv_flight_completed
                        0x0800b647    0x36  Code  Gb  ssl_tls.o [6]
mbedtls_ssl_resend      0x0800b5c7    0x80  Code  Gb  ssl_tls.o [6]
mbedtls_ssl_reset_checksum
                        0x0800c14f     0xa  Code  Gb  ssl_tls.o [6]
mbedtls_ssl_safer_memcmp
                        0x0800ac1f    0x1c  Code  Lc  ssl_tls.o [6]
mbedtls_ssl_send_alert_message
                        0x0800be55    0x2a  Code  Gb  ssl_tls.o [6]
mbedtls_ssl_send_fatal_handshake_failure
                        0x0800be51     0x4  Code  Gb  ssl_tls.o [6]
mbedtls_ssl_send_flight_completed
                        0x0800b67d    0x2a  Code  Gb  ssl_tls.o [6]
mbedtls_ssl_session_free
                        0x0800c88d    0x22  Code  Gb  ssl_tls.o [6]
mbedtls_ssl_set_bio     0x0800c5a7     0xe  Code  Gb  ssl_tls.o [6]
mbedtls_ssl_set_hostname
                        0x0800c5d3    0x3a  Code  Gb  ssl_tls.o [6]
mbedtls_ssl_setup       0x0800c4e3    0x88  Code  Gb  ssl_tls.o [6]
mbedtls_ssl_sig_from_pk
                        0x0800c9dd    0x10  Code  Gb  ssl_tls.o [6]
mbedtls_ssl_transform_free
                        0x0800c82d    0x30  Code  Gb  ssl_tls.o [6]
mbedtls_ssl_update_handshake_status
                        0x0800bab5    0x32  Code  Gb  ssl_tls.o [6]
mbedtls_ssl_write       0x0800c7bd    0x2e  Code  Gb  ssl_tls.o [6]
mbedtls_ssl_write_certificate
                        0x0800be7f    0xca  Code  Gb  ssl_tls.o [6]
mbedtls_ssl_write_change_cipher_spec
                        0x0800c0a1    0x1a  Code  Gb  ssl_tls.o [6]
mbedtls_ssl_write_finished
                        0x0800c261    0xc8  Code  Gb  ssl_tls.o [6]
mbedtls_ssl_write_record
                        0x0800b6b7   0x162  Code  Gb  ssl_tls.o [6]
mbedtls_ssl_write_version
                        0x0800ca0f    0x1a  Code  Gb  ssl_tls.o [6]
mbedtls_threading_free_alt
                        0x080200bd    0x18  Code  Gb  threading.o [6]
mbedtls_threading_gmtime_mutex
                        0x200006f8     0x8  Data  Gb  threading.o [6]
mbedtls_threading_readdir_mutex
                        0x200006f0     0x8  Data  Gb  threading.o [6]
mbedtls_threading_set_alt
                        0x0802009d    0x20  Code  Gb  threading.o [6]
mbedtls_x509_crt_free   0x0800d4f3    0xae  Code  Gb  x509_crt.o [6]
mbedtls_x509_crt_init   0x0800d4eb     0x8  Code  Gb  x509_crt.o [6]
mbedtls_x509_crt_parse  0x0800ce55    0xd6  Code  Gb  x509_crt.o [6]
mbedtls_x509_crt_parse_der
                        0x0800cdc5    0x90  Code  Gb  x509_crt.o [6]
mbedtls_x509_crt_profile_default
                        0x0800d5e4    0x10  Data  Gb  x509_crt.o [6]
mbedtls_x509_crt_verify_with_profile
                        0x0800d3c9    0xd4  Code  Gb  x509_crt.o [6]
mbedtls_x509_get_alg    0x080140c5     0x6  Code  Gb  x509.o [6]
mbedtls_x509_get_ext    0x08014299    0x26  Code  Gb  x509.o [6]
mbedtls_x509_get_name   0x0801416b    0x66  Code  Gb  x509.o [6]
mbedtls_x509_get_serial
                        0x08014085    0x40  Code  Gb  x509.o [6]
mbedtls_x509_get_sig    0x080141e3    0x34  Code  Gb  x509.o [6]
mbedtls_x509_get_sig_alg
                        0x08014217    0x82  Code  Gb  x509.o [6]
mbedtls_x509_time_is_future
                        0x080142ed     0x4  Code  Gb  x509.o [6]
mbedtls_x509_time_is_past
                        0x080142e9     0x4  Code  Gb  x509.o [6]
mbedtls_zeroize         0x0800ac3b    0x12  Code  Lc  ssl_tls.o [6]
mbedtls_zeroize         0x0800caa1    0x12  Code  Lc  x509_crt.o [6]
mbedtls_zeroize         0x08011f25    0x12  Code  Lc  md.o [6]
mbedtls_zeroize         0x08013ebd    0x12  Code  Lc  asn1parse.o [6]
mbedtls_zeroize         0x08014459    0x12  Code  Lc  pem.o [6]
md5                     0x2000515c    0x24  Data  Gb  ota_update_manifest.o [1]
md5_clone_wrap          0x0802feb9     0x4  Code  Lc  md_wrap.o [6]
md5_ctx_alloc           0x0802fe99    0x16  Code  Lc  md_wrap.o [6]
md5_ctx_free            0x0802feaf     0xa  Code  Lc  md_wrap.o [6]
md5_finish_wrap         0x0802fe95     0x4  Code  Lc  md_wrap.o [6]
md5_padding             0x08016b2c    0x40  Data  Lc  md5.o [6]
md5_process_wrap        0x0802febd     0x4  Code  Lc  md_wrap.o [6]
md5_starts_wrap         0x0802fe8d     0x4  Code  Lc  md_wrap.o [6]
md5_update_wrap         0x0802fe91     0x4  Code  Lc  md_wrap.o [6]
memchr                  0x0800f419          Code  Gb  memchr.o [8]
memcmp                  0x08013181          Code  Gb  memcmp.o [8]
memset                  0x0800a5f7    0x14  Code  Gb  memset.o [8]
mgf_mask                0x0801e9f5    0x7c  Code  Lc  rsa.o [5]
mpi_montmul             0x0801dd21    0xd0  Code  Lc  bignum.o [5]
mpi_montred             0x0801ddf7    0x20  Code  Lc  bignum.o [5]
mpi_mul_hlp             0x0801d4dd   0x2e2  Code  Lc  bignum.o [5]
mpi_sub_hlp             0x0801d397    0x46  Code  Lc  bignum.o [5]
mqtt_client_example     0x08029589   0x4c2  Code  Gb  mqtt-example-b_l475e.o [1]
mqtt_client_example::__func__
                        0x080347fc    0x14  Data  Lc  mqtt-example-b_l475e.o [1]
msg_temp                0x20005354     0x4  Data  Lc  ota_update_manifest.o [1]
mutex_create            0x080091eb    0x54  Code  Gb  k_mutex.o [1]
mutex_pri_look          0x0800930d    0x60  Code  Gb  k_mutex.o [1]
mutex_release           0x08009251    0x28  Code  Lc  k_mutex.o [1]
mutex_task_pri_reset    0x0800936d    0x2a  Code  Gb  k_mutex.o [1]
myrand                  0x08018b25    0x36  Code  Lc  rsa.o [4]
myrand::__FUNCTION__    0x08018b5c     0x8  Data  Lc  rsa.o [4]
ncmd                    0x200007b4     0xc  Data  Lc  kvmgr.o [1]
ncmd                    0x200007cc     0xc  Data  Lc  netmgr.o [1]
ndigs                   0x080079ac    0x28  Data  Lc  iar_Stoulx.o [3]
netmgr_clear_ap_config  0x0802a575     0x8  Code  Gb  netmgr.o [1]
netmgr_connect_fail_event
                        0x08029ffd     0x2  Code  Lc  netmgr.o [1]
netmgr_events_executor  0x0802a455    0xc0  Code  Lc  netmgr.o [1]
netmgr_fatal_err_event  0x0802a203     0x2  Code  Lc  netmgr.o [1]
netmgr_init             0x0802a685    0x5a  Code  Gb  netmgr.o [1]
netmgr_ip_got_event     0x0802a03d    0x54  Code  Lc  netmgr.o [1]
netmgr_para_chg_event   0x0802a201     0x2  Code  Lc  netmgr.o [1]
netmgr_scan_adv_completed_event
                        0x0802a167    0x9a  Code  Lc  netmgr.o [1]
netmgr_scan_completed_event
                        0x0802a0f1    0x76  Code  Lc  netmgr.o [1]
netmgr_set_ap_config    0x0802a57d    0x72  Code  Gb  netmgr.o [1]
netmgr_start            0x0802a6df    0x38  Code  Gb  netmgr.o [1]
netmgr_stat_chg_event   0x0802a091    0x4c  Code  Lc  netmgr.o [1]
netmgr_wifi_config_start
                        0x0802a515    0x3a  Code  Lc  netmgr.o [1]
new_file                0x0802b20b    0x3a  Code  Lc  vfs.o [1]
obuf                    0x20004f2c    0x50  Data  Lc  xfiles.o [3]
oid_md_alg              0x08020118    0x8c  Data  Lc  oid.o [5]
ota_cancel_update_packet
                        0x0802c361    0x1e  Code  Gb  ota_update_manifest.o [1]
ota_check_progress      0x0802b8a1    0x12  Code  Lc  ota_transport.o [1]
ota_cmd                 0x08015c8b    0x1e  Code  Lc  cli.o [1]
ota_device_info         0x20005258     0xc  Data  Gb  mqtt-example-b_l475e.o [1]
ota_do_update_packet    0x0802c1e5    0xd2  Code  Gb  ota_update_manifest.o [1]
ota_download            0x0802cf2b   0x392  Code  Gb  ota_download.o [1]
ota_download_start      0x0802bf4d   0x196  Code  Gb  ota_update_manifest.o [1]
ota_finish_callbak      0x20005344     0x4  Data  Lc  ota_service.o [1]
ota_gen_info_msg        0x0802b7d9    0x46  Code  Lc  ota_transport.o [1]
ota_gen_report_msg      0x0802b81f    0x82  Code  Lc  ota_transport.o [1]
ota_get_dev_version     0x0802cdb7    0x24  Code  Gb  ota_version.o [1]
ota_get_last_MD5        0x0802ce1d     0x6  Code  Gb  download_common.o [1]
ota_get_last_MD5_context
                        0x0802ce29     0x6  Code  Gb  download_common.o [1]
ota_get_ota_version     0x0802cd7d    0x24  Code  Gb  ota_version.o [1]
ota_get_status          0x0802cce1    0x20  Code  Gb  ota_util.o [1]
ota_get_system_version  0x0802ce01     0x8  Code  Gb  ota_version.o [1]
ota_get_update_breakpoint
                        0x0802ce13     0x4  Code  Gb  download_common.o [1]
ota_get_update_type     0x0802cca7    0x1e  Code  Gb  ota_util.o [1]
ota_get_version         0x0802cd39    0x1e  Code  Gb  ota_util.o [1]
ota_hal_finish_cb       0x0802ab29    0x1e  Code  Lc  ota_service.o [1]
ota_hal_init            0x0802ab05     0xa  Code  Gb  ota_service.o [1]
ota_hal_write_cb        0x0802ab0f    0x1a  Code  Lc  ota_service.o [1]
ota_if_cancel           0x0802c32d    0x34  Code  Lc  ota_update_manifest.o [1]
ota_if_need             0x0802be7d    0xd0  Code  Gb  ota_update_manifest.o [1]
ota_info                0x200052c8     0x8  Data  Lc  ota_port.o [1]
ota_init                0x08029a91    0x32  Code  Lc  mqtt-example-b_l475e.o [1]
ota_init                0x2000533c     0x4  Data  Lc  ota_service.o [1]
ota_is_cancelable       0x0802c311    0x1c  Code  Lc  ota_update_manifest.o [1]
ota_module              0x20005334     0x4  Data  Lc  ota.o [1]
ota_mqtt_gen_topic_name
                        0x0802b67b    0x4e  Code  Lc  ota_transport.o [1]
ota_mqtt_publish        0x0802b6c9    0xd6  Code  Lc  ota_transport.o [1]
ota_mutex_destroy       0x0802d3ff    0x12  Code  Gb  ota_platform_os.o [1]
ota_mutex_init          0x0802d3b9    0x2a  Code  Gb  ota_platform_os.o [1]
ota_mutex_lock          0x0802d3e3    0x10  Code  Gb  ota_platform_os.o [1]
ota_mutex_unlock        0x0802d3f3     0xc  Code  Gb  ota_platform_os.o [1]
ota_post_version_msg    0x0802c0e9    0xfc  Code  Gb  ota_update_manifest.o [1]
ota_reboot              0x0802d411     0x8  Code  Gb  ota_platform_os.o [1]
ota_regist_upgrade      0x0802ac0b    0x14  Code  Gb  ota_service.o [1]
ota_request_parmas      0x2000523c    0x10  Data  Lc  ota_service.o [1]
ota_result_post         0x0802cd31     0x8  Code  Gb  ota_util.o [1]
ota_service_event       0x0802ac39    0x30  Code  Gb  ota_service.o [1]
ota_service_init        0x0802ac69     0xe  Code  Gb  ota_service.o [1]
ota_set_callbacks       0x0802aafb     0xa  Code  Lc  ota_service.o [1]
ota_set_cur_MD5         0x0802ce23     0x6  Code  Gb  download_common.o [1]
ota_set_dev_version     0x0802cddb    0x16  Code  Gb  ota_version.o [1]
ota_set_ota_version     0x0802cda1    0x16  Code  Gb  ota_version.o [1]
ota_set_status          0x0802cd01    0x1c  Code  Gb  ota_util.o [1]
ota_set_update_breakpoint
                        0x0802ce17     0x6  Code  Gb  download_common.o [1]
ota_set_update_type     0x0802ccc5    0x1c  Code  Gb  ota_util.o [1]
ota_set_version         0x0802cd57    0x1c  Code  Gb  ota_util.o [1]
ota_socket_check_conn   0x0802d6c5     0x2  Code  Gb  ota_socket.o [1]
ota_socket_close        0x0802d659    0x34  Code  Gb  ota_socket.o [1]
ota_socket_connect      0x0802d437    0xb2  Code  Gb  ota_socket.o [1]
ota_socket_recv         0x0802d569    0xf0  Code  Gb  ota_socket.o [1]
ota_socket_send         0x0802d4e9    0x80  Code  Gb  ota_socket.o [1]
ota_status_deinit       0x0802cc87    0x20  Code  Gb  ota_util.o [1]
ota_status_init         0x0802cc71    0x16  Code  Gb  ota_util.o [1]
ota_status_post         0x0802cd1d    0x14  Code  Gb  ota_util.o [1]
ota_write_flash_callback
                        0x20005340     0x4  Data  Lc  ota_service.o [1]
pFlash                  0x200051c4    0x20  Data  Gb  stm32l4xx_hal_flash.o [1]
parse_array             0x0802c9e3    0xa4  Code  Lc  cJSON.o [1]
parse_number            0x0802c56d   0x170  Code  Gb  cJSON.o [1]
parse_object            0x0802ca87   0x122  Code  Lc  cJSON.o [1]
parse_string            0x0802c6fd   0x21a  Code  Lc  cJSON.o [1]
parse_value             0x0802c933    0xb0  Code  Lc  cJSON.o [1]
pclient                 0x20005328     0x4  Data  Gb  mqtt-example-b_l475e.o [1]
pem_aes_decrypt         0x0801456b    0x54  Code  Lc  pem.o [6]
pem_get_iv              0x08014477    0x5a  Code  Lc  pem.o [6]
pem_pbkdf1              0x080144d1    0x90  Code  Lc  pem.o [6]
pend_list_add           0x08010905    0x32  Code  Lc  k_pend.o [1]
pend_list_reorder       0x08010a21    0x1e  Code  Gb  k_pend.o [1]
pend_state_end_proc     0x08010a3f    0x3e  Code  Gb  k_pend.o [1]
pend_task_rm            0x080109cb    0x52  Code  Gb  k_pend.o [1]
pend_task_wakeup        0x08010937    0x52  Code  Gb  k_pend.o [1]
pend_to_blk_obj         0x08010989    0x42  Code  Gb  k_pend.o [1]
perform_ref_signal_measurement
                        0x08023463    0x8e  Code  Gb  vl53l0x_api_calibration.o [1]
pk_get_pk_alg           0x080142f1    0x4e  Code  Lc  pkparse.o [6]
pk_hashlen_helper       0x08013d53    0x1e  Code  Lc  pk.o [6]
platform_ota_cancel_upgrade
                        0x0802bd41     0x6  Code  Gb  ota_transport.o [1]
platform_ota_get_id     0x0802bd47     0x4  Code  Gb  ota_transport.o [1]
platform_ota_init       0x0802b8b3    0x36  Code  Gb  ota_transport.o [1]
platform_ota_parse_cancel_responce
                        0x0802bb03     0x6  Code  Gb  ota_transport.o [1]
platform_ota_parse_response
                        0x0802b8e9   0x21a  Code  Gb  ota_transport.o [1]
platform_ota_result_post
                        0x0802bcc9    0x78  Code  Gb  ota_transport.o [1]
platform_ota_status_post
                        0x0802bbd1    0xf2  Code  Gb  ota_transport.o [1]
platform_ota_subscribe_upgrade
                        0x0802bb09    0xbe  Code  Gb  ota_transport.o [1]
post_poll               0x0802b4f9    0x66  Code  Lc  vfs.o [1]
pow                     0x080289e5    0x14  Code  Gb  pow64.o [7]
power_off               0x0802f48b     0x6  Code  Lc  wifi_port.o [1]
power_on                0x0802f491     0x6  Code  Lc  wifi_port.o [1]
powl                    0x080289e5    0x14  Code  Gb  pow64.o [7]
pre_poll                0x0802b449    0xb0  Code  Lc  vfs.o [1]
preferred_cpu_ready_task_get
                        0x08010699    0x1a  Code  Gb  k_sched.o [1]
print_bad_command       0x08015829    0x14  Code  Lc  cli.o [1]
print_block             0x08010c8d    0xac  Code  Gb  k_mm_debug.o [1]
printf                  0x08004f51    0x28  Code  Gb  printf.o [3]
putchar                 0x08034599     0xc  Code  Gb  putchar.o [3]
queue_create            0x08015f75    0x84  Code  Lc  k_queue.o [1]
rand                    0x0800a891    0x96  Code  Gb  rand.o [3]
randseed                0x20000858     0x4  Data  Lc  ali_crypto_rand.o [4]
ranmatch                0x08014ae3    0x42  Code  Lc  xscanflarge_nomb.o [3]
raw_erase               0x08024e29    0x12  Code  Lc  kvmgr.o [1]
raw_read                0x08024e01    0x14  Code  Lc  kvmgr.o [1]
raw_write               0x08024e15    0x14  Code  Lc  kvmgr.o [1]
readChar                0x08003dbf    0x10  Code  Gb  MQTTPacket.o [1]
readInt                 0x08003da3    0x1c  Code  Gb  MQTTPacket.o [1]
readMQTTLenString       0x08003e75    0x3c  Code  Gb  MQTTPacket.o [1]
read_persistent_conf    0x0802a5ef    0x1c  Code  Lc  netmgr.o [1]
read_ssl                0x080040f5    0x2e  Code  Lc  utils_net.o [1]
read_ssl::__FUNCTION__  0x0803543c     0xc  Data  Lc  utils_net.o [1]
read_tcp                0x08004075    0x18  Code  Gb  utils_net.o [1]
ready_list_add          0x080105d5    0x32  Code  Gb  k_sched.o [1]
ready_list_add_head     0x080105b5    0x10  Code  Gb  k_sched.o [1]
ready_list_add_tail     0x080105c5    0x10  Code  Gb  k_sched.o [1]
ready_list_head_to_tail
                        0x08010685    0x14  Code  Gb  k_sched.o [1]
ready_list_init         0x080104f7    0x40  Code  Lc  k_sched.o [1]
ready_list_rm           0x08010607    0x7e  Code  Gb  k_sched.o [1]
reboot_cmd              0x08015c4d    0x18  Code  Lc  cli.o [1]
reconnect_wifi          0x0802a2c5    0x62  Code  Lc  netmgr.o [1]
refArrayQuadrants       0x20000788    0x10  Data  Gb  vl53l0x_api_calibration.o [1]
register_monitor_cb     0x0802f4b3     0x2  Code  Lc  wifi_port.o [1]
register_wlan_mgnt_monitor_cb
                        0x0802f4b5     0x2  Code  Lc  wifi_port.o [1]
removesize              0x08009ae1    0x1a  Code  Lc  k_mm.o [1]
rhino_stack_check_init  0x0800a44f     0x2  Code  Lc  k_sys.o [1]
ringbuf_headlen_decompress
                        0x080181e7    0x58  Code  Lc  k_ringbuf.o [1]
ringbuf_init            0x080181b1    0x36  Code  Gb  k_ringbuf.o [1]
ringbuf_is_empty        0x080183cb    0x16  Code  Gb  k_ringbuf.o [1]
ringbuf_pop             0x0801823f   0x18c  Code  Gb  k_ringbuf.o [1]
ringbuf_reset           0x080183e1    0x16  Code  Gb  k_ringbuf.o [1]
rsa_alloc_wrap          0x0802fe2f    0x1a  Code  Lc  pk_wrap.o [6]
rsa_can_do              0x0802fdcd     0x8  Code  Lc  pk_wrap.o [6]
rsa_debug_wrap          0x0802fe5b    0x20  Code  Lc  pk_wrap.o [6]
rsa_decrypt_alt         0x08016e8d     0xc  Code  Gb  mbedtls_alt.o [6]
rsa_decrypt_alt::__FUNCTION__
                        0x08017244    0x10  Data  Lc  mbedtls_alt.o [6]
rsa_decrypt_wrap        0x0802fdfb    0x18  Code  Lc  pk_wrap.o [6]
rsa_encrypt_alt         0x08016e99    0xec  Code  Gb  mbedtls_alt.o [6]
rsa_encrypt_alt::__FUNCTION__
                        0x08017254    0x10  Data  Lc  mbedtls_alt.o [6]
rsa_encrypt_wrap        0x0802fe13    0x1c  Code  Lc  pk_wrap.o [6]
rsa_free_wrap           0x0802fe49    0x12  Code  Lc  pk_wrap.o [6]
rsa_get_bitlen          0x0802fdd5     0x6  Code  Lc  pk_wrap.o [6]
rsa_prepare_blinding    0x0801e821    0xc2  Code  Lc  rsa.o [5]
rsa_sign_alt            0x08016e75     0xa  Code  Gb  mbedtls_alt.o [6]
rsa_sign_alt::__FUNCTION__
                        0x08017234    0x10  Data  Lc  mbedtls_alt.o [6]
rsa_sign_wrap           0x0802fdeb    0x10  Code  Lc  pk_wrap.o [6]
rsa_verify_alt          0x08016d09   0x164  Code  Gb  mbedtls_alt.o [6]
rsa_verify_alt::__FUNCTION__
                        0x08017134    0x10  Data  Lc  mbedtls_alt.o [6]
rsa_verify_wrap         0x0802fddb    0x10  Code  Lc  pk_wrap.o [6]
runqueue_init           0x080104db    0x1c  Code  Gb  k_sched.o [1]
sFileInfo               0x20004cc0    0x80  Data  Lc  XShHandles.o [3]
save_state              0x0802ce11     0x2  Code  Gb  download_common.o [1]
scalbln                 0x0800f959          Code  Gb  ldexp.o [7]
scalblnl                0x0800f959          Code  Gb  ldexp.o [7]
scalbn                  0x0800f959          Code  Gb  ldexp.o [7]
scalbnl                 0x0800f959          Code  Gb  ldexp.o [7]
scale                   0x08008147    0x46  Code  Lc  xprintffull_nomb.o [3]
sec_hand                0x20005390     0x4  Data  Lc  xfail_s.o [3]
secmode_str             0x20000720    0x1c  Data  Gb  guider.o [1]
sem_create              0x080096bf    0x56  Code  Lc  k_sem.o [1]
sem_give                0x080097a9    0xa6  Code  Lc  k_sem.o [1]
sequence_step_enabled   0x08022371    0x54  Code  Gb  vl53l0x_api.o [1]
set_access_security     0x0802a205    0x7c  Code  Lc  netmgr.o [1]
set_channel             0x0802f4a9     0x6  Code  Lc  wifi_port.o [1]
set_download_url        0x0802bdfd    0x60  Code  Lc  ota_update_manifest.o [1]
set_ref_spad_map        0x08023373    0x16  Code  Gb  vl53l0x_api_calibration.o [1]
set_sequence_step_timeout
                        0x08020bef   0x178  Code  Gb  vl53l0x_api_core.o [1]
set_wifi_ssid           0x0802a3e1    0x52  Code  Lc  netmgr.o [1]
setup_fd                0x0802b3fd     0x2  Code  Lc  vfs.o [1]
sha1_clone_wrap         0x0802fee3     0x4  Code  Lc  md_wrap.o [6]
sha1_ctx_alloc          0x0802fecd    0x16  Code  Lc  md_wrap.o [6]
sha1_ctx_free           0x0802fee7     0x8  Code  Lc  md_wrap.o [6]
sha1_finish_wrap        0x0802fec9     0x4  Code  Lc  md_wrap.o [6]
sha1_padding            0x08024d88    0x40  Data  Lc  sha1.o [6]
sha1_process_wrap       0x0802fef9     0x4  Code  Lc  md_wrap.o [6]
sha1_starts_wrap        0x0802fec1     0x4  Code  Lc  md_wrap.o [6]
sha1_update_wrap        0x0802fec5     0x4  Code  Lc  md_wrap.o [6]
sha224_clone_wrap       0x0802ff31     0x4  Code  Lc  md_wrap.o [6]
sha224_ctx_alloc        0x0802ff11    0x16  Code  Lc  md_wrap.o [6]
sha224_ctx_free         0x0802ff27     0xa  Code  Lc  md_wrap.o [6]
sha224_finish_wrap      0x0802ff07     0x4  Code  Lc  md_wrap.o [6]
sha224_process_wrap     0x0802ff35     0x4  Code  Lc  md_wrap.o [6]
sha224_starts_wrap      0x0802fefd     0x6  Code  Lc  md_wrap.o [6]
sha224_update_wrap      0x0802ff03     0x4  Code  Lc  md_wrap.o [6]
sha224_wrap             0x0802ff0b     0x6  Code  Lc  md_wrap.o [6]
sha256_padding          0x08013138    0x40  Data  Lc  sha256.o [6]
sha256_starts_wrap      0x0802ff39     0x6  Code  Lc  md_wrap.o [6]
sha256_wrap             0x0802ff3f     0x6  Code  Lc  md_wrap.o [6]
show_version            0x0802faa9    0x24  Code  Lc  version.o [1]
sim_aos_wifi_stm23l475  0x20000434    0x70  Data  Gb  wifi_port.o [1]
sizetoindex             0x08009a7d    0x12  Code  Lc  k_mm.o [1]
skip                    0x0802c91d    0x16  Code  Lc  cJSON.o [1]
snprintf                0x080063b1    0x44  Code  Gb  snprintf.o [3]
soc_err_proc            0x08010acf    0x18  Code  Gb  soc_impl.o [1]
soc_get_cur_sp          0x08010a7d     0x4  Code  Gb  soc_impl.o [1]
soc_print_stack         0x08010a81    0x4e  Code  Lc  soc_impl.o [1]
spi_rx_mutex            0x200052fc     0x4  Data  Lc  es_wifi_io.o [1]
spi_rx_sem              0x20005304     0x4  Data  Lc  es_wifi_io.o [1]
spi_tx_mutex            0x200052f8     0x4  Data  Lc  es_wifi_io.o [1]
spi_tx_sem              0x20005300     0x4  Data  Lc  es_wifi_io.o [1]
sprintf                 0x08007a41    0x40  Code  Gb  sprintf.o [3]
sscanf                  0x0800ef39    0x28  Code  Gb  sscanf.o [3]
ssl_bitmask_set         0x0800b821    0x6a  Code  Lc  ssl_tls.o [6]
ssl_calc_finished_tls_sha256
                        0x0800c169    0x62  Code  Lc  ssl_tls.o [6]
ssl_calc_verify_tls_sha256
                        0x0800b005    0x2a  Code  Lc  ssl_tls.o [6]
ssl_check_timer         0x0800ac69    0x18  Code  Lc  ssl_tls.o [6]
ssl_decrypt_buf         0x0800b14b   0x25a  Code  Lc  ssl_tls.o [6]
ssl_encrypt_buf         0x0800b02f   0x116  Code  Lc  ssl_tls.o [6]
ssl_ep_len              0x0800ac4d     0xe  Code  Lc  ssl_tls.o [6]
ssl_flight_free         0x0800b559    0x1a  Code  Lc  ssl_tls.o [6]
ssl_handshake_init      0x0800c3cd    0xf2  Code  Lc  ssl_tls.o [6]
ssl_handshake_wrapup_free_hs_transform
                        0x0800c1cb    0x2c  Code  Lc  ssl_tls.o [6]
ssl_load_six_bytes      0x0800bae7    0x20  Code  Lc  ssl_tls.o [6]
ssl_parse_certificate_request
                        0x0801383b    0xcc  Code  Lc  ssl_cli.o [6]
ssl_parse_hello_verify_request
                        0x08013479    0xaa  Code  Lc  ssl_cli.o [6]
ssl_parse_record_header
                        0x0800bbbf    0xe2  Code  Lc  ssl_tls.o [6]
ssl_parse_server_hello  0x08013523   0x240  Code  Lc  ssl_cli.o [6]
ssl_preset_default_hashes
                        0x20000798    0x10  Data  Lc  ssl_tls.o [6]
ssl_reassemble_dtls_handshake
                        0x0800b897   0x15c  Code  Lc  ssl_tls.o [6]
ssl_set_timer           0x0800ac5b     0xe  Code  Lc  ssl_tls.o [6]
ssl_swap_epochs         0x0800b573    0x54  Code  Lc  ssl_tls.o [6]
ssl_update_checksum_sha256
                        0x0800c15d     0x4  Code  Lc  ssl_tls.o [6]
ssl_update_checksum_start
                        0x0800c159     0x2  Code  Lc  ssl_tls.o [6]
ssl_write_certificate_verify
                        0x0801391b    0xf4  Code  Lc  ssl_cli.o [6]
ssl_write_client_hello  0x080132d1   0x1a8  Code  Lc  ssl_cli.o [6]
ssl_write_encrypted_pms
                        0x0801376d    0xce  Code  Lc  ssl_cli.o [6]
ssl_write_real          0x0800c781    0x3c  Code  Lc  ssl_tls.o [6]
ssl_write_signature_algorithms_ext
                        0x0801325b    0x76  Code  Lc  ssl_cli.o [6]
start_mesh              0x08029fff     0x2  Code  Lc  netmgr.o [1]
start_monitor           0x0802f4af     0x2  Code  Lc  wifi_port.o [1]
start_scan              0x0802f487     0x2  Code  Lc  wifi_port.o [1]
start_scan_adv          0x0802f489     0x2  Code  Lc  wifi_port.o [1]
stm32_soc_init          0x08017be1    0x44  Code  Gb  soc_init.o [1]
stm32_uart              0x20004730   0x100  Data  Gb  soc_init.o [1]
stm32l475_ota_init      0x0802ef2b    0x70  Code  Lc  ota_port.o [1]
stm32l475_ota_module    0x20000698    0x24  Data  Gb  ota_port.o [1]
stm32l475_ota_read      0x0802f007    0x30  Code  Lc  ota_port.o [1]
stm32l475_ota_set_boot  0x0802f037    0x70  Code  Lc  ota_port.o [1]
stm32l475_ota_write     0x0802ef9b    0x6c  Code  Lc  ota_port.o [1]
stop_mesh               0x0802a001     0x2  Code  Lc  netmgr.o [1]
stop_monitor            0x0802f4b1     0x2  Code  Lc  wifi_port.o [1]
strcat                  0x08007a21    0x20  Code  Gb  strcat.o [3]
strchr                  0x08004fb5          Code  Gb  strchr.o [8]
strcmp                  0x0800eeed          Code  Gb  strcmp.o [8]
strcpy                  0x080079d5          Code  Gb  strcpy.o [8]
strcspn                 0x08004fed    0x22  Code  Gb  strcspn.o [3]
strerror                0x0802dfd5    0x90  Code  Gb  strerror.o [3]
strlen                  0x08002fb5          Code  Gb  strlen.o [8]
strncmp                 0x0800404d    0x28  Code  Gb  strncmp.o [3]
strncpy                 0x08003089          Code  Gb  strncpy.o [8]
strspn                  0x08004fcb    0x22  Code  Gb  strspn.o [3]
strstr                  0x08007a81    0x30  Code  Gb  strstr.o [3]
strtok                  0x080030f9    0x48  Code  Gb  strtok.o [3]
strtol                  0x08017507     0x4  Code  Gb  iar_Stolx.o [3]
strtoul                 0x0800797f     0x2  Code  Gb  iar_Stoulx.o [3]
supported_ciphersuites  0x20005200    0x14  Data  Lc  ssl_ciphersuites.o [6]
supported_init          0x200051fc     0x4  Data  Lc  ssl_ciphersuites.o [6]
suspend                 0x0802f497     0x6  Code  Lc  wifi_port.o [1]
suspend_soft_ap         0x0802f4a3     0x6  Code  Lc  wifi_port.o [1]
suspend_station         0x0802f49d     0x6  Code  Lc  wifi_port.o [1]
sys_init                0x0802f8a9    0x1e  Code  Lc  aos.o [1]
sys_start               0x0802f8c7    0x2c  Code  Lc  aos.o [1]
tab_complete            0x08015389   0x10a  Code  Lc  cli.o [1]
task_cmd                0x08015c01    0x16  Code  Lc  cli.o [1]
task_create             0x080088f1   0x182  Code  Lc  k_task.o [1]
task_dyn_create         0x08008ac7    0xb4  Code  Gb  k_task.o [1]
task_mutex_free         0x08008e51    0x40  Code  Lc  k_task.o [1]
task_pri_change         0x08008d59    0xf8  Code  Gb  k_task.o [1]
teardown_fd             0x0802b3ff     0x2  Code  Lc  vfs.o [1]
tftp_ota_thread         0x08015c7f     0xc  Code  Gb  cli.o [1]
threading_mutex_dummy   0x0802009b     0x2  Code  Lc  threading.o [6]
threading_mutex_fail    0x08020095     0x6  Code  Lc  threading.o [6]
tick_list_init          0x0801075f     0xa  Code  Gb  k_tick.o [1]
tick_list_insert        0x080107a7    0x24  Code  Gb  k_tick.o [1]
tick_list_pri_insert    0x08010769    0x3e  Code  Lc  k_tick.o [1]
tick_list_rm            0x080107cb    0x18  Code  Gb  k_tick.o [1]
tick_list_update        0x080107e3    0xf6  Code  Gb  k_tick.o [1]
time_slice_update       0x080106b3    0x76  Code  Gb  k_sched.o [1]
timer_cb_proc           0x080110db    0x94  Code  Lc  k_timer.o [1]
timer_cmd_proc          0x08011287    0x2e  Code  Lc  k_timer.o [1]
timer_list_pri_insert   0x0801107b    0x4a  Code  Lc  k_timer.o [1]
timer_list_rm           0x080110c5    0x16  Code  Lc  k_timer.o [1]
timer_queue_cb          0x20000f00   0x500  Data  Gb  k_obj.o [1]
timer_task              0x080112b5   0x11c  Code  Lc  k_timer.o [1]
tls_prf_generic         0x0800ac81   0x106  Code  Lc  ssl_tls.o [6]
tls_prf_sha256          0x0800ad97    0x20  Code  Lc  ssl_tls.o [6]
to_capital_letter       0x0802b64d    0x2e  Code  Lc  ota_transport.o [1]
tolower                 0x0800f405    0x14  Code  Gb  tolower.o [3]
trace_start             0x0802fa79    0x10  Code  Gb  trace_impl.o [1]
translate_addr          0x0802a003    0x3a  Code  Lc  netmgr.o [1]
trap_fcntl              0x0802b195     0x8  Code  Lc  vfs.o [1]
trap_open               0x0802b185     0x8  Code  Lc  vfs.o [1]
trap_read               0x0802b18d     0x8  Code  Lc  vfs.o [1]
trigger_gc              0x08024e3b    0x30  Code  Lc  kvmgr.o [1]
tsensor_drv             0x20005378     0x4  Data  Lc  stm32l475e_iot01_tsensor.o [1]
ttio_guard              0x200053a5     0x1  Data  Lc  XShttio.o [3]
uart_0                  0x20005214    0x14  Data  Gb  hw.o [1]
update_action           0x0802ab47    0x6e  Code  Lc  ota_service.o [1]
uptime_cmd              0x08015c65    0x1a  Code  Lc  cli.o [1]
used_bitmap             0x200052e0     0x4  Data  Lc  aos_rhino.o [1]
utils_crc8              0x08024dc9    0x38  Code  Lc  kvmgr.o [1]
utils_hb2hex            0x0800eed9    0x14  Code  Gb  utils_md5.o [1]
utils_hmac_sha1         0x080063f5   0x100  Code  Gb  utils_hmac.o [1]
utils_net_read          0x080041b1    0x2c  Code  Gb  utils_net.o [1]
utils_net_write         0x080041dd    0x2c  Code  Gb  utils_net.o [1]
utils_network_ssl_disconnect
                        0x08005e51    0x42  Code  Gb  HAL_TLS_mbedtls.o [1]
utils_network_ssl_disconnect::__FUNCTION__
                        0x0803309c    0x20  Data  Lc  HAL_TLS_mbedtls.o [1]
utils_network_ssl_read  0x08005cdb    0xf6  Code  Gb  HAL_TLS_mbedtls.o [1]
utils_network_ssl_read::__FUNCTION__
                        0x08033f38    0x18  Data  Lc  HAL_TLS_mbedtls.o [1]
utils_network_ssl_read::net_status
                        0x2000530c     0x4  Data  Lc  HAL_TLS_mbedtls.o [1]
utils_network_ssl_write
                        0x08005dd1    0x80  Code  Gb  HAL_TLS_mbedtls.o [1]
utils_network_ssl_write::__FUNCTION__
                        0x08033f50    0x18  Data  Lc  HAL_TLS_mbedtls.o [1]
utils_sha1_finish       0x0800eddd    0xf0  Code  Gb  utils_sha1.o [1]
utils_sha1_init         0x0800d635    0x14  Code  Gb  utils_sha1.o [1]
utils_sha1_process      0x0800d67d  0x16c8  Code  Gb  utils_sha1.o [1]
utils_sha1_starts       0x0800d649    0x1e  Code  Gb  utils_sha1.o [1]
utils_sha1_update       0x0800ed45    0x98  Code  Gb  utils_sha1.o [1]
utils_time_countdown_ms
                        0x080031bf    0x48  Code  Gb  utils_timer.o [1]
utils_time_is_expired   0x0800318f    0x26  Code  Gb  utils_timer.o [1]
utils_time_spend        0x08003151    0x18  Code  Gb  utils_timer.o [1]
uwTick                  0x2000537c     0x4  Data  Gb  stm32l4xx_hal.o [1]
valid_access_security   0x0802a281    0x44  Code  Lc  netmgr.o [1]
var_init                0x0802f895    0x14  Code  Lc  aos.o [1]
version_cmd             0x080159d9    0x1a  Code  Lc  cli.o [1]
version_config          0x20004630   0x100  Data  Gb  ota_version.o [1]
version_init            0x0802facd    0x22  Code  Gb  version.o [1]
versioncmd              0x200007d8     0xc  Data  Lc  version.o [1]
vfs_device_init         0x0802ebcd    0x2c  Code  Gb  device.o [1]
vfs_init                0x0802b19d    0x34  Code  Gb  vfs.o [1]
vfs_poll_notify         0x0802b401     0xe  Code  Lc  vfs.o [1]
vprintf                 0x080058b1    0x20  Code  Gb  vprintf.o [3]
vsnprintf               0x08004f79    0x3c  Code  Gb  vsnprint.o [3]
wait_io                 0x0802b40f    0x1e  Code  Lc  vfs.o [1]
wifi_debug_cmd          0x08015cb1    0x12  Code  Lc  cli.o [1]
wifi_get_mac_addr       0x0802f37b    0x1c  Code  Lc  wifi_port.o [1]
wifi_init               0x0802f36d     0xe  Code  Lc  wifi_port.o [1]
wifi_service_event      0x08029251    0x3c  Code  Lc  mqtt-example-b_l475e.o [1]
wifi_start              0x0802f451    0x24  Code  Lc  wifi_port.o [1]
wifi_start_adv          0x0802f475     0x6  Code  Lc  wifi_port.o [1]
wlan_send_80211_raw_frame
                        0x0802f4b7     0x6  Code  Lc  wifi_port.o [1]
writeCString            0x08003e05    0x2a  Code  Gb  MQTTPacket.o [1]
writeChar               0x08003dcf     0xc  Code  Gb  MQTTPacket.o [1]
writeInt                0x08003ddb    0x2a  Code  Gb  MQTTPacket.o [1]
writeMQTTString         0x08003e2f    0x46  Code  Gb  MQTTPacket.o [1]
write_ssl               0x08004123    0x2e  Code  Lc  utils_net.o [1]
write_ssl::__FUNCTION__
                        0x08035448     0xc  Data  Lc  utils_net.o [1]
write_tcp               0x0800408d    0x18  Code  Lc  utils_net.o [1]
x509_crt_check_parent   0x0800cfe1    0x52  Code  Lc  x509_crt.o [6]
x509_crt_parse_der_core
                        0x0800cb1b   0x292  Code  Lc  x509_crt.o [6]
x509_crt_verify_child   0x0800d1db   0x1d6  Code  Lc  x509_crt.o [6]
x509_crt_verify_top     0x0800d033   0x19e  Code  Lc  x509_crt.o [6]
x509_get_attr_type_value
                        0x080140d3    0x8c  Code  Lc  x509.o [6]
x509_name_cmp           0x0800cf93    0x4e  Code  Lc  x509_crt.o [6]
x509_profile_check_key  0x0800cad7    0x22  Code  Lc  x509_crt.o [6]
x509_profile_check_md_alg
                        0x0800cab3    0x10  Code  Lc  x509_crt.o [6]
x509_profile_check_pk_alg
                        0x0800cac3     0xe  Code  Lc  x509_crt.o [6]
x509_skip_parse         0x0800caf9    0x22  Code  Lc  x509_crt.o [6]
x509_string_cmp         0x0800cf2b    0x68  Code  Lc  x509_crt.o [6]


[1] = C:\repo\AliOS-Things\projects\IAR\mqttapp\Debug\Obj
[2] = command line
[3] = dl7M_tlf.a
[4] = libalicrypto.a
[5] = libmbedcrytpo.a
[6] = libmbedtls.a
[7] = m7M_tls.a
[8] = rt7M_tl.a
[9] = shb_l.a

  195 403 bytes of readonly  code memory
   25 457 bytes of readonly  data memory
   29 606 bytes of readwrite data memory

Errors: none
Warnings: none
