TI ARM Assembler Unix v16.9.6 Thu Dec 28 17:45:45 2017

Tools Copyright (c) 1996-2017 Texas Instruments Incorporated
slnetifwifi.asm                                                      PAGE    1

       1                    ;******************************************************************************
       2                    ;* TI ARM C/C++ Codegen                                      Unix v16.9.6.LTS *
       3                    ;* Date/Time created: Thu Dec 28 17:45:45 2017                                *
       4                    ;******************************************************************************
       5                            .compiler_opts --abi=eabi --arm_vmrs_si_workaround=off --code_state=16 --embedded_constants=on
       6 00000000                   .thumb
       7                    
       8                    $C$DW$CU        .dwtag  DW_TAG_compile_unit
       9                            .dwattr $C$DW$CU, DW_AT_name("/vagrant/Q4_04/sdk_root/source/ti/drivers/net/wifi/slnetif/slnet
      10                            .dwattr $C$DW$CU, DW_AT_producer("TI TI ARM C/C++ Codegen Unix v16.9.6.LTS Copyright (c) 1996-
      11                            .dwattr $C$DW$CU, DW_AT_TI_version(0x01)
      12                            .dwattr $C$DW$CU, DW_AT_comp_dir("/vagrant/Q4_04/sdk_root/source/ti/drivers/net/wifi/slnetif/c
      13                    
      14                    $C$DW$1 .dwtag  DW_TAG_subprogram
      15                            .dwattr $C$DW$1, DW_AT_name("memset")
      16                            .dwattr $C$DW$1, DW_AT_TI_symbol_name("memset")
      17                            .dwattr $C$DW$1, DW_AT_type(*$C$DW$T$3)
      18                            .dwattr $C$DW$1, DW_AT_declaration
      19                            .dwattr $C$DW$1, DW_AT_external
      20                            .dwattr $C$DW$1, DW_AT_decl_file("/opt/ti/ccs-latest/ccsv7/tools/compiler/ti-cgt-arm_16.9.6.LT
      21                            .dwattr $C$DW$1, DW_AT_decl_line(0x71)
      22                            .dwattr $C$DW$1, DW_AT_decl_column(0x16)
      23                    $C$DW$2 .dwtag  DW_TAG_formal_parameter
      24                            .dwattr $C$DW$2, DW_AT_type(*$C$DW$T$3)
      25                    
      26                    $C$DW$3 .dwtag  DW_TAG_formal_parameter
      27                            .dwattr $C$DW$3, DW_AT_type(*$C$DW$T$10)
      28                    
      29                    $C$DW$4 .dwtag  DW_TAG_formal_parameter
      30                            .dwattr $C$DW$4, DW_AT_type(*$C$DW$T$573)
      31                    
      32                            .dwendtag $C$DW$1
      33                    
      34                    
      35                    $C$DW$5 .dwtag  DW_TAG_subprogram
      36                            .dwattr $C$DW$5, DW_AT_name("sl_FsOpen")
      37                            .dwattr $C$DW$5, DW_AT_TI_symbol_name("sl_FsOpen")
      38                            .dwattr $C$DW$5, DW_AT_type(*$C$DW$T$12)
      39                            .dwattr $C$DW$5, DW_AT_declaration
      40                            .dwattr $C$DW$5, DW_AT_external
      41                            .dwattr $C$DW$5, DW_AT_decl_file("/vagrant/Q4_04/sdk_root/source/ti/drivers/net/wifi/fs.h")
      42                            .dwattr $C$DW$5, DW_AT_decl_line(0x167)
      43                            .dwattr $C$DW$5, DW_AT_decl_column(0x06)
      44                    $C$DW$6 .dwtag  DW_TAG_formal_parameter
      45                            .dwattr $C$DW$6, DW_AT_type(*$C$DW$T$592)
      46                    
      47                    $C$DW$7 .dwtag  DW_TAG_formal_parameter
      48                            .dwattr $C$DW$7, DW_AT_type(*$C$DW$T$600)
      49                    
      50                    $C$DW$8 .dwtag  DW_TAG_formal_parameter
      51                            .dwattr $C$DW$8, DW_AT_type(*$C$DW$T$630)
      52                    
      53                            .dwendtag $C$DW$5
      54                    
      55                    
TI ARM Assembler Unix v16.9.6 Thu Dec 28 17:45:45 2017

Tools Copyright (c) 1996-2017 Texas Instruments Incorporated
slnetifwifi.asm                                                      PAGE    2

      56                    $C$DW$9 .dwtag  DW_TAG_subprogram
      57                            .dwattr $C$DW$9, DW_AT_name("sl_FsClose")
      58                            .dwattr $C$DW$9, DW_AT_TI_symbol_name("sl_FsClose")
      59                            .dwattr $C$DW$9, DW_AT_type(*$C$DW$T$8)
      60                            .dwattr $C$DW$9, DW_AT_declaration
      61                            .dwattr $C$DW$9, DW_AT_external
      62                            .dwattr $C$DW$9, DW_AT_decl_file("/vagrant/Q4_04/sdk_root/source/ti/drivers/net/wifi/fs.h")
      63                            .dwattr $C$DW$9, DW_AT_decl_line(0x18a)
      64                            .dwattr $C$DW$9, DW_AT_decl_column(0x06)
      65                    $C$DW$10        .dwtag  DW_TAG_formal_parameter
      66                            .dwattr $C$DW$10, DW_AT_type(*$C$DW$T$599)
      67                    
      68                    $C$DW$11        .dwtag  DW_TAG_formal_parameter
      69                            .dwattr $C$DW$11, DW_AT_type(*$C$DW$T$592)
      70                    
      71                    $C$DW$12        .dwtag  DW_TAG_formal_parameter
      72                            .dwattr $C$DW$12, DW_AT_type(*$C$DW$T$592)
      73                    
      74                    $C$DW$13        .dwtag  DW_TAG_formal_parameter
      75                            .dwattr $C$DW$13, DW_AT_type(*$C$DW$T$600)
      76                    
      77                            .dwendtag $C$DW$9
      78                    
      79                    
      80                    $C$DW$14        .dwtag  DW_TAG_subprogram
      81                            .dwattr $C$DW$14, DW_AT_name("sl_FsWrite")
      82                            .dwattr $C$DW$14, DW_AT_TI_symbol_name("sl_FsWrite")
      83                            .dwattr $C$DW$14, DW_AT_type(*$C$DW$T$12)
      84                            .dwattr $C$DW$14, DW_AT_declaration
      85                            .dwattr $C$DW$14, DW_AT_external
      86                            .dwattr $C$DW$14, DW_AT_decl_file("/vagrant/Q4_04/sdk_root/source/ti/drivers/net/wifi/fs.h")
      87                            .dwattr $C$DW$14, DW_AT_decl_line(0x1ba)
      88                            .dwattr $C$DW$14, DW_AT_decl_column(0x06)
      89                    $C$DW$15        .dwtag  DW_TAG_formal_parameter
      90                            .dwattr $C$DW$15, DW_AT_type(*$C$DW$T$599)
      91                    
      92                    $C$DW$16        .dwtag  DW_TAG_formal_parameter
      93                            .dwattr $C$DW$16, DW_AT_type(*$C$DW$T$13)
      94                    
      95                    $C$DW$17        .dwtag  DW_TAG_formal_parameter
      96                            .dwattr $C$DW$17, DW_AT_type(*$C$DW$T$84)
      97                    
      98                    $C$DW$18        .dwtag  DW_TAG_formal_parameter
      99                            .dwattr $C$DW$18, DW_AT_type(*$C$DW$T$13)
     100                    
     101                            .dwendtag $C$DW$14
     102                    
     103                    
     104                    $C$DW$19        .dwtag  DW_TAG_subprogram
     105                            .dwattr $C$DW$19, DW_AT_name("sl_Socket")
     106                            .dwattr $C$DW$19, DW_AT_TI_symbol_name("sl_Socket")
     107                            .dwattr $C$DW$19, DW_AT_type(*$C$DW$T$8)
     108                            .dwattr $C$DW$19, DW_AT_declaration
     109                            .dwattr $C$DW$19, DW_AT_external
     110                            .dwattr $C$DW$19, DW_AT_decl_file("/vagrant/Q4_04/sdk_root/source/ti/drivers/net/wifi/sl_socke
TI ARM Assembler Unix v16.9.6 Thu Dec 28 17:45:45 2017

Tools Copyright (c) 1996-2017 Texas Instruments Incorporated
slnetifwifi.asm                                                      PAGE    3

     111                            .dwattr $C$DW$19, DW_AT_decl_line(0x1e7)
     112                            .dwattr $C$DW$19, DW_AT_decl_column(0x06)
     113                    $C$DW$20        .dwtag  DW_TAG_formal_parameter
     114                            .dwattr $C$DW$20, DW_AT_type(*$C$DW$T$8)
     115                    
     116                    $C$DW$21        .dwtag  DW_TAG_formal_parameter
     117                            .dwattr $C$DW$21, DW_AT_type(*$C$DW$T$8)
     118                    
     119                    $C$DW$22        .dwtag  DW_TAG_formal_parameter
     120                            .dwattr $C$DW$22, DW_AT_type(*$C$DW$T$8)
     121                    
     122                            .dwendtag $C$DW$19
     123                    
     124                    
     125                    $C$DW$23        .dwtag  DW_TAG_subprogram
     126                            .dwattr $C$DW$23, DW_AT_name("sl_Close")
     127                            .dwattr $C$DW$23, DW_AT_TI_symbol_name("sl_Close")
     128                            .dwattr $C$DW$23, DW_AT_type(*$C$DW$T$8)
     129                            .dwattr $C$DW$23, DW_AT_declaration
     130                            .dwattr $C$DW$23, DW_AT_external
     131                            .dwattr $C$DW$23, DW_AT_decl_file("/vagrant/Q4_04/sdk_root/source/ti/drivers/net/wifi/sl_socke
     132                            .dwattr $C$DW$23, DW_AT_decl_line(0x1f9)
     133                            .dwattr $C$DW$23, DW_AT_decl_column(0x06)
     134                    $C$DW$24        .dwtag  DW_TAG_formal_parameter
     135                            .dwattr $C$DW$24, DW_AT_type(*$C$DW$T$8)
     136                    
     137                            .dwendtag $C$DW$23
     138                    
     139                    
     140                    $C$DW$25        .dwtag  DW_TAG_subprogram
     141                            .dwattr $C$DW$25, DW_AT_name("sl_Accept")
     142                            .dwattr $C$DW$25, DW_AT_TI_symbol_name("sl_Accept")
     143                            .dwattr $C$DW$25, DW_AT_type(*$C$DW$T$8)
     144                            .dwattr $C$DW$25, DW_AT_declaration
     145                            .dwattr $C$DW$25, DW_AT_external
     146                            .dwattr $C$DW$25, DW_AT_decl_file("/vagrant/Q4_04/sdk_root/source/ti/drivers/net/wifi/sl_socke
     147                            .dwattr $C$DW$25, DW_AT_decl_line(0x22f)
     148                            .dwattr $C$DW$25, DW_AT_decl_column(0x06)
     149                    $C$DW$26        .dwtag  DW_TAG_formal_parameter
     150                            .dwattr $C$DW$26, DW_AT_type(*$C$DW$T$8)
     151                    
     152                    $C$DW$27        .dwtag  DW_TAG_formal_parameter
     153                            .dwattr $C$DW$27, DW_AT_type(*$C$DW$T$567)
     154                    
     155                    $C$DW$28        .dwtag  DW_TAG_formal_parameter
     156                            .dwattr $C$DW$28, DW_AT_type(*$C$DW$T$608)
     157                    
     158                            .dwendtag $C$DW$25
     159                    
     160                    
     161                    $C$DW$29        .dwtag  DW_TAG_subprogram
     162                            .dwattr $C$DW$29, DW_AT_name("sl_Bind")
     163                            .dwattr $C$DW$29, DW_AT_TI_symbol_name("sl_Bind")
     164                            .dwattr $C$DW$29, DW_AT_type(*$C$DW$T$8)
     165                            .dwattr $C$DW$29, DW_AT_declaration
TI ARM Assembler Unix v16.9.6 Thu Dec 28 17:45:45 2017

Tools Copyright (c) 1996-2017 Texas Instruments Incorporated
slnetifwifi.asm                                                      PAGE    4

     166                            .dwattr $C$DW$29, DW_AT_external
     167                            .dwattr $C$DW$29, DW_AT_decl_file("/vagrant/Q4_04/sdk_root/source/ti/drivers/net/wifi/sl_socke
     168                            .dwattr $C$DW$29, DW_AT_decl_line(0x24d)
     169                            .dwattr $C$DW$29, DW_AT_decl_column(0x06)
     170                    $C$DW$30        .dwtag  DW_TAG_formal_parameter
     171                            .dwattr $C$DW$30, DW_AT_type(*$C$DW$T$8)
     172                    
     173                    $C$DW$31        .dwtag  DW_TAG_formal_parameter
     174                            .dwattr $C$DW$31, DW_AT_type(*$C$DW$T$566)
     175                    
     176                    $C$DW$32        .dwtag  DW_TAG_formal_parameter
     177                            .dwattr $C$DW$32, DW_AT_type(*$C$DW$T$8)
     178                    
     179                            .dwendtag $C$DW$29
     180                    
     181                    
     182                    $C$DW$33        .dwtag  DW_TAG_subprogram
     183                            .dwattr $C$DW$33, DW_AT_name("sl_Listen")
     184                            .dwattr $C$DW$33, DW_AT_TI_symbol_name("sl_Listen")
     185                            .dwattr $C$DW$33, DW_AT_type(*$C$DW$T$8)
     186                            .dwattr $C$DW$33, DW_AT_declaration
     187                            .dwattr $C$DW$33, DW_AT_external
     188                            .dwattr $C$DW$33, DW_AT_decl_file("/vagrant/Q4_04/sdk_root/source/ti/drivers/net/wifi/sl_socke
     189                            .dwattr $C$DW$33, DW_AT_decl_line(0x264)
     190                            .dwattr $C$DW$33, DW_AT_decl_column(0x06)
     191                    $C$DW$34        .dwtag  DW_TAG_formal_parameter
     192                            .dwattr $C$DW$34, DW_AT_type(*$C$DW$T$8)
     193                    
     194                    $C$DW$35        .dwtag  DW_TAG_formal_parameter
     195                            .dwattr $C$DW$35, DW_AT_type(*$C$DW$T$8)
     196                    
     197                            .dwendtag $C$DW$33
     198                    
     199                    
     200                    $C$DW$36        .dwtag  DW_TAG_subprogram
     201                            .dwattr $C$DW$36, DW_AT_name("sl_Connect")
     202                            .dwattr $C$DW$36, DW_AT_TI_symbol_name("sl_Connect")
     203                            .dwattr $C$DW$36, DW_AT_type(*$C$DW$T$8)
     204                            .dwattr $C$DW$36, DW_AT_declaration
     205                            .dwattr $C$DW$36, DW_AT_external
     206                            .dwattr $C$DW$36, DW_AT_decl_file("/vagrant/Q4_04/sdk_root/source/ti/drivers/net/wifi/sl_socke
     207                            .dwattr $C$DW$36, DW_AT_decl_line(0x28e)
     208                            .dwattr $C$DW$36, DW_AT_decl_column(0x06)
     209                    $C$DW$37        .dwtag  DW_TAG_formal_parameter
     210                            .dwattr $C$DW$37, DW_AT_type(*$C$DW$T$8)
     211                    
     212                    $C$DW$38        .dwtag  DW_TAG_formal_parameter
     213                            .dwattr $C$DW$38, DW_AT_type(*$C$DW$T$566)
     214                    
     215                    $C$DW$39        .dwtag  DW_TAG_formal_parameter
     216                            .dwattr $C$DW$39, DW_AT_type(*$C$DW$T$8)
     217                    
     218                            .dwendtag $C$DW$36
     219                    
     220                    
TI ARM Assembler Unix v16.9.6 Thu Dec 28 17:45:45 2017

Tools Copyright (c) 1996-2017 Texas Instruments Incorporated
slnetifwifi.asm                                                      PAGE    5

     221                    $C$DW$40        .dwtag  DW_TAG_subprogram
     222                            .dwattr $C$DW$40, DW_AT_name("sl_Select")
     223                            .dwattr $C$DW$40, DW_AT_TI_symbol_name("sl_Select")
     224                            .dwattr $C$DW$40, DW_AT_type(*$C$DW$T$8)
     225                            .dwattr $C$DW$40, DW_AT_declaration
     226                            .dwattr $C$DW$40, DW_AT_external
     227                            .dwattr $C$DW$40, DW_AT_decl_file("/vagrant/Q4_04/sdk_root/source/ti/drivers/net/wifi/sl_socke
     228                            .dwattr $C$DW$40, DW_AT_decl_line(0x2cb)
     229                            .dwattr $C$DW$40, DW_AT_decl_column(0x06)
     230                    $C$DW$41        .dwtag  DW_TAG_formal_parameter
     231                            .dwattr $C$DW$41, DW_AT_type(*$C$DW$T$8)
     232                    
     233                    $C$DW$42        .dwtag  DW_TAG_formal_parameter
     234                            .dwattr $C$DW$42, DW_AT_type(*$C$DW$T$547)
     235                    
     236                    $C$DW$43        .dwtag  DW_TAG_formal_parameter
     237                            .dwattr $C$DW$43, DW_AT_type(*$C$DW$T$547)
     238                    
     239                    $C$DW$44        .dwtag  DW_TAG_formal_parameter
     240                            .dwattr $C$DW$44, DW_AT_type(*$C$DW$T$547)
     241                    
     242                    $C$DW$45        .dwtag  DW_TAG_formal_parameter
     243                            .dwattr $C$DW$45, DW_AT_type(*$C$DW$T$569)
     244                    
     245                            .dwendtag $C$DW$40
     246                    
     247                    
     248                    $C$DW$46        .dwtag  DW_TAG_subprogram
     249                            .dwattr $C$DW$46, DW_AT_name("sl_SetSockOpt")
     250                            .dwattr $C$DW$46, DW_AT_TI_symbol_name("sl_SetSockOpt")
     251                            .dwattr $C$DW$46, DW_AT_type(*$C$DW$T$8)
     252                            .dwattr $C$DW$46, DW_AT_declaration
     253                            .dwattr $C$DW$46, DW_AT_external
     254                            .dwattr $C$DW$46, DW_AT_decl_file("/vagrant/Q4_04/sdk_root/source/ti/drivers/net/wifi/sl_socke
     255                            .dwattr $C$DW$46, DW_AT_decl_line(0x477)
     256                            .dwattr $C$DW$46, DW_AT_decl_column(0x06)
     257                    $C$DW$47        .dwtag  DW_TAG_formal_parameter
     258                            .dwattr $C$DW$47, DW_AT_type(*$C$DW$T$8)
     259                    
     260                    $C$DW$48        .dwtag  DW_TAG_formal_parameter
     261                            .dwattr $C$DW$48, DW_AT_type(*$C$DW$T$8)
     262                    
     263                    $C$DW$49        .dwtag  DW_TAG_formal_parameter
     264                            .dwattr $C$DW$49, DW_AT_type(*$C$DW$T$8)
     265                    
     266                    $C$DW$50        .dwtag  DW_TAG_formal_parameter
     267                            .dwattr $C$DW$50, DW_AT_type(*$C$DW$T$323)
     268                    
     269                    $C$DW$51        .dwtag  DW_TAG_formal_parameter
     270                            .dwattr $C$DW$51, DW_AT_type(*$C$DW$T$607)
     271                    
     272                            .dwendtag $C$DW$46
     273                    
     274                    
     275                    $C$DW$52        .dwtag  DW_TAG_subprogram
TI ARM Assembler Unix v16.9.6 Thu Dec 28 17:45:45 2017

Tools Copyright (c) 1996-2017 Texas Instruments Incorporated
slnetifwifi.asm                                                      PAGE    6

     276                            .dwattr $C$DW$52, DW_AT_name("sl_GetSockOpt")
     277                            .dwattr $C$DW$52, DW_AT_TI_symbol_name("sl_GetSockOpt")
     278                            .dwattr $C$DW$52, DW_AT_type(*$C$DW$T$8)
     279                            .dwattr $C$DW$52, DW_AT_declaration
     280                            .dwattr $C$DW$52, DW_AT_external
     281                            .dwattr $C$DW$52, DW_AT_decl_file("/vagrant/Q4_04/sdk_root/source/ti/drivers/net/wifi/sl_socke
     282                            .dwattr $C$DW$52, DW_AT_decl_line(0x4a2)
     283                            .dwattr $C$DW$52, DW_AT_decl_column(0x06)
     284                    $C$DW$53        .dwtag  DW_TAG_formal_parameter
     285                            .dwattr $C$DW$53, DW_AT_type(*$C$DW$T$8)
     286                    
     287                    $C$DW$54        .dwtag  DW_TAG_formal_parameter
     288                            .dwattr $C$DW$54, DW_AT_type(*$C$DW$T$8)
     289                    
     290                    $C$DW$55        .dwtag  DW_TAG_formal_parameter
     291                            .dwattr $C$DW$55, DW_AT_type(*$C$DW$T$8)
     292                    
     293                    $C$DW$56        .dwtag  DW_TAG_formal_parameter
     294                            .dwattr $C$DW$56, DW_AT_type(*$C$DW$T$3)
     295                    
     296                    $C$DW$57        .dwtag  DW_TAG_formal_parameter
     297                            .dwattr $C$DW$57, DW_AT_type(*$C$DW$T$608)
     298                    
     299                            .dwendtag $C$DW$52
     300                    
     301                    
     302                    $C$DW$58        .dwtag  DW_TAG_subprogram
     303                            .dwattr $C$DW$58, DW_AT_name("sl_Recv")
     304                            .dwattr $C$DW$58, DW_AT_TI_symbol_name("sl_Recv")
     305                            .dwattr $C$DW$58, DW_AT_type(*$C$DW$T$8)
     306                            .dwattr $C$DW$58, DW_AT_declaration
     307                            .dwattr $C$DW$58, DW_AT_external
     308                            .dwattr $C$DW$58, DW_AT_decl_file("/vagrant/Q4_04/sdk_root/source/ti/drivers/net/wifi/sl_socke
     309                            .dwattr $C$DW$58, DW_AT_decl_line(0x4e8)
     310                            .dwattr $C$DW$58, DW_AT_decl_column(0x06)
     311                    $C$DW$59        .dwtag  DW_TAG_formal_parameter
     312                            .dwattr $C$DW$59, DW_AT_type(*$C$DW$T$8)
     313                    
     314                    $C$DW$60        .dwtag  DW_TAG_formal_parameter
     315                            .dwattr $C$DW$60, DW_AT_type(*$C$DW$T$3)
     316                    
     317                    $C$DW$61        .dwtag  DW_TAG_formal_parameter
     318                            .dwattr $C$DW$61, DW_AT_type(*$C$DW$T$8)
     319                    
     320                    $C$DW$62        .dwtag  DW_TAG_formal_parameter
     321                            .dwattr $C$DW$62, DW_AT_type(*$C$DW$T$8)
     322                    
     323                            .dwendtag $C$DW$58
     324                    
     325                    
     326                    $C$DW$63        .dwtag  DW_TAG_subprogram
     327                            .dwattr $C$DW$63, DW_AT_name("sl_RecvFrom")
     328                            .dwattr $C$DW$63, DW_AT_TI_symbol_name("sl_RecvFrom")
     329                            .dwattr $C$DW$63, DW_AT_type(*$C$DW$T$8)
     330                            .dwattr $C$DW$63, DW_AT_declaration
TI ARM Assembler Unix v16.9.6 Thu Dec 28 17:45:45 2017

Tools Copyright (c) 1996-2017 Texas Instruments Incorporated
slnetifwifi.asm                                                      PAGE    7

     331                            .dwattr $C$DW$63, DW_AT_external
     332                            .dwattr $C$DW$63, DW_AT_decl_file("/vagrant/Q4_04/sdk_root/source/ti/drivers/net/wifi/sl_socke
     333                            .dwattr $C$DW$63, DW_AT_decl_line(0x524)
     334                            .dwattr $C$DW$63, DW_AT_decl_column(0x06)
     335                    $C$DW$64        .dwtag  DW_TAG_formal_parameter
     336                            .dwattr $C$DW$64, DW_AT_type(*$C$DW$T$8)
     337                    
     338                    $C$DW$65        .dwtag  DW_TAG_formal_parameter
     339                            .dwattr $C$DW$65, DW_AT_type(*$C$DW$T$3)
     340                    
     341                    $C$DW$66        .dwtag  DW_TAG_formal_parameter
     342                            .dwattr $C$DW$66, DW_AT_type(*$C$DW$T$8)
     343                    
     344                    $C$DW$67        .dwtag  DW_TAG_formal_parameter
     345                            .dwattr $C$DW$67, DW_AT_type(*$C$DW$T$8)
     346                    
     347                    $C$DW$68        .dwtag  DW_TAG_formal_parameter
     348                            .dwattr $C$DW$68, DW_AT_type(*$C$DW$T$567)
     349                    
     350                    $C$DW$69        .dwtag  DW_TAG_formal_parameter
     351                            .dwattr $C$DW$69, DW_AT_type(*$C$DW$T$608)
     352                    
     353                            .dwendtag $C$DW$63
     354                    
     355                    
     356                    $C$DW$70        .dwtag  DW_TAG_subprogram
     357                            .dwattr $C$DW$70, DW_AT_name("sl_Send")
     358                            .dwattr $C$DW$70, DW_AT_TI_symbol_name("sl_Send")
     359                            .dwattr $C$DW$70, DW_AT_type(*$C$DW$T$8)
     360                            .dwattr $C$DW$70, DW_AT_declaration
     361                            .dwattr $C$DW$70, DW_AT_external
     362                            .dwattr $C$DW$70, DW_AT_decl_file("/vagrant/Q4_04/sdk_root/source/ti/drivers/net/wifi/sl_socke
     363                            .dwattr $C$DW$70, DW_AT_decl_line(0x555)
     364                            .dwattr $C$DW$70, DW_AT_decl_column(0x06)
     365                    $C$DW$71        .dwtag  DW_TAG_formal_parameter
     366                            .dwattr $C$DW$71, DW_AT_type(*$C$DW$T$8)
     367                    
     368                    $C$DW$72        .dwtag  DW_TAG_formal_parameter
     369                            .dwattr $C$DW$72, DW_AT_type(*$C$DW$T$323)
     370                    
     371                    $C$DW$73        .dwtag  DW_TAG_formal_parameter
     372                            .dwattr $C$DW$73, DW_AT_type(*$C$DW$T$8)
     373                    
     374                    $C$DW$74        .dwtag  DW_TAG_formal_parameter
     375                            .dwattr $C$DW$74, DW_AT_type(*$C$DW$T$8)
     376                    
     377                            .dwendtag $C$DW$70
     378                    
     379                    
     380                    $C$DW$75        .dwtag  DW_TAG_subprogram
     381                            .dwattr $C$DW$75, DW_AT_name("sl_SendTo")
     382                            .dwattr $C$DW$75, DW_AT_TI_symbol_name("sl_SendTo")
     383                            .dwattr $C$DW$75, DW_AT_type(*$C$DW$T$8)
     384                            .dwattr $C$DW$75, DW_AT_declaration
     385                            .dwattr $C$DW$75, DW_AT_external
TI ARM Assembler Unix v16.9.6 Thu Dec 28 17:45:45 2017

Tools Copyright (c) 1996-2017 Texas Instruments Incorporated
slnetifwifi.asm                                                      PAGE    8

     386                            .dwattr $C$DW$75, DW_AT_decl_file("/vagrant/Q4_04/sdk_root/source/ti/drivers/net/wifi/sl_socke
     387                            .dwattr $C$DW$75, DW_AT_decl_line(0x58a)
     388                            .dwattr $C$DW$75, DW_AT_decl_column(0x06)
     389                    $C$DW$76        .dwtag  DW_TAG_formal_parameter
     390                            .dwattr $C$DW$76, DW_AT_type(*$C$DW$T$8)
     391                    
     392                    $C$DW$77        .dwtag  DW_TAG_formal_parameter
     393                            .dwattr $C$DW$77, DW_AT_type(*$C$DW$T$323)
     394                    
     395                    $C$DW$78        .dwtag  DW_TAG_formal_parameter
     396                            .dwattr $C$DW$78, DW_AT_type(*$C$DW$T$8)
     397                    
     398                    $C$DW$79        .dwtag  DW_TAG_formal_parameter
     399                            .dwattr $C$DW$79, DW_AT_type(*$C$DW$T$8)
     400                    
     401                    $C$DW$80        .dwtag  DW_TAG_formal_parameter
     402                            .dwattr $C$DW$80, DW_AT_type(*$C$DW$T$566)
     403                    
     404                    $C$DW$81        .dwtag  DW_TAG_formal_parameter
     405                            .dwattr $C$DW$81, DW_AT_type(*$C$DW$T$607)
     406                    
     407                            .dwendtag $C$DW$75
     408                    
     409                    
     410                    $C$DW$82        .dwtag  DW_TAG_subprogram
     411                            .dwattr $C$DW$82, DW_AT_name("sl_StartTLS")
     412                            .dwattr $C$DW$82, DW_AT_TI_symbol_name("sl_StartTLS")
     413                            .dwattr $C$DW$82, DW_AT_type(*$C$DW$T$8)
     414                            .dwattr $C$DW$82, DW_AT_declaration
     415                            .dwattr $C$DW$82, DW_AT_external
     416                            .dwattr $C$DW$82, DW_AT_decl_file("/vagrant/Q4_04/sdk_root/source/ti/drivers/net/wifi/sl_socke
     417                            .dwattr $C$DW$82, DW_AT_decl_line(0x59d)
     418                            .dwattr $C$DW$82, DW_AT_decl_column(0x06)
     419                    $C$DW$83        .dwtag  DW_TAG_formal_parameter
     420                            .dwattr $C$DW$83, DW_AT_type(*$C$DW$T$8)
     421                    
     422                            .dwendtag $C$DW$82
     423                    
     424                    
     425                    $C$DW$84        .dwtag  DW_TAG_subprogram
     426                            .dwattr $C$DW$84, DW_AT_name("sl_NetAppDnsGetHostByName")
     427                            .dwattr $C$DW$84, DW_AT_TI_symbol_name("sl_NetAppDnsGetHostByName")
     428                            .dwattr $C$DW$84, DW_AT_type(*$C$DW$T$8)
     429                            .dwattr $C$DW$84, DW_AT_declaration
     430                            .dwattr $C$DW$84, DW_AT_external
     431                            .dwattr $C$DW$84, DW_AT_decl_file("/vagrant/Q4_04/sdk_root/source/ti/drivers/net/wifi/netapp.h
     432                            .dwattr $C$DW$84, DW_AT_decl_line(0x29a)
     433                            .dwattr $C$DW$84, DW_AT_decl_column(0x06)
     434                    $C$DW$85        .dwtag  DW_TAG_formal_parameter
     435                            .dwattr $C$DW$85, DW_AT_type(*$C$DW$T$130)
     436                    
     437                    $C$DW$86        .dwtag  DW_TAG_formal_parameter
     438                            .dwattr $C$DW$86, DW_AT_type(*$C$DW$T$629)
     439                    
     440                    $C$DW$87        .dwtag  DW_TAG_formal_parameter
TI ARM Assembler Unix v16.9.6 Thu Dec 28 17:45:45 2017

Tools Copyright (c) 1996-2017 Texas Instruments Incorporated
slnetifwifi.asm                                                      PAGE    9

     441                            .dwattr $C$DW$87, DW_AT_type(*$C$DW$T$630)
     442                    
     443                    $C$DW$88        .dwtag  DW_TAG_formal_parameter
     444                            .dwattr $C$DW$88, DW_AT_type(*$C$DW$T$591)
     445                    
     446                            .dwendtag $C$DW$84
     447                    
     448                    
     449                    $C$DW$89        .dwtag  DW_TAG_subprogram
     450                            .dwattr $C$DW$89, DW_AT_name("sl_WlanGet")
     451                            .dwattr $C$DW$89, DW_AT_TI_symbol_name("sl_WlanGet")
     452                            .dwattr $C$DW$89, DW_AT_type(*$C$DW$T$8)
     453                            .dwattr $C$DW$89, DW_AT_declaration
     454                            .dwattr $C$DW$89, DW_AT_external
     455                            .dwattr $C$DW$89, DW_AT_decl_file("/vagrant/Q4_04/sdk_root/source/ti/drivers/net/wifi/wlan.h")
     456                            .dwattr $C$DW$89, DW_AT_decl_line(0x8a2)
     457                            .dwattr $C$DW$89, DW_AT_decl_column(0x06)
     458                    $C$DW$90        .dwtag  DW_TAG_formal_parameter
     459                            .dwattr $C$DW$90, DW_AT_type(*$C$DW$T$629)
     460                    
     461                    $C$DW$91        .dwtag  DW_TAG_formal_parameter
     462                            .dwattr $C$DW$91, DW_AT_type(*$C$DW$T$633)
     463                    
     464                    $C$DW$92        .dwtag  DW_TAG_formal_parameter
     465                            .dwattr $C$DW$92, DW_AT_type(*$C$DW$T$633)
     466                    
     467                    $C$DW$93        .dwtag  DW_TAG_formal_parameter
     468                            .dwattr $C$DW$93, DW_AT_type(*$C$DW$T$84)
     469                    
     470                            .dwendtag $C$DW$89
     471                    
     472                    
     473                    $C$DW$94        .dwtag  DW_TAG_subprogram
     474                            .dwattr $C$DW$94, DW_AT_name("sl_NetCfgGet")
     475                            .dwattr $C$DW$94, DW_AT_TI_symbol_name("sl_NetCfgGet")
     476                            .dwattr $C$DW$94, DW_AT_type(*$C$DW$T$8)
     477                            .dwattr $C$DW$94, DW_AT_declaration
     478                            .dwattr $C$DW$94, DW_AT_external
     479                            .dwattr $C$DW$94, DW_AT_decl_file("/vagrant/Q4_04/sdk_root/source/ti/drivers/net/wifi/netcfg.h
     480                            .dwattr $C$DW$94, DW_AT_decl_line(0x283)
     481                            .dwattr $C$DW$94, DW_AT_decl_column(0x06)
     482                    $C$DW$95        .dwtag  DW_TAG_formal_parameter
     483                            .dwattr $C$DW$95, DW_AT_type(*$C$DW$T$629)
     484                    
     485                    $C$DW$96        .dwtag  DW_TAG_formal_parameter
     486                            .dwattr $C$DW$96, DW_AT_type(*$C$DW$T$633)
     487                    
     488                    $C$DW$97        .dwtag  DW_TAG_formal_parameter
     489                            .dwattr $C$DW$97, DW_AT_type(*$C$DW$T$633)
     490                    
     491                    $C$DW$98        .dwtag  DW_TAG_formal_parameter
     492                            .dwattr $C$DW$98, DW_AT_type(*$C$DW$T$84)
     493                    
     494                            .dwendtag $C$DW$94
     495                    
TI ARM Assembler Unix v16.9.6 Thu Dec 28 17:45:45 2017

Tools Copyright (c) 1996-2017 Texas Instruments Incorporated
slnetifwifi.asm                                                      PAGE   10

     496                            .global SlNetIfConfigWifi
     497 00000000                   .sect   ".data:SlNetIfConfigWifi", RW
     498                            .clink
     499                            .align  4
     500                            .elfsym SlNetIfConfigWifi,SYM_SIZE(88)
     501 00000000           SlNetIfConfigWifi:
     502 00000000 00000000!         .bits   SlNetIfWifi_socket,32           ; SlNetIfConfigWifi.sockCreate @ 0
     503 00000004 00000000!         .bits   SlNetIfWifi_close,32            ; SlNetIfConfigWifi.sockClose @ 32
     504 00000008 00000000          .bits   0,32                    ; SlNetIfConfigWifi.sockShutdown @ 64
     505 0000000c 00000000!         .bits   SlNetIfWifi_accept,32           ; SlNetIfConfigWifi.sockAccept @ 96
     506 00000010 00000000!         .bits   SlNetIfWifi_bind,32             ; SlNetIfConfigWifi.sockBind @ 128
     507 00000014 00000000!         .bits   SlNetIfWifi_listen,32           ; SlNetIfConfigWifi.sockListen @ 160
     508 00000018 00000000!         .bits   SlNetIfWifi_connect,32          ; SlNetIfConfigWifi.sockConnect @ 192
     509 0000001c 00000000          .bits   0,32                    ; SlNetIfConfigWifi.sockGetPeerName @ 224
     510 00000020 00000000          .bits   0,32                    ; SlNetIfConfigWifi.sockGetLocalName @ 256
     511 00000024 00000000!         .bits   SlNetIfWifi_select,32           ; SlNetIfConfigWifi.sockSelect @ 288
     512 00000028 00000000!         .bits   SlNetIfWifi_setSockOpt,32               ; SlNetIfConfigWifi.sockSetOpt @ 320
     513 0000002c 00000000!         .bits   SlNetIfWifi_getSockOpt,32               ; SlNetIfConfigWifi.sockGetOpt @ 352
     514 00000030 00000000!         .bits   SlNetIfWifi_recv,32             ; SlNetIfConfigWifi.sockRecv @ 384
     515 00000034 00000000!         .bits   SlNetIfWifi_recvFrom,32         ; SlNetIfConfigWifi.sockRecvFrom @ 416
     516 00000038 00000000!         .bits   SlNetIfWifi_send,32             ; SlNetIfConfigWifi.sockSend @ 448
     517 0000003c 00000000!         .bits   SlNetIfWifi_sendTo,32           ; SlNetIfConfigWifi.sockSendTo @ 480
     518 00000040 00000000!         .bits   SlNetIfWifi_sockstartSec,32             ; SlNetIfConfigWifi.sockstartSec @ 512
     519 00000044 00000000!         .bits   SlNetIfWifi_getHostByName,32            ; SlNetIfConfigWifi.utilGetHostByName @ 544
     520 00000048 00000000!         .bits   SlNetIfWifi_getIPAddr,32                ; SlNetIfConfigWifi.ifGetIPAddr @ 576
     521 0000004c 00000000!         .bits   SlNetIfWifi_getConnectionStatus,32              ; SlNetIfConfigWifi.ifGetConnectionSta
     522 00000050 00000000!         .bits   SlNetIfWifi_loadSecObj,32               ; SlNetIfConfigWifi.ifLoadSecObj @ 640
     523 00000054 00000000          .bits   0,32                    ; SlNetIfConfigWifi.ifCreateContext @ 672
     524                    
     525                    $C$DW$99        .dwtag  DW_TAG_variable
     526                            .dwattr $C$DW$99, DW_AT_name("SlNetIfConfigWifi")
     527                            .dwattr $C$DW$99, DW_AT_TI_symbol_name("SlNetIfConfigWifi")
     528                            .dwattr $C$DW$99, DW_AT_location[DW_OP_addr SlNetIfConfigWifi]
     529                            .dwattr $C$DW$99, DW_AT_type(*$C$DW$T$355)
     530                            .dwattr $C$DW$99, DW_AT_external
     531                            .dwattr $C$DW$99, DW_AT_decl_file("/vagrant/Q4_04/sdk_root/source/ti/drivers/net/wifi/slnetif/
     532                            .dwattr $C$DW$99, DW_AT_decl_line(0x40)
     533                            .dwattr $C$DW$99, DW_AT_decl_column(0x12)
     534                    
     535 00000000                   .sect   ".const:StartSecOptName"
     536                            .clink
     537                            .align  2
     538                            .elfsym StartSecOptName,SYM_SIZE(20)
     539 00000000           StartSecOptName:
     540 00000000 0000001E          .bits   30,16                   ; StartSecOptName[0] @ 0
     541 00000000 001F001E          .bits   31,16                   ; StartSecOptName[1] @ 16
     542 00000004 00000020          .bits   32,16                   ; StartSecOptName[2] @ 32
     543 00000004 00210020          .bits   33,16                   ; StartSecOptName[3] @ 48
     544 00000008 00000019          .bits   25,16                   ; StartSecOptName[4] @ 64
     545 00000008 001A0019          .bits   26,16                   ; StartSecOptName[5] @ 80
     546 0000000c 00000028          .bits   40,16                   ; StartSecOptName[6] @ 96
     547 0000000c 00290028          .bits   41,16                   ; StartSecOptName[7] @ 112
     548 00000010 0000002A          .bits   42,16                   ; StartSecOptName[8] @ 128
     549 00000010 0026002A          .bits   38,16                   ; StartSecOptName[9] @ 144
     550                    
TI ARM Assembler Unix v16.9.6 Thu Dec 28 17:45:45 2017

Tools Copyright (c) 1996-2017 Texas Instruments Incorporated
slnetifwifi.asm                                                      PAGE   11

     551                    $C$DW$100       .dwtag  DW_TAG_variable
     552                            .dwattr $C$DW$100, DW_AT_name("StartSecOptName")
     553                            .dwattr $C$DW$100, DW_AT_TI_symbol_name("StartSecOptName")
     554                            .dwattr $C$DW$100, DW_AT_type(*$C$DW$T$637)
     555                            .dwattr $C$DW$100, DW_AT_location[DW_OP_addr StartSecOptName]
     556                            .dwattr $C$DW$100, DW_AT_decl_file("/vagrant/Q4_04/sdk_root/source/ti/drivers/net/wifi/slnetif
     557                            .dwattr $C$DW$100, DW_AT_decl_line(0x5a)
     558                            .dwattr $C$DW$100, DW_AT_decl_column(0x16)
     559                    
     560 00000000                   .sect   ".const:socketType"
     561                            .clink
     562                            .align  2
     563                            .elfsym socketType,SYM_SIZE(16)
     564 00000000           socketType:
     565 00000000 00000001          .bits   1,16                    ; socketType[0] @ 0
     566 00000000 00020001          .bits   2,16                    ; socketType[1] @ 16
     567 00000004 00000003          .bits   3,16                    ; socketType[2] @ 32
     568 00000004 00040003          .bits   4,16                    ; socketType[3] @ 48
     569 00000008 00000002          .bits   2,16                    ; socketType[4] @ 64
     570 00000008 00030002          .bits   3,16                    ; socketType[5] @ 80
     571 0000000c 00000007          .bits   7,16                    ; socketType[6] @ 96
     572 0000000c 00080007          .bits   8,16                    ; socketType[7] @ 112
     573                    
     574                    $C$DW$101       .dwtag  DW_TAG_variable
     575                            .dwattr $C$DW$101, DW_AT_name("socketType")
     576                            .dwattr $C$DW$101, DW_AT_TI_symbol_name("socketType")
     577                            .dwattr $C$DW$101, DW_AT_type(*$C$DW$T$638)
     578                            .dwattr $C$DW$101, DW_AT_location[DW_OP_addr socketType]
     579                            .dwattr $C$DW$101, DW_AT_decl_file("/vagrant/Q4_04/sdk_root/source/ti/drivers/net/wifi/slnetif
     580                            .dwattr $C$DW$101, DW_AT_decl_line(0x68)
     581                            .dwattr $C$DW$101, DW_AT_decl_column(0x16)
     582                    
     583                    ;       /opt/ti/ccs-latest/ccsv7/tools/compiler/ti-cgt-arm_16.9.6.LTS/bin/armacpia -@/tmp/TI7JczJdM7L 
     584 00000000                   .sect   ".text:SlNetIfWifi_socket"
     585                            .clink
     586                            .thumbfunc SlNetIfWifi_socket
     587 00000000                   .thumb
     588                            .global SlNetIfWifi_socket
     589                    
     590                    $C$DW$102       .dwtag  DW_TAG_subprogram
     591                            .dwattr $C$DW$102, DW_AT_name("SlNetIfWifi_socket")
     592                            .dwattr $C$DW$102, DW_AT_low_pc(SlNetIfWifi_socket)
     593                            .dwattr $C$DW$102, DW_AT_high_pc(0x00)
     594                            .dwattr $C$DW$102, DW_AT_TI_symbol_name("SlNetIfWifi_socket")
     595                            .dwattr $C$DW$102, DW_AT_external
     596                            .dwattr $C$DW$102, DW_AT_type(*$C$DW$T$285)
     597                            .dwattr $C$DW$102, DW_AT_TI_begin_file("/vagrant/Q4_04/sdk_root/source/ti/drivers/net/wifi/sln
     598                            .dwattr $C$DW$102, DW_AT_TI_begin_line(0x7d)
     599                            .dwattr $C$DW$102, DW_AT_TI_begin_column(0x09)
     600                            .dwattr $C$DW$102, DW_AT_decl_file("/vagrant/Q4_04/sdk_root/source/ti/drivers/net/wifi/slnetif
     601                            .dwattr $C$DW$102, DW_AT_decl_line(0x7d)
     602                            .dwattr $C$DW$102, DW_AT_decl_column(0x09)
     603                            .dwattr $C$DW$102, DW_AT_TI_max_frame_size(0x10)
     604                            .dwpsn  file "/vagrant/Q4_04/sdk_root/source/ti/drivers/net/wifi/slnetif/slnetifwifi.c",line 1
     605                    
TI ARM Assembler Unix v16.9.6 Thu Dec 28 17:45:45 2017

Tools Copyright (c) 1996-2017 Texas Instruments Incorporated
slnetifwifi.asm                                                      PAGE   12

     606                            .dwfde $C$DW$CIE, SlNetIfWifi_socket
     607                    $C$DW$103       .dwtag  DW_TAG_formal_parameter
     608                            .dwattr $C$DW$103, DW_AT_name("ifContext")
     609                            .dwattr $C$DW$103, DW_AT_TI_symbol_name("ifContext")
     610                            .dwattr $C$DW$103, DW_AT_type(*$C$DW$T$3)
     611                            .dwattr $C$DW$103, DW_AT_location[DW_OP_reg0]
     612                    
     613                    $C$DW$104       .dwtag  DW_TAG_formal_parameter
     614                            .dwattr $C$DW$104, DW_AT_name("Domain")
     615                            .dwattr $C$DW$104, DW_AT_TI_symbol_name("Domain")
     616                            .dwattr $C$DW$104, DW_AT_type(*$C$DW$T$285)
     617                            .dwattr $C$DW$104, DW_AT_location[DW_OP_reg1]
     618                    
     619                    $C$DW$105       .dwtag  DW_TAG_formal_parameter
     620                            .dwattr $C$DW$105, DW_AT_name("Type")
     621                            .dwattr $C$DW$105, DW_AT_TI_symbol_name("Type")
     622                            .dwattr $C$DW$105, DW_AT_type(*$C$DW$T$285)
     623                            .dwattr $C$DW$105, DW_AT_location[DW_OP_reg2]
     624                    
     625                    $C$DW$106       .dwtag  DW_TAG_formal_parameter
     626                            .dwattr $C$DW$106, DW_AT_name("Protocol")
     627                            .dwattr $C$DW$106, DW_AT_TI_symbol_name("Protocol")
     628                            .dwattr $C$DW$106, DW_AT_type(*$C$DW$T$285)
     629                            .dwattr $C$DW$106, DW_AT_location[DW_OP_reg3]
     630                    
     631                    $C$DW$107       .dwtag  DW_TAG_formal_parameter
     632                            .dwattr $C$DW$107, DW_AT_name("sdContext")
     633                            .dwattr $C$DW$107, DW_AT_TI_symbol_name("sdContext")
     634                            .dwattr $C$DW$107, DW_AT_type(*$C$DW$T$286)
     635                            .dwattr $C$DW$107, DW_AT_location[DW_OP_breg13 16]
     636                    
     637                    ;----------------------------------------------------------------------
     638                    ; 125 | int16_t SlNetIfWifi_socket(void *ifContext, int16_t Domain, int16_t Typ
     639                    ;     | e, int16_t Protocol, void **sdContext)                                 
     640                    ;----------------------------------------------------------------------
     641                    
     642                    ;*****************************************************************************
     643                    ;* FUNCTION NAME: SlNetIfWifi_socket                                         *
     644                    ;*                                                                           *
     645                    ;*   Regs Modified     : A1,A2,A3,A4,V9,SP,LR,SR                             *
     646                    ;*   Regs Used         : A1,A2,A3,A4,V9,SP,LR,SR                             *
     647                    ;*   Local Frame Size  : 0 Args + 12 Auto + 4 Save = 16 byte                 *
     648                    ;*****************************************************************************
     649 00000000           SlNetIfWifi_socket:
     650                    ;* --------------------------------------------------------------------------*
     651                            .dwcfi  cfa_offset, 0
     652 00000000 B50E              PUSH      {A2, A3, A4, LR}      ; [DPU_3_PIPE]  ; [ORIG 16-BIT INS]
     653                            .dwcfi  cfa_offset, 16
     654                            .dwcfi  save_reg_to_mem, 14, -4
     655                            .dwcfi  save_reg_to_mem, 3, -8
     656                            .dwcfi  save_reg_to_mem, 2, -12
     657                            .dwcfi  save_reg_to_mem, 1, -16
     658                    $C$DW$108       .dwtag  DW_TAG_variable
     659                            .dwattr $C$DW$108, DW_AT_name("ifContext")
     660                            .dwattr $C$DW$108, DW_AT_TI_symbol_name("ifContext")
TI ARM Assembler Unix v16.9.6 Thu Dec 28 17:45:45 2017

Tools Copyright (c) 1996-2017 Texas Instruments Incorporated
slnetifwifi.asm                                                      PAGE   13

     661                            .dwattr $C$DW$108, DW_AT_type(*$C$DW$T$3)
     662                            .dwattr $C$DW$108, DW_AT_location[DW_OP_breg13 0]
     663                    
     664                    $C$DW$109       .dwtag  DW_TAG_variable
     665                            .dwattr $C$DW$109, DW_AT_name("Domain")
     666                            .dwattr $C$DW$109, DW_AT_TI_symbol_name("Domain")
     667                            .dwattr $C$DW$109, DW_AT_type(*$C$DW$T$285)
     668                            .dwattr $C$DW$109, DW_AT_location[DW_OP_breg13 4]
     669                    
     670                    $C$DW$110       .dwtag  DW_TAG_variable
     671                            .dwattr $C$DW$110, DW_AT_name("Type")
     672                            .dwattr $C$DW$110, DW_AT_TI_symbol_name("Type")
     673                            .dwattr $C$DW$110, DW_AT_type(*$C$DW$T$285)
     674                            .dwattr $C$DW$110, DW_AT_location[DW_OP_breg13 6]
     675                    
     676                    $C$DW$111       .dwtag  DW_TAG_variable
     677                            .dwattr $C$DW$111, DW_AT_name("Protocol")
     678                            .dwattr $C$DW$111, DW_AT_TI_symbol_name("Protocol")
     679                            .dwattr $C$DW$111, DW_AT_type(*$C$DW$T$285)
     680                            .dwattr $C$DW$111, DW_AT_location[DW_OP_breg13 8]
     681                    
     682                    $C$DW$112       .dwtag  DW_TAG_variable
     683                            .dwattr $C$DW$112, DW_AT_name("mappedSocketType")
     684                            .dwattr $C$DW$112, DW_AT_TI_symbol_name("mappedSocketType")
     685                            .dwattr $C$DW$112, DW_AT_type(*$C$DW$T$285)
     686                            .dwattr $C$DW$112, DW_AT_location[DW_OP_breg13 10]
     687                    
     688 00000002 3008F8AD          STRH      A4, [SP, #8]          ; [DPU_3_PIPE] |126|  ; [KEEP 32-BIT INS]
     689 00000006 2006F8AD          STRH      A3, [SP, #6]          ; [DPU_3_PIPE] |126|  ; [KEEP 32-BIT INS]
     690 0000000a 1004F8AD          STRH      A2, [SP, #4]          ; [DPU_3_PIPE] |126|  ; [KEEP 32-BIT INS]
     691 0000000e 9000              STR       A1, [SP, #0]          ; [DPU_3_PIPE] |126|  ; [ORIG 16-BIT INS]
     692                            .dwpsn  file "/vagrant/Q4_04/sdk_root/source/ti/drivers/net/wifi/slnetif/slnetifwifi.c",line 1
     693                    ;----------------------------------------------------------------------
     694                    ; 128 | int16_t mappedSocketType = socketType[Type - 1];                       
     695                    ;----------------------------------------------------------------------
     696 00000010 4908              LDR       A2, $C$CON1           ; [DPU_3_PIPE] |128|  ; [ORIG 16-BIT INS]
     697 00000012 0006F9BD          LDRSH     A1, [SP, #6]          ; [DPU_3_PIPE] |128|  ; [KEEP 32-BIT INS]
     698 00000016 0040              LSLS      A1, A1, #1            ; [DPU_3_PIPE] |128|  ; [ORIG 16-BIT INS]
     699 00000018 1E80              SUBS      A1, A1, #2            ; [DPU_3_PIPE] |128|  ; [ORIG 16-BIT INS]
     700 0000001a 5A08              LDRH      A1, [A2, +A1]         ; [DPU_3_PIPE] |128|  ; [ORIG 16-BIT INS]
     701 0000001c 000AF8AD          STRH      A1, [SP, #10]         ; [DPU_3_PIPE] |128|  ; [KEEP 32-BIT INS]
     702                            .dwpsn  file "/vagrant/Q4_04/sdk_root/source/ti/drivers/net/wifi/slnetif/slnetifwifi.c",line 1
     703                    ;----------------------------------------------------------------------
     704                    ; 129 | return (sl_Socket(Domain, mappedSocketType, Protocol));                
     705                    ;----------------------------------------------------------------------
     706 00000020 2008F9BD          LDRSH     A3, [SP, #8]          ; [DPU_3_PIPE] |129|  ; [KEEP 32-BIT INS]
     707 00000024 0004F9BD          LDRSH     A1, [SP, #4]          ; [DPU_3_PIPE] |129|  ; [KEEP 32-BIT INS]
     708 00000028 100AF9BD          LDRSH     A2, [SP, #10]         ; [DPU_3_PIPE] |129|  ; [KEEP 32-BIT INS]
     709                    $C$DW$113       .dwtag  DW_TAG_TI_branch
     710                            .dwattr $C$DW$113, DW_AT_low_pc(0x00)
     711                            .dwattr $C$DW$113, DW_AT_name("sl_Socket")
     712                            .dwattr $C$DW$113, DW_AT_TI_call
     713                    
     714 0000002c FFFEF7FF!         BL        sl_Socket             ; [DPU_3_PIPE] |129|  ; [KEEP 32-BIT INS]
     715                            ; CALL OCCURS {sl_Socket }       ; [] |129| 
TI ARM Assembler Unix v16.9.6 Thu Dec 28 17:45:45 2017

Tools Copyright (c) 1996-2017 Texas Instruments Incorporated
slnetifwifi.asm                                                      PAGE   14

     716                            .dwpsn  file "/vagrant/Q4_04/sdk_root/source/ti/drivers/net/wifi/slnetif/slnetifwifi.c",line 1
     717                    $C$DW$114       .dwtag  DW_TAG_TI_branch
     718                            .dwattr $C$DW$114, DW_AT_low_pc(0x00)
     719                            .dwattr $C$DW$114, DW_AT_TI_return
     720                    
     721 00000030 BD0E              POP       {A2, A3, A4, PC}      ; [DPU_3_PIPE]  ; [ORIG 16-BIT INS]
     722                            .dwcfi  cfa_offset, 0
     723                            .dwcfi  restore_reg, 3
     724                            .dwcfi  restore_reg, 2
     725                            .dwcfi  restore_reg, 1
     726                            ; BRANCH OCCURS                  ; [] 
     727                            .dwattr $C$DW$102, DW_AT_TI_end_file("/vagrant/Q4_04/sdk_root/source/ti/drivers/net/wifi/slnet
     728                            .dwattr $C$DW$102, DW_AT_TI_end_line(0x82)
     729                            .dwattr $C$DW$102, DW_AT_TI_end_column(0x01)
     730                            .dwendentry
     731                            .dwendtag $C$DW$102
     732                    
     733 00000000                   .sect   ".text:SlNetIfWifi_close"
     734                            .clink
     735                            .thumbfunc SlNetIfWifi_close
     736 00000000                   .thumb
     737                            .global SlNetIfWifi_close
     738                    
     739                    $C$DW$115       .dwtag  DW_TAG_subprogram
     740                            .dwattr $C$DW$115, DW_AT_name("SlNetIfWifi_close")
     741                            .dwattr $C$DW$115, DW_AT_low_pc(SlNetIfWifi_close)
     742                            .dwattr $C$DW$115, DW_AT_high_pc(0x00)
     743                            .dwattr $C$DW$115, DW_AT_TI_symbol_name("SlNetIfWifi_close")
     744                            .dwattr $C$DW$115, DW_AT_external
     745                            .dwattr $C$DW$115, DW_AT_type(*$C$DW$T$289)
     746                            .dwattr $C$DW$115, DW_AT_TI_begin_file("/vagrant/Q4_04/sdk_root/source/ti/drivers/net/wifi/sln
     747                            .dwattr $C$DW$115, DW_AT_TI_begin_line(0x8a)
     748                            .dwattr $C$DW$115, DW_AT_TI_begin_column(0x09)
     749                            .dwattr $C$DW$115, DW_AT_decl_file("/vagrant/Q4_04/sdk_root/source/ti/drivers/net/wifi/slnetif
     750                            .dwattr $C$DW$115, DW_AT_decl_line(0x8a)
     751                            .dwattr $C$DW$115, DW_AT_decl_column(0x09)
     752                            .dwattr $C$DW$115, DW_AT_TI_max_frame_size(0x10)
     753                            .dwpsn  file "/vagrant/Q4_04/sdk_root/source/ti/drivers/net/wifi/slnetif/slnetifwifi.c",line 1
     754                    
     755                            .dwfde $C$DW$CIE, SlNetIfWifi_close
     756                    $C$DW$116       .dwtag  DW_TAG_formal_parameter
     757                            .dwattr $C$DW$116, DW_AT_name("sd")
     758                            .dwattr $C$DW$116, DW_AT_TI_symbol_name("sd")
     759                            .dwattr $C$DW$116, DW_AT_type(*$C$DW$T$285)
     760                            .dwattr $C$DW$116, DW_AT_location[DW_OP_reg0]
     761                    
     762                    $C$DW$117       .dwtag  DW_TAG_formal_parameter
     763                            .dwattr $C$DW$117, DW_AT_name("sdContext")
     764                            .dwattr $C$DW$117, DW_AT_TI_symbol_name("sdContext")
     765                            .dwattr $C$DW$117, DW_AT_type(*$C$DW$T$3)
     766                            .dwattr $C$DW$117, DW_AT_location[DW_OP_reg1]
     767                    
     768                    ;----------------------------------------------------------------------
     769                    ; 138 | int32_t SlNetIfWifi_close(int16_t sd, void *sdContext)                 
     770                    ;----------------------------------------------------------------------
TI ARM Assembler Unix v16.9.6 Thu Dec 28 17:45:45 2017

Tools Copyright (c) 1996-2017 Texas Instruments Incorporated
slnetifwifi.asm                                                      PAGE   15

     771                    
     772                    ;*****************************************************************************
     773                    ;* FUNCTION NAME: SlNetIfWifi_close                                          *
     774                    ;*                                                                           *
     775                    ;*   Regs Modified     : A1,A2,A3,A4,V9,SP,LR,SR                             *
     776                    ;*   Regs Used         : A1,A2,A3,A4,V9,SP,LR,SR                             *
     777                    ;*   Local Frame Size  : 0 Args + 8 Auto + 4 Save = 12 byte                  *
     778                    ;*****************************************************************************
     779 00000000           SlNetIfWifi_close:
     780                    ;* --------------------------------------------------------------------------*
     781                            .dwcfi  cfa_offset, 0
     782 00000000 B50E              PUSH      {A2, A3, A4, LR}      ; [DPU_3_PIPE]  ; [ORIG 16-BIT INS]
     783                            .dwcfi  cfa_offset, 16
     784                            .dwcfi  save_reg_to_mem, 14, -4
     785                            .dwcfi  save_reg_to_mem, 3, -8
     786                            .dwcfi  save_reg_to_mem, 2, -12
     787                            .dwcfi  save_reg_to_mem, 1, -16
     788                    $C$DW$118       .dwtag  DW_TAG_variable
     789                            .dwattr $C$DW$118, DW_AT_name("sdContext")
     790                            .dwattr $C$DW$118, DW_AT_TI_symbol_name("sdContext")
     791                            .dwattr $C$DW$118, DW_AT_type(*$C$DW$T$3)
     792                            .dwattr $C$DW$118, DW_AT_location[DW_OP_breg13 0]
     793                    
     794                    $C$DW$119       .dwtag  DW_TAG_variable
     795                            .dwattr $C$DW$119, DW_AT_name("sd")
     796                            .dwattr $C$DW$119, DW_AT_TI_symbol_name("sd")
     797                            .dwattr $C$DW$119, DW_AT_type(*$C$DW$T$285)
     798                            .dwattr $C$DW$119, DW_AT_location[DW_OP_breg13 4]
     799                    
     800 00000002 9100              STR       A2, [SP, #0]          ; [DPU_3_PIPE] |139|  ; [ORIG 16-BIT INS]
     801 00000004 0004F8AD          STRH      A1, [SP, #4]          ; [DPU_3_PIPE] |139|  ; [KEEP 32-BIT INS]
     802                            .dwpsn  file "/vagrant/Q4_04/sdk_root/source/ti/drivers/net/wifi/slnetif/slnetifwifi.c",line 1
     803                    ;----------------------------------------------------------------------
     804                    ; 141 | return sl_Close(sd);                                                   
     805                    ;----------------------------------------------------------------------
     806 00000008 0004F9BD          LDRSH     A1, [SP, #4]          ; [DPU_3_PIPE] |141|  ; [KEEP 32-BIT INS]
     807                    $C$DW$120       .dwtag  DW_TAG_TI_branch
     808                            .dwattr $C$DW$120, DW_AT_low_pc(0x00)
     809                            .dwattr $C$DW$120, DW_AT_name("sl_Close")
     810                            .dwattr $C$DW$120, DW_AT_TI_call
     811                    
     812 0000000c FFFEF7FF!         BL        sl_Close              ; [DPU_3_PIPE] |141|  ; [KEEP 32-BIT INS]
     813                            ; CALL OCCURS {sl_Close }        ; [] |141| 
     814                            .dwpsn  file "/vagrant/Q4_04/sdk_root/source/ti/drivers/net/wifi/slnetif/slnetifwifi.c",line 1
     815                    $C$DW$121       .dwtag  DW_TAG_TI_branch
     816                            .dwattr $C$DW$121, DW_AT_low_pc(0x00)
     817                            .dwattr $C$DW$121, DW_AT_TI_return
     818                    
     819 00000010 BD0E              POP       {A2, A3, A4, PC}      ; [DPU_3_PIPE]  ; [ORIG 16-BIT INS]
     820                            .dwcfi  cfa_offset, 0
     821                            .dwcfi  restore_reg, 3
     822                            .dwcfi  restore_reg, 2
     823                            .dwcfi  restore_reg, 1
     824                            ; BRANCH OCCURS                  ; [] 
     825                            .dwattr $C$DW$115, DW_AT_TI_end_file("/vagrant/Q4_04/sdk_root/source/ti/drivers/net/wifi/slnet
TI ARM Assembler Unix v16.9.6 Thu Dec 28 17:45:45 2017

Tools Copyright (c) 1996-2017 Texas Instruments Incorporated
slnetifwifi.asm                                                      PAGE   16

     826                            .dwattr $C$DW$115, DW_AT_TI_end_line(0x8e)
     827                            .dwattr $C$DW$115, DW_AT_TI_end_column(0x01)
     828                            .dwendentry
     829                            .dwendtag $C$DW$115
     830                    
     831 00000000                   .sect   ".text:SlNetIfWifi_accept"
     832                            .clink
     833                            .thumbfunc SlNetIfWifi_accept
     834 00000000                   .thumb
     835                            .global SlNetIfWifi_accept
     836                    
     837                    $C$DW$122       .dwtag  DW_TAG_subprogram
     838                            .dwattr $C$DW$122, DW_AT_name("SlNetIfWifi_accept")
     839                            .dwattr $C$DW$122, DW_AT_low_pc(SlNetIfWifi_accept)
     840                            .dwattr $C$DW$122, DW_AT_high_pc(0x00)
     841                            .dwattr $C$DW$122, DW_AT_TI_symbol_name("SlNetIfWifi_accept")
     842                            .dwattr $C$DW$122, DW_AT_external
     843                            .dwattr $C$DW$122, DW_AT_type(*$C$DW$T$285)
     844                            .dwattr $C$DW$122, DW_AT_TI_begin_file("/vagrant/Q4_04/sdk_root/source/ti/drivers/net/wifi/sln
     845                            .dwattr $C$DW$122, DW_AT_TI_begin_line(0x96)
     846                            .dwattr $C$DW$122, DW_AT_TI_begin_column(0x09)
     847                            .dwattr $C$DW$122, DW_AT_decl_file("/vagrant/Q4_04/sdk_root/source/ti/drivers/net/wifi/slnetif
     848                            .dwattr $C$DW$122, DW_AT_decl_line(0x96)
     849                            .dwattr $C$DW$122, DW_AT_decl_column(0x09)
     850                            .dwattr $C$DW$122, DW_AT_TI_max_frame_size(0x18)
     851                            .dwpsn  file "/vagrant/Q4_04/sdk_root/source/ti/drivers/net/wifi/slnetif/slnetifwifi.c",line 1
     852                    
     853                            .dwfde $C$DW$CIE, SlNetIfWifi_accept
     854                    $C$DW$123       .dwtag  DW_TAG_formal_parameter
     855                            .dwattr $C$DW$123, DW_AT_name("sd")
     856                            .dwattr $C$DW$123, DW_AT_TI_symbol_name("sd")
     857                            .dwattr $C$DW$123, DW_AT_type(*$C$DW$T$285)
     858                            .dwattr $C$DW$123, DW_AT_location[DW_OP_reg0]
     859                    
     860                    $C$DW$124       .dwtag  DW_TAG_formal_parameter
     861                            .dwattr $C$DW$124, DW_AT_name("sdContext")
     862                            .dwattr $C$DW$124, DW_AT_TI_symbol_name("sdContext")
     863                            .dwattr $C$DW$124, DW_AT_type(*$C$DW$T$3)
     864                            .dwattr $C$DW$124, DW_AT_location[DW_OP_reg1]
     865                    
     866                    $C$DW$125       .dwtag  DW_TAG_formal_parameter
     867                            .dwattr $C$DW$125, DW_AT_name("addr")
     868                            .dwattr $C$DW$125, DW_AT_TI_symbol_name("addr")
     869                            .dwattr $C$DW$125, DW_AT_type(*$C$DW$T$295)
     870                            .dwattr $C$DW$125, DW_AT_location[DW_OP_reg2]
     871                    
     872                    $C$DW$126       .dwtag  DW_TAG_formal_parameter
     873                            .dwattr $C$DW$126, DW_AT_name("addrlen")
     874                            .dwattr $C$DW$126, DW_AT_TI_symbol_name("addrlen")
     875                            .dwattr $C$DW$126, DW_AT_type(*$C$DW$T$297)
     876                            .dwattr $C$DW$126, DW_AT_location[DW_OP_reg3]
     877                    
     878                    $C$DW$127       .dwtag  DW_TAG_formal_parameter
     879                            .dwattr $C$DW$127, DW_AT_name("flags")
     880                            .dwattr $C$DW$127, DW_AT_TI_symbol_name("flags")
TI ARM Assembler Unix v16.9.6 Thu Dec 28 17:45:45 2017

Tools Copyright (c) 1996-2017 Texas Instruments Incorporated
slnetifwifi.asm                                                      PAGE   17

     881                            .dwattr $C$DW$127, DW_AT_type(*$C$DW$T$200)
     882                            .dwattr $C$DW$127, DW_AT_location[DW_OP_breg13 24]
     883                    
     884                    $C$DW$128       .dwtag  DW_TAG_formal_parameter
     885                            .dwattr $C$DW$128, DW_AT_name("acceptedSdContext")
     886                            .dwattr $C$DW$128, DW_AT_TI_symbol_name("acceptedSdContext")
     887                            .dwattr $C$DW$128, DW_AT_type(*$C$DW$T$286)
     888                            .dwattr $C$DW$128, DW_AT_location[DW_OP_breg13 28]
     889                    
     890                    ;----------------------------------------------------------------------
     891                    ; 150 | int16_t SlNetIfWifi_accept(int16_t sd, void *sdContext, SlNetSock_Addr_
     892                    ;     | t *addr, SlNetSocklen_t *addrlen, uint8_t flags, void **acceptedSdConte
     893                    ;     | xt)                                                                    
     894                    ;----------------------------------------------------------------------
     895                    
     896                    ;*****************************************************************************
     897                    ;* FUNCTION NAME: SlNetIfWifi_accept                                         *
     898                    ;*                                                                           *
     899                    ;*   Regs Modified     : A1,A2,A3,A4,V9,SP,LR,SR                             *
     900                    ;*   Regs Used         : A1,A2,A3,A4,V9,SP,LR,SR                             *
     901                    ;*   Local Frame Size  : 0 Args + 16 Auto + 4 Save = 20 byte                 *
     902                    ;*****************************************************************************
     903 00000000           SlNetIfWifi_accept:
     904                    ;* --------------------------------------------------------------------------*
     905                            .dwcfi  cfa_offset, 0
     906 00000000 B500              PUSH      {LR}                  ; [DPU_3_PIPE]  ; [ORIG 16-BIT INS]
     907                            .dwcfi  cfa_offset, 4
     908                            .dwcfi  save_reg_to_mem, 14, -4
     909 00000002 0D14F1AD          SUB       SP, SP, #20           ; [DPU_3_PIPE]  ; [KEEP 32-BIT INS]
     910                            .dwcfi  cfa_offset, 24
     911                    $C$DW$129       .dwtag  DW_TAG_variable
     912                            .dwattr $C$DW$129, DW_AT_name("sdContext")
     913                            .dwattr $C$DW$129, DW_AT_TI_symbol_name("sdContext")
     914                            .dwattr $C$DW$129, DW_AT_type(*$C$DW$T$3)
     915                            .dwattr $C$DW$129, DW_AT_location[DW_OP_breg13 0]
     916                    
     917                    $C$DW$130       .dwtag  DW_TAG_variable
     918                            .dwattr $C$DW$130, DW_AT_name("addr")
     919                            .dwattr $C$DW$130, DW_AT_TI_symbol_name("addr")
     920                            .dwattr $C$DW$130, DW_AT_type(*$C$DW$T$295)
     921                            .dwattr $C$DW$130, DW_AT_location[DW_OP_breg13 4]
     922                    
     923                    $C$DW$131       .dwtag  DW_TAG_variable
     924                            .dwattr $C$DW$131, DW_AT_name("addrlen")
     925                            .dwattr $C$DW$131, DW_AT_TI_symbol_name("addrlen")
     926                            .dwattr $C$DW$131, DW_AT_type(*$C$DW$T$297)
     927                            .dwattr $C$DW$131, DW_AT_location[DW_OP_breg13 8]
     928                    
     929                    $C$DW$132       .dwtag  DW_TAG_variable
     930                            .dwattr $C$DW$132, DW_AT_name("sd")
     931                            .dwattr $C$DW$132, DW_AT_TI_symbol_name("sd")
     932                            .dwattr $C$DW$132, DW_AT_type(*$C$DW$T$285)
     933                            .dwattr $C$DW$132, DW_AT_location[DW_OP_breg13 12]
     934                    
     935 00000006 9302              STR       A4, [SP, #8]          ; [DPU_3_PIPE] |151|  ; [ORIG 16-BIT INS]
TI ARM Assembler Unix v16.9.6 Thu Dec 28 17:45:45 2017

Tools Copyright (c) 1996-2017 Texas Instruments Incorporated
slnetifwifi.asm                                                      PAGE   18

     936 00000008 9201              STR       A3, [SP, #4]          ; [DPU_3_PIPE] |151|  ; [ORIG 16-BIT INS]
     937 0000000a 9100              STR       A2, [SP, #0]          ; [DPU_3_PIPE] |151|  ; [ORIG 16-BIT INS]
     938 0000000c 000CF8AD          STRH      A1, [SP, #12]         ; [DPU_3_PIPE] |151|  ; [KEEP 32-BIT INS]
     939                            .dwpsn  file "/vagrant/Q4_04/sdk_root/source/ti/drivers/net/wifi/slnetif/slnetifwifi.c",line 1
     940                    ;----------------------------------------------------------------------
     941                    ; 152 | return sl_Accept(sd, (SlSockAddr_t *)addr, addrlen);                   
     942                    ;----------------------------------------------------------------------
     943 00000010 000CF9BD          LDRSH     A1, [SP, #12]         ; [DPU_3_PIPE] |152|  ; [KEEP 32-BIT INS]
     944 00000014 9901              LDR       A2, [SP, #4]          ; [DPU_3_PIPE] |152|  ; [ORIG 16-BIT INS]
     945 00000016 9A02              LDR       A3, [SP, #8]          ; [DPU_3_PIPE] |152|  ; [ORIG 16-BIT INS]
     946                    $C$DW$133       .dwtag  DW_TAG_TI_branch
     947                            .dwattr $C$DW$133, DW_AT_low_pc(0x00)
     948                            .dwattr $C$DW$133, DW_AT_name("sl_Accept")
     949                            .dwattr $C$DW$133, DW_AT_TI_call
     950                    
     951 00000018 FFFEF7FF!         BL        sl_Accept             ; [DPU_3_PIPE] |152|  ; [KEEP 32-BIT INS]
     952                            ; CALL OCCURS {sl_Accept }       ; [] |152| 
     953                            .dwpsn  file "/vagrant/Q4_04/sdk_root/source/ti/drivers/net/wifi/slnetif/slnetifwifi.c",line 1
     954 0000001c B005              ADD       SP, SP, #20           ; [DPU_3_PIPE]  ; [ORIG 16-BIT INS]
     955                            .dwcfi  cfa_offset, 4
     956                    $C$DW$134       .dwtag  DW_TAG_TI_branch
     957                            .dwattr $C$DW$134, DW_AT_low_pc(0x00)
     958                            .dwattr $C$DW$134, DW_AT_TI_return
     959                    
     960 0000001e BD00              POP       {PC}                  ; [DPU_3_PIPE]  ; [ORIG 16-BIT INS]
     961                            .dwcfi  cfa_offset, 0
     962                            ; BRANCH OCCURS                  ; [] 
     963                            .dwattr $C$DW$122, DW_AT_TI_end_file("/vagrant/Q4_04/sdk_root/source/ti/drivers/net/wifi/slnet
     964                            .dwattr $C$DW$122, DW_AT_TI_end_line(0x99)
     965                            .dwattr $C$DW$122, DW_AT_TI_end_column(0x01)
     966                            .dwendentry
     967                            .dwendtag $C$DW$122
     968                    
     969 00000000                   .sect   ".text:SlNetIfWifi_bind"
     970                            .clink
     971                            .thumbfunc SlNetIfWifi_bind
     972 00000000                   .thumb
     973                            .global SlNetIfWifi_bind
     974                    
     975                    $C$DW$135       .dwtag  DW_TAG_subprogram
     976                            .dwattr $C$DW$135, DW_AT_name("SlNetIfWifi_bind")
     977                            .dwattr $C$DW$135, DW_AT_low_pc(SlNetIfWifi_bind)
     978                            .dwattr $C$DW$135, DW_AT_high_pc(0x00)
     979                            .dwattr $C$DW$135, DW_AT_TI_symbol_name("SlNetIfWifi_bind")
     980                            .dwattr $C$DW$135, DW_AT_external
     981                            .dwattr $C$DW$135, DW_AT_type(*$C$DW$T$289)
     982                            .dwattr $C$DW$135, DW_AT_TI_begin_file("/vagrant/Q4_04/sdk_root/source/ti/drivers/net/wifi/sln
     983                            .dwattr $C$DW$135, DW_AT_TI_begin_line(0xa1)
     984                            .dwattr $C$DW$135, DW_AT_TI_begin_column(0x09)
     985                            .dwattr $C$DW$135, DW_AT_decl_file("/vagrant/Q4_04/sdk_root/source/ti/drivers/net/wifi/slnetif
     986                            .dwattr $C$DW$135, DW_AT_decl_line(0xa1)
     987                            .dwattr $C$DW$135, DW_AT_decl_column(0x09)
     988                            .dwattr $C$DW$135, DW_AT_TI_max_frame_size(0x10)
     989                            .dwpsn  file "/vagrant/Q4_04/sdk_root/source/ti/drivers/net/wifi/slnetif/slnetifwifi.c",line 1
     990                    
TI ARM Assembler Unix v16.9.6 Thu Dec 28 17:45:45 2017

Tools Copyright (c) 1996-2017 Texas Instruments Incorporated
slnetifwifi.asm                                                      PAGE   19

     991                            .dwfde $C$DW$CIE, SlNetIfWifi_bind
     992                    $C$DW$136       .dwtag  DW_TAG_formal_parameter
     993                            .dwattr $C$DW$136, DW_AT_name("sd")
     994                            .dwattr $C$DW$136, DW_AT_TI_symbol_name("sd")
     995                            .dwattr $C$DW$136, DW_AT_type(*$C$DW$T$285)
     996                            .dwattr $C$DW$136, DW_AT_location[DW_OP_reg0]
     997                    
     998                    $C$DW$137       .dwtag  DW_TAG_formal_parameter
     999                            .dwattr $C$DW$137, DW_AT_name("sdContext")
    1000                            .dwattr $C$DW$137, DW_AT_TI_symbol_name("sdContext")
    1001                            .dwattr $C$DW$137, DW_AT_type(*$C$DW$T$3)
    1002                            .dwattr $C$DW$137, DW_AT_location[DW_OP_reg1]
    1003                    
    1004                    $C$DW$138       .dwtag  DW_TAG_formal_parameter
    1005                            .dwattr $C$DW$138, DW_AT_name("addr")
    1006                            .dwattr $C$DW$138, DW_AT_TI_symbol_name("addr")
    1007                            .dwattr $C$DW$138, DW_AT_type(*$C$DW$T$301)
    1008                            .dwattr $C$DW$138, DW_AT_location[DW_OP_reg2]
    1009                    
    1010                    $C$DW$139       .dwtag  DW_TAG_formal_parameter
    1011                            .dwattr $C$DW$139, DW_AT_name("addrlen")
    1012                            .dwattr $C$DW$139, DW_AT_TI_symbol_name("addrlen")
    1013                            .dwattr $C$DW$139, DW_AT_type(*$C$DW$T$285)
    1014                            .dwattr $C$DW$139, DW_AT_location[DW_OP_reg3]
    1015                    
    1016                    ;----------------------------------------------------------------------
    1017                    ; 161 | int32_t SlNetIfWifi_bind(int16_t sd, void *sdContext, const SlNetSock_A
    1018                    ;     | ddr_t *addr, int16_t addrlen)                                          
    1019                    ;----------------------------------------------------------------------
    1020                    
    1021                    ;*****************************************************************************
    1022                    ;* FUNCTION NAME: SlNetIfWifi_bind                                           *
    1023                    ;*                                                                           *
    1024                    ;*   Regs Modified     : A1,A2,A3,A4,V9,SP,LR,SR                             *
    1025                    ;*   Regs Used         : A1,A2,A3,A4,V9,SP,LR,SR                             *
    1026                    ;*   Local Frame Size  : 0 Args + 12 Auto + 4 Save = 16 byte                 *
    1027                    ;*****************************************************************************
    1028 00000000           SlNetIfWifi_bind:
    1029                    ;* --------------------------------------------------------------------------*
    1030                            .dwcfi  cfa_offset, 0
    1031 00000000 B50E              PUSH      {A2, A3, A4, LR}      ; [DPU_3_PIPE]  ; [ORIG 16-BIT INS]
    1032                            .dwcfi  cfa_offset, 16
    1033                            .dwcfi  save_reg_to_mem, 14, -4
    1034                            .dwcfi  save_reg_to_mem, 3, -8
    1035                            .dwcfi  save_reg_to_mem, 2, -12
    1036                            .dwcfi  save_reg_to_mem, 1, -16
    1037                    $C$DW$140       .dwtag  DW_TAG_variable
    1038                            .dwattr $C$DW$140, DW_AT_name("sdContext")
    1039                            .dwattr $C$DW$140, DW_AT_TI_symbol_name("sdContext")
    1040                            .dwattr $C$DW$140, DW_AT_type(*$C$DW$T$3)
    1041                            .dwattr $C$DW$140, DW_AT_location[DW_OP_breg13 0]
    1042                    
    1043                    $C$DW$141       .dwtag  DW_TAG_variable
    1044                            .dwattr $C$DW$141, DW_AT_name("addr")
    1045                            .dwattr $C$DW$141, DW_AT_TI_symbol_name("addr")
TI ARM Assembler Unix v16.9.6 Thu Dec 28 17:45:45 2017

Tools Copyright (c) 1996-2017 Texas Instruments Incorporated
slnetifwifi.asm                                                      PAGE   20

    1046                            .dwattr $C$DW$141, DW_AT_type(*$C$DW$T$301)
    1047                            .dwattr $C$DW$141, DW_AT_location[DW_OP_breg13 4]
    1048                    
    1049                    $C$DW$142       .dwtag  DW_TAG_variable
    1050                            .dwattr $C$DW$142, DW_AT_name("sd")
    1051                            .dwattr $C$DW$142, DW_AT_TI_symbol_name("sd")
    1052                            .dwattr $C$DW$142, DW_AT_type(*$C$DW$T$285)
    1053                            .dwattr $C$DW$142, DW_AT_location[DW_OP_breg13 8]
    1054                    
    1055                    $C$DW$143       .dwtag  DW_TAG_variable
    1056                            .dwattr $C$DW$143, DW_AT_name("addrlen")
    1057                            .dwattr $C$DW$143, DW_AT_TI_symbol_name("addrlen")
    1058                            .dwattr $C$DW$143, DW_AT_type(*$C$DW$T$285)
    1059                            .dwattr $C$DW$143, DW_AT_location[DW_OP_breg13 10]
    1060                    
    1061 00000002 300AF8AD          STRH      A4, [SP, #10]         ; [DPU_3_PIPE] |162|  ; [KEEP 32-BIT INS]
    1062 00000006 9201              STR       A3, [SP, #4]          ; [DPU_3_PIPE] |162|  ; [ORIG 16-BIT INS]
    1063 00000008 9100              STR       A2, [SP, #0]          ; [DPU_3_PIPE] |162|  ; [ORIG 16-BIT INS]
    1064 0000000a 0008F8AD          STRH      A1, [SP, #8]          ; [DPU_3_PIPE] |162|  ; [KEEP 32-BIT INS]
    1065                            .dwpsn  file "/vagrant/Q4_04/sdk_root/source/ti/drivers/net/wifi/slnetif/slnetifwifi.c",line 1
    1066                    ;----------------------------------------------------------------------
    1067                    ; 163 | return sl_Bind(sd, (const SlSockAddr_t *)addr, addrlen);               
    1068                    ;----------------------------------------------------------------------
    1069 0000000e 0008F9BD          LDRSH     A1, [SP, #8]          ; [DPU_3_PIPE] |163|  ; [KEEP 32-BIT INS]
    1070 00000012 200AF9BD          LDRSH     A3, [SP, #10]         ; [DPU_3_PIPE] |163|  ; [KEEP 32-BIT INS]
    1071 00000016 9901              LDR       A2, [SP, #4]          ; [DPU_3_PIPE] |163|  ; [ORIG 16-BIT INS]
    1072                    $C$DW$144       .dwtag  DW_TAG_TI_branch
    1073                            .dwattr $C$DW$144, DW_AT_low_pc(0x00)
    1074                            .dwattr $C$DW$144, DW_AT_name("sl_Bind")
    1075                            .dwattr $C$DW$144, DW_AT_TI_call
    1076                    
    1077 00000018 FFFEF7FF!         BL        sl_Bind               ; [DPU_3_PIPE] |163|  ; [KEEP 32-BIT INS]
    1078                            ; CALL OCCURS {sl_Bind }         ; [] |163| 
    1079                            .dwpsn  file "/vagrant/Q4_04/sdk_root/source/ti/drivers/net/wifi/slnetif/slnetifwifi.c",line 1
    1080                    $C$DW$145       .dwtag  DW_TAG_TI_branch
    1081                            .dwattr $C$DW$145, DW_AT_low_pc(0x00)
    1082                            .dwattr $C$DW$145, DW_AT_TI_return
    1083                    
    1084 0000001c BD0E              POP       {A2, A3, A4, PC}      ; [DPU_3_PIPE]  ; [ORIG 16-BIT INS]
    1085                            .dwcfi  cfa_offset, 0
    1086                            .dwcfi  restore_reg, 3
    1087                            .dwcfi  restore_reg, 2
    1088                            .dwcfi  restore_reg, 1
    1089                            ; BRANCH OCCURS                  ; [] 
    1090                            .dwattr $C$DW$135, DW_AT_TI_end_file("/vagrant/Q4_04/sdk_root/source/ti/drivers/net/wifi/slnet
    1091                            .dwattr $C$DW$135, DW_AT_TI_end_line(0xa4)
    1092                            .dwattr $C$DW$135, DW_AT_TI_end_column(0x01)
    1093                            .dwendentry
    1094                            .dwendtag $C$DW$135
    1095                    
    1096 00000000                   .sect   ".text:SlNetIfWifi_listen"
    1097                            .clink
    1098                            .thumbfunc SlNetIfWifi_listen
    1099 00000000                   .thumb
    1100                            .global SlNetIfWifi_listen
TI ARM Assembler Unix v16.9.6 Thu Dec 28 17:45:45 2017

Tools Copyright (c) 1996-2017 Texas Instruments Incorporated
slnetifwifi.asm                                                      PAGE   21

    1101                    
    1102                    $C$DW$146       .dwtag  DW_TAG_subprogram
    1103                            .dwattr $C$DW$146, DW_AT_name("SlNetIfWifi_listen")
    1104                            .dwattr $C$DW$146, DW_AT_low_pc(SlNetIfWifi_listen)
    1105                            .dwattr $C$DW$146, DW_AT_high_pc(0x00)
    1106                            .dwattr $C$DW$146, DW_AT_TI_symbol_name("SlNetIfWifi_listen")
    1107                            .dwattr $C$DW$146, DW_AT_external
    1108                            .dwattr $C$DW$146, DW_AT_type(*$C$DW$T$289)
    1109                            .dwattr $C$DW$146, DW_AT_TI_begin_file("/vagrant/Q4_04/sdk_root/source/ti/drivers/net/wifi/sln
    1110                            .dwattr $C$DW$146, DW_AT_TI_begin_line(0xac)
    1111                            .dwattr $C$DW$146, DW_AT_TI_begin_column(0x09)
    1112                            .dwattr $C$DW$146, DW_AT_decl_file("/vagrant/Q4_04/sdk_root/source/ti/drivers/net/wifi/slnetif
    1113                            .dwattr $C$DW$146, DW_AT_decl_line(0xac)
    1114                            .dwattr $C$DW$146, DW_AT_decl_column(0x09)
    1115                            .dwattr $C$DW$146, DW_AT_TI_max_frame_size(0x10)
    1116                            .dwpsn  file "/vagrant/Q4_04/sdk_root/source/ti/drivers/net/wifi/slnetif/slnetifwifi.c",line 1
    1117                    
    1118                            .dwfde $C$DW$CIE, SlNetIfWifi_listen
    1119                    $C$DW$147       .dwtag  DW_TAG_formal_parameter
    1120                            .dwattr $C$DW$147, DW_AT_name("sd")
    1121                            .dwattr $C$DW$147, DW_AT_TI_symbol_name("sd")
    1122                            .dwattr $C$DW$147, DW_AT_type(*$C$DW$T$285)
    1123                            .dwattr $C$DW$147, DW_AT_location[DW_OP_reg0]
    1124                    
    1125                    $C$DW$148       .dwtag  DW_TAG_formal_parameter
    1126                            .dwattr $C$DW$148, DW_AT_name("sdContext")
    1127                            .dwattr $C$DW$148, DW_AT_TI_symbol_name("sdContext")
    1128                            .dwattr $C$DW$148, DW_AT_type(*$C$DW$T$3)
    1129                            .dwattr $C$DW$148, DW_AT_location[DW_OP_reg1]
    1130                    
    1131                    $C$DW$149       .dwtag  DW_TAG_formal_parameter
    1132                            .dwattr $C$DW$149, DW_AT_name("backlog")
    1133                            .dwattr $C$DW$149, DW_AT_TI_symbol_name("backlog")
    1134                            .dwattr $C$DW$149, DW_AT_type(*$C$DW$T$285)
    1135                            .dwattr $C$DW$149, DW_AT_location[DW_OP_reg2]
    1136                    
    1137                    ;----------------------------------------------------------------------
    1138                    ; 172 | int32_t SlNetIfWifi_listen(int16_t sd, void *sdContext, int16_t backlog
    1139                    ;     | )                                                                      
    1140                    ;----------------------------------------------------------------------
    1141                    
    1142                    ;*****************************************************************************
    1143                    ;* FUNCTION NAME: SlNetIfWifi_listen                                         *
    1144                    ;*                                                                           *
    1145                    ;*   Regs Modified     : A1,A2,A3,A4,V9,SP,LR,SR                             *
    1146                    ;*   Regs Used         : A1,A2,A3,A4,V9,SP,LR,SR                             *
    1147                    ;*   Local Frame Size  : 0 Args + 8 Auto + 4 Save = 12 byte                  *
    1148                    ;*****************************************************************************
    1149 00000000           SlNetIfWifi_listen:
    1150                    ;* --------------------------------------------------------------------------*
    1151                            .dwcfi  cfa_offset, 0
    1152 00000000 B50E              PUSH      {A2, A3, A4, LR}      ; [DPU_3_PIPE]  ; [ORIG 16-BIT INS]
    1153                            .dwcfi  cfa_offset, 16
    1154                            .dwcfi  save_reg_to_mem, 14, -4
    1155                            .dwcfi  save_reg_to_mem, 3, -8
TI ARM Assembler Unix v16.9.6 Thu Dec 28 17:45:45 2017

Tools Copyright (c) 1996-2017 Texas Instruments Incorporated
slnetifwifi.asm                                                      PAGE   22

    1156                            .dwcfi  save_reg_to_mem, 2, -12
    1157                            .dwcfi  save_reg_to_mem, 1, -16
    1158                    $C$DW$150       .dwtag  DW_TAG_variable
    1159                            .dwattr $C$DW$150, DW_AT_name("sdContext")
    1160                            .dwattr $C$DW$150, DW_AT_TI_symbol_name("sdContext")
    1161                            .dwattr $C$DW$150, DW_AT_type(*$C$DW$T$3)
    1162                            .dwattr $C$DW$150, DW_AT_location[DW_OP_breg13 0]
    1163                    
    1164                    $C$DW$151       .dwtag  DW_TAG_variable
    1165                            .dwattr $C$DW$151, DW_AT_name("sd")
    1166                            .dwattr $C$DW$151, DW_AT_TI_symbol_name("sd")
    1167                            .dwattr $C$DW$151, DW_AT_type(*$C$DW$T$285)
    1168                            .dwattr $C$DW$151, DW_AT_location[DW_OP_breg13 4]
    1169                    
    1170                    $C$DW$152       .dwtag  DW_TAG_variable
    1171                            .dwattr $C$DW$152, DW_AT_name("backlog")
    1172                            .dwattr $C$DW$152, DW_AT_TI_symbol_name("backlog")
    1173                            .dwattr $C$DW$152, DW_AT_type(*$C$DW$T$285)
    1174                            .dwattr $C$DW$152, DW_AT_location[DW_OP_breg13 6]
    1175                    
    1176 00000002 2006F8AD          STRH      A3, [SP, #6]          ; [DPU_3_PIPE] |173|  ; [KEEP 32-BIT INS]
    1177 00000006 9100              STR       A2, [SP, #0]          ; [DPU_3_PIPE] |173|  ; [ORIG 16-BIT INS]
    1178 00000008 0004F8AD          STRH      A1, [SP, #4]          ; [DPU_3_PIPE] |173|  ; [KEEP 32-BIT INS]
    1179                            .dwpsn  file "/vagrant/Q4_04/sdk_root/source/ti/drivers/net/wifi/slnetif/slnetifwifi.c",line 1
    1180                    ;----------------------------------------------------------------------
    1181                    ; 174 | return sl_Listen(sd, backlog);                                         
    1182                    ;----------------------------------------------------------------------
    1183 0000000c 0004F9BD          LDRSH     A1, [SP, #4]          ; [DPU_3_PIPE] |174|  ; [KEEP 32-BIT INS]
    1184 00000010 1006F9BD          LDRSH     A2, [SP, #6]          ; [DPU_3_PIPE] |174|  ; [KEEP 32-BIT INS]
    1185                    $C$DW$153       .dwtag  DW_TAG_TI_branch
    1186                            .dwattr $C$DW$153, DW_AT_low_pc(0x00)
    1187                            .dwattr $C$DW$153, DW_AT_name("sl_Listen")
    1188                            .dwattr $C$DW$153, DW_AT_TI_call
    1189                    
    1190 00000014 FFFEF7FF!         BL        sl_Listen             ; [DPU_3_PIPE] |174|  ; [KEEP 32-BIT INS]
    1191                            ; CALL OCCURS {sl_Listen }       ; [] |174| 
    1192                            .dwpsn  file "/vagrant/Q4_04/sdk_root/source/ti/drivers/net/wifi/slnetif/slnetifwifi.c",line 1
    1193                    $C$DW$154       .dwtag  DW_TAG_TI_branch
    1194                            .dwattr $C$DW$154, DW_AT_low_pc(0x00)
    1195                            .dwattr $C$DW$154, DW_AT_TI_return
    1196                    
    1197 00000018 BD0E              POP       {A2, A3, A4, PC}      ; [DPU_3_PIPE]  ; [ORIG 16-BIT INS]
    1198                            .dwcfi  cfa_offset, 0
    1199                            .dwcfi  restore_reg, 3
    1200                            .dwcfi  restore_reg, 2
    1201                            .dwcfi  restore_reg, 1
    1202                            ; BRANCH OCCURS                  ; [] 
    1203                            .dwattr $C$DW$146, DW_AT_TI_end_file("/vagrant/Q4_04/sdk_root/source/ti/drivers/net/wifi/slnet
    1204                            .dwattr $C$DW$146, DW_AT_TI_end_line(0xaf)
    1205                            .dwattr $C$DW$146, DW_AT_TI_end_column(0x01)
    1206                            .dwendentry
    1207                            .dwendtag $C$DW$146
    1208                    
    1209 00000000                   .sect   ".text:SlNetIfWifi_connect"
    1210                            .clink
TI ARM Assembler Unix v16.9.6 Thu Dec 28 17:45:45 2017

Tools Copyright (c) 1996-2017 Texas Instruments Incorporated
slnetifwifi.asm                                                      PAGE   23

    1211                            .thumbfunc SlNetIfWifi_connect
    1212 00000000                   .thumb
    1213                            .global SlNetIfWifi_connect
    1214                    
    1215                    $C$DW$155       .dwtag  DW_TAG_subprogram
    1216                            .dwattr $C$DW$155, DW_AT_name("SlNetIfWifi_connect")
    1217                            .dwattr $C$DW$155, DW_AT_low_pc(SlNetIfWifi_connect)
    1218                            .dwattr $C$DW$155, DW_AT_high_pc(0x00)
    1219                            .dwattr $C$DW$155, DW_AT_TI_symbol_name("SlNetIfWifi_connect")
    1220                            .dwattr $C$DW$155, DW_AT_external
    1221                            .dwattr $C$DW$155, DW_AT_type(*$C$DW$T$289)
    1222                            .dwattr $C$DW$155, DW_AT_TI_begin_file("/vagrant/Q4_04/sdk_root/source/ti/drivers/net/wifi/sln
    1223                            .dwattr $C$DW$155, DW_AT_TI_begin_line(0xb7)
    1224                            .dwattr $C$DW$155, DW_AT_TI_begin_column(0x09)
    1225                            .dwattr $C$DW$155, DW_AT_decl_file("/vagrant/Q4_04/sdk_root/source/ti/drivers/net/wifi/slnetif
    1226                            .dwattr $C$DW$155, DW_AT_decl_line(0xb7)
    1227                            .dwattr $C$DW$155, DW_AT_decl_column(0x09)
    1228                            .dwattr $C$DW$155, DW_AT_TI_max_frame_size(0x10)
    1229                            .dwpsn  file "/vagrant/Q4_04/sdk_root/source/ti/drivers/net/wifi/slnetif/slnetifwifi.c",line 1
    1230                    
    1231                            .dwfde $C$DW$CIE, SlNetIfWifi_connect
    1232                    $C$DW$156       .dwtag  DW_TAG_formal_parameter
    1233                            .dwattr $C$DW$156, DW_AT_name("sd")
    1234                            .dwattr $C$DW$156, DW_AT_TI_symbol_name("sd")
    1235                            .dwattr $C$DW$156, DW_AT_type(*$C$DW$T$285)
    1236                            .dwattr $C$DW$156, DW_AT_location[DW_OP_reg0]
    1237                    
    1238                    $C$DW$157       .dwtag  DW_TAG_formal_parameter
    1239                            .dwattr $C$DW$157, DW_AT_name("sdContext")
    1240                            .dwattr $C$DW$157, DW_AT_TI_symbol_name("sdContext")
    1241                            .dwattr $C$DW$157, DW_AT_type(*$C$DW$T$3)
    1242                            .dwattr $C$DW$157, DW_AT_location[DW_OP_reg1]
    1243                    
    1244                    $C$DW$158       .dwtag  DW_TAG_formal_parameter
    1245                            .dwattr $C$DW$158, DW_AT_name("addr")
    1246                            .dwattr $C$DW$158, DW_AT_TI_symbol_name("addr")
    1247                            .dwattr $C$DW$158, DW_AT_type(*$C$DW$T$301)
    1248                            .dwattr $C$DW$158, DW_AT_location[DW_OP_reg2]
    1249                    
    1250                    $C$DW$159       .dwtag  DW_TAG_formal_parameter
    1251                            .dwattr $C$DW$159, DW_AT_name("addrlen")
    1252                            .dwattr $C$DW$159, DW_AT_TI_symbol_name("addrlen")
    1253                            .dwattr $C$DW$159, DW_AT_type(*$C$DW$T$296)
    1254                            .dwattr $C$DW$159, DW_AT_location[DW_OP_reg3]
    1255                    
    1256                    $C$DW$160       .dwtag  DW_TAG_formal_parameter
    1257                            .dwattr $C$DW$160, DW_AT_name("flags")
    1258                            .dwattr $C$DW$160, DW_AT_TI_symbol_name("flags")
    1259                            .dwattr $C$DW$160, DW_AT_type(*$C$DW$T$200)
    1260                            .dwattr $C$DW$160, DW_AT_location[DW_OP_breg13 16]
    1261                    
    1262                    ;----------------------------------------------------------------------
    1263                    ; 183 | int32_t SlNetIfWifi_connect(int16_t sd, void *sdContext, const SlNetSoc
    1264                    ;     | k_Addr_t *addr, SlNetSocklen_t addrlen, uint8_t flags)                 
    1265                    ;----------------------------------------------------------------------
TI ARM Assembler Unix v16.9.6 Thu Dec 28 17:45:45 2017

Tools Copyright (c) 1996-2017 Texas Instruments Incorporated
slnetifwifi.asm                                                      PAGE   24

    1266                    
    1267                    ;*****************************************************************************
    1268                    ;* FUNCTION NAME: SlNetIfWifi_connect                                        *
    1269                    ;*                                                                           *
    1270                    ;*   Regs Modified     : A1,A2,A3,A4,V9,SP,LR,SR                             *
    1271                    ;*   Regs Used         : A1,A2,A3,A4,V9,SP,LR,SR                             *
    1272                    ;*   Local Frame Size  : 0 Args + 12 Auto + 4 Save = 16 byte                 *
    1273                    ;*****************************************************************************
    1274 00000000           SlNetIfWifi_connect:
    1275                    ;* --------------------------------------------------------------------------*
    1276                            .dwcfi  cfa_offset, 0
    1277 00000000 B50E              PUSH      {A2, A3, A4, LR}      ; [DPU_3_PIPE]  ; [ORIG 16-BIT INS]
    1278                            .dwcfi  cfa_offset, 16
    1279                            .dwcfi  save_reg_to_mem, 14, -4
    1280                            .dwcfi  save_reg_to_mem, 3, -8
    1281                            .dwcfi  save_reg_to_mem, 2, -12
    1282                            .dwcfi  save_reg_to_mem, 1, -16
    1283                    $C$DW$161       .dwtag  DW_TAG_variable
    1284                            .dwattr $C$DW$161, DW_AT_name("sdContext")
    1285                            .dwattr $C$DW$161, DW_AT_TI_symbol_name("sdContext")
    1286                            .dwattr $C$DW$161, DW_AT_type(*$C$DW$T$3)
    1287                            .dwattr $C$DW$161, DW_AT_location[DW_OP_breg13 0]
    1288                    
    1289                    $C$DW$162       .dwtag  DW_TAG_variable
    1290                            .dwattr $C$DW$162, DW_AT_name("addr")
    1291                            .dwattr $C$DW$162, DW_AT_TI_symbol_name("addr")
    1292                            .dwattr $C$DW$162, DW_AT_type(*$C$DW$T$301)
    1293                            .dwattr $C$DW$162, DW_AT_location[DW_OP_breg13 4]
    1294                    
    1295                    $C$DW$163       .dwtag  DW_TAG_variable
    1296                            .dwattr $C$DW$163, DW_AT_name("sd")
    1297                            .dwattr $C$DW$163, DW_AT_TI_symbol_name("sd")
    1298                            .dwattr $C$DW$163, DW_AT_type(*$C$DW$T$285)
    1299                            .dwattr $C$DW$163, DW_AT_location[DW_OP_breg13 8]
    1300                    
    1301                    $C$DW$164       .dwtag  DW_TAG_variable
    1302                            .dwattr $C$DW$164, DW_AT_name("addrlen")
    1303                            .dwattr $C$DW$164, DW_AT_TI_symbol_name("addrlen")
    1304                            .dwattr $C$DW$164, DW_AT_type(*$C$DW$T$296)
    1305                            .dwattr $C$DW$164, DW_AT_location[DW_OP_breg13 10]
    1306                    
    1307 00000002 300AF8AD          STRH      A4, [SP, #10]         ; [DPU_3_PIPE] |184|  ; [KEEP 32-BIT INS]
    1308 00000006 9201              STR       A3, [SP, #4]          ; [DPU_3_PIPE] |184|  ; [ORIG 16-BIT INS]
    1309 00000008 9100              STR       A2, [SP, #0]          ; [DPU_3_PIPE] |184|  ; [ORIG 16-BIT INS]
    1310 0000000a 0008F8AD          STRH      A1, [SP, #8]          ; [DPU_3_PIPE] |184|  ; [KEEP 32-BIT INS]
    1311                            .dwpsn  file "/vagrant/Q4_04/sdk_root/source/ti/drivers/net/wifi/slnetif/slnetifwifi.c",line 1
    1312                    ;----------------------------------------------------------------------
    1313                    ; 185 | return sl_Connect(sd, (const SlSockAddr_t *)addr, addrlen);            
    1314                    ;----------------------------------------------------------------------
    1315 0000000e 0008F9BD          LDRSH     A1, [SP, #8]          ; [DPU_3_PIPE] |185|  ; [KEEP 32-BIT INS]
    1316 00000012 200AF9BD          LDRSH     A3, [SP, #10]         ; [DPU_3_PIPE] |185|  ; [KEEP 32-BIT INS]
    1317 00000016 9901              LDR       A2, [SP, #4]          ; [DPU_3_PIPE] |185|  ; [ORIG 16-BIT INS]
    1318                    $C$DW$165       .dwtag  DW_TAG_TI_branch
    1319                            .dwattr $C$DW$165, DW_AT_low_pc(0x00)
    1320                            .dwattr $C$DW$165, DW_AT_name("sl_Connect")
TI ARM Assembler Unix v16.9.6 Thu Dec 28 17:45:45 2017

Tools Copyright (c) 1996-2017 Texas Instruments Incorporated
slnetifwifi.asm                                                      PAGE   25

    1321                            .dwattr $C$DW$165, DW_AT_TI_call
    1322                    
    1323 00000018 FFFEF7FF!         BL        sl_Connect            ; [DPU_3_PIPE] |185|  ; [KEEP 32-BIT INS]
    1324                            ; CALL OCCURS {sl_Connect }      ; [] |185| 
    1325                            .dwpsn  file "/vagrant/Q4_04/sdk_root/source/ti/drivers/net/wifi/slnetif/slnetifwifi.c",line 1
    1326                    $C$DW$166       .dwtag  DW_TAG_TI_branch
    1327                            .dwattr $C$DW$166, DW_AT_low_pc(0x00)
    1328                            .dwattr $C$DW$166, DW_AT_TI_return
    1329                    
    1330 0000001c BD0E              POP       {A2, A3, A4, PC}      ; [DPU_3_PIPE]  ; [ORIG 16-BIT INS]
    1331                            .dwcfi  cfa_offset, 0
    1332                            .dwcfi  restore_reg, 3
    1333                            .dwcfi  restore_reg, 2
    1334                            .dwcfi  restore_reg, 1
    1335                            ; BRANCH OCCURS                  ; [] 
    1336                            .dwattr $C$DW$155, DW_AT_TI_end_file("/vagrant/Q4_04/sdk_root/source/ti/drivers/net/wifi/slnet
    1337                            .dwattr $C$DW$155, DW_AT_TI_end_line(0xba)
    1338                            .dwattr $C$DW$155, DW_AT_TI_end_column(0x01)
    1339                            .dwendentry
    1340                            .dwendtag $C$DW$155
    1341                    
    1342 00000000                   .sect   ".text:SlNetIfWifi_getSockName"
    1343                            .clink
    1344                            .thumbfunc SlNetIfWifi_getSockName
    1345 00000000                   .thumb
    1346                            .global SlNetIfWifi_getSockName
    1347                    
    1348                    $C$DW$167       .dwtag  DW_TAG_subprogram
    1349                            .dwattr $C$DW$167, DW_AT_name("SlNetIfWifi_getSockName")
    1350                            .dwattr $C$DW$167, DW_AT_low_pc(SlNetIfWifi_getSockName)
    1351                            .dwattr $C$DW$167, DW_AT_high_pc(0x00)
    1352                            .dwattr $C$DW$167, DW_AT_TI_symbol_name("SlNetIfWifi_getSockName")
    1353                            .dwattr $C$DW$167, DW_AT_external
    1354                            .dwattr $C$DW$167, DW_AT_type(*$C$DW$T$289)
    1355                            .dwattr $C$DW$167, DW_AT_TI_begin_file("/vagrant/Q4_04/sdk_root/source/ti/drivers/net/wifi/sln
    1356                            .dwattr $C$DW$167, DW_AT_TI_begin_line(0xc3)
    1357                            .dwattr $C$DW$167, DW_AT_TI_begin_column(0x09)
    1358                            .dwattr $C$DW$167, DW_AT_decl_file("/vagrant/Q4_04/sdk_root/source/ti/drivers/net/wifi/slnetif
    1359                            .dwattr $C$DW$167, DW_AT_decl_line(0xc3)
    1360                            .dwattr $C$DW$167, DW_AT_decl_column(0x09)
    1361                            .dwattr $C$DW$167, DW_AT_TI_max_frame_size(0x10)
    1362                            .dwpsn  file "/vagrant/Q4_04/sdk_root/source/ti/drivers/net/wifi/slnetif/slnetifwifi.c",line 1
    1363                    
    1364                            .dwfde $C$DW$CIE, SlNetIfWifi_getSockName
    1365                    $C$DW$168       .dwtag  DW_TAG_formal_parameter
    1366                            .dwattr $C$DW$168, DW_AT_name("sd")
    1367                            .dwattr $C$DW$168, DW_AT_TI_symbol_name("sd")
    1368                            .dwattr $C$DW$168, DW_AT_type(*$C$DW$T$285)
    1369                            .dwattr $C$DW$168, DW_AT_location[DW_OP_reg0]
    1370                    
    1371                    $C$DW$169       .dwtag  DW_TAG_formal_parameter
    1372                            .dwattr $C$DW$169, DW_AT_name("sdContext")
    1373                            .dwattr $C$DW$169, DW_AT_TI_symbol_name("sdContext")
    1374                            .dwattr $C$DW$169, DW_AT_type(*$C$DW$T$3)
    1375                            .dwattr $C$DW$169, DW_AT_location[DW_OP_reg1]
TI ARM Assembler Unix v16.9.6 Thu Dec 28 17:45:45 2017

Tools Copyright (c) 1996-2017 Texas Instruments Incorporated
slnetifwifi.asm                                                      PAGE   26

    1376                    
    1377                    $C$DW$170       .dwtag  DW_TAG_formal_parameter
    1378                            .dwattr $C$DW$170, DW_AT_name("addr")
    1379                            .dwattr $C$DW$170, DW_AT_TI_symbol_name("addr")
    1380                            .dwattr $C$DW$170, DW_AT_type(*$C$DW$T$295)
    1381                            .dwattr $C$DW$170, DW_AT_location[DW_OP_reg2]
    1382                    
    1383                    $C$DW$171       .dwtag  DW_TAG_formal_parameter
    1384                            .dwattr $C$DW$171, DW_AT_name("addrlen")
    1385                            .dwattr $C$DW$171, DW_AT_TI_symbol_name("addrlen")
    1386                            .dwattr $C$DW$171, DW_AT_type(*$C$DW$T$297)
    1387                            .dwattr $C$DW$171, DW_AT_location[DW_OP_reg3]
    1388                    
    1389                    ;----------------------------------------------------------------------
    1390                    ; 195 | int32_t SlNetIfWifi_getSockName(int16_t sd, void *sdContext, SlNetSock_
    1391                    ;     | Addr_t *addr, SlNetSocklen_t *addrlen)                                 
    1392                    ;----------------------------------------------------------------------
    1393                    
    1394                    ;*****************************************************************************
    1395                    ;* FUNCTION NAME: SlNetIfWifi_getSockName                                    *
    1396                    ;*                                                                           *
    1397                    ;*   Regs Modified     : A1,SP                                               *
    1398                    ;*   Regs Used         : A1,A2,A3,A4,SP,LR                                   *
    1399                    ;*   Local Frame Size  : 0 Args + 16 Auto + 0 Save = 16 byte                 *
    1400                    ;*****************************************************************************
    1401 00000000           SlNetIfWifi_getSockName:
    1402                    ;* --------------------------------------------------------------------------*
    1403                            .dwcfi  cfa_offset, 0
    1404 00000000 0D10F1AD          SUB       SP, SP, #16           ; [DPU_3_PIPE]  ; [KEEP 32-BIT INS]
    1405                            .dwcfi  cfa_offset, 16
    1406                    $C$DW$172       .dwtag  DW_TAG_variable
    1407                            .dwattr $C$DW$172, DW_AT_name("sdContext")
    1408                            .dwattr $C$DW$172, DW_AT_TI_symbol_name("sdContext")
    1409                            .dwattr $C$DW$172, DW_AT_type(*$C$DW$T$3)
    1410                            .dwattr $C$DW$172, DW_AT_location[DW_OP_breg13 0]
    1411                    
    1412                    $C$DW$173       .dwtag  DW_TAG_variable
    1413                            .dwattr $C$DW$173, DW_AT_name("addr")
    1414                            .dwattr $C$DW$173, DW_AT_TI_symbol_name("addr")
    1415                            .dwattr $C$DW$173, DW_AT_type(*$C$DW$T$295)
    1416                            .dwattr $C$DW$173, DW_AT_location[DW_OP_breg13 4]
    1417                    
    1418                    $C$DW$174       .dwtag  DW_TAG_variable
    1419                            .dwattr $C$DW$174, DW_AT_name("addrlen")
    1420                            .dwattr $C$DW$174, DW_AT_TI_symbol_name("addrlen")
    1421                            .dwattr $C$DW$174, DW_AT_type(*$C$DW$T$297)
    1422                            .dwattr $C$DW$174, DW_AT_location[DW_OP_breg13 8]
    1423                    
    1424                    $C$DW$175       .dwtag  DW_TAG_variable
    1425                            .dwattr $C$DW$175, DW_AT_name("sd")
    1426                            .dwattr $C$DW$175, DW_AT_TI_symbol_name("sd")
    1427                            .dwattr $C$DW$175, DW_AT_type(*$C$DW$T$285)
    1428                            .dwattr $C$DW$175, DW_AT_location[DW_OP_breg13 12]
    1429                    
    1430                    ;----------------------------------------------------------------------
TI ARM Assembler Unix v16.9.6 Thu Dec 28 17:45:45 2017

Tools Copyright (c) 1996-2017 Texas Instruments Incorporated
slnetifwifi.asm                                                      PAGE   27

    1431                    ; 197 | // Not implemented in NWP                                              
    1432                    ;----------------------------------------------------------------------
    1433 00000004 9302              STR       A4, [SP, #8]          ; [DPU_3_PIPE] |196|  ; [ORIG 16-BIT INS]
    1434 00000006 9201              STR       A3, [SP, #4]          ; [DPU_3_PIPE] |196|  ; [ORIG 16-BIT INS]
    1435 00000008 9100              STR       A2, [SP, #0]          ; [DPU_3_PIPE] |196|  ; [ORIG 16-BIT INS]
    1436 0000000a 000CF8AD          STRH      A1, [SP, #12]         ; [DPU_3_PIPE] |196|  ; [KEEP 32-BIT INS]
    1437                            .dwpsn  file "/vagrant/Q4_04/sdk_root/source/ti/drivers/net/wifi/slnetif/slnetifwifi.c",line 1
    1438                    ;----------------------------------------------------------------------
    1439                    ; 198 | return SLNETERR_INVALPARAM;                                            
    1440                    ;----------------------------------------------------------------------
    1441 0000000e 4801              LDR       A1, $C$CON2           ; [DPU_3_PIPE] |198|  ; [ORIG 16-BIT INS]
    1442                            .dwpsn  file "/vagrant/Q4_04/sdk_root/source/ti/drivers/net/wifi/slnetif/slnetifwifi.c",line 1
    1443 00000010 B004              ADD       SP, SP, #16           ; [DPU_3_PIPE]  ; [ORIG 16-BIT INS]
    1444                            .dwcfi  cfa_offset, 0
    1445                    $C$DW$176       .dwtag  DW_TAG_TI_branch
    1446                            .dwattr $C$DW$176, DW_AT_low_pc(0x00)
    1447                            .dwattr $C$DW$176, DW_AT_TI_return
    1448                    
    1449 00000012 4770              BX        LR                    ; [DPU_3_PIPE]  ; [ORIG 16-BIT INS]
    1450                            ; BRANCH OCCURS                  ; [] 
    1451                            .dwattr $C$DW$167, DW_AT_TI_end_file("/vagrant/Q4_04/sdk_root/source/ti/drivers/net/wifi/slnet
    1452                            .dwattr $C$DW$167, DW_AT_TI_end_line(0xc7)
    1453                            .dwattr $C$DW$167, DW_AT_TI_end_column(0x01)
    1454                            .dwendentry
    1455                            .dwendtag $C$DW$167
    1456                    
    1457 00000000                   .sect   ".text:SlNetIfWifi_select"
    1458                            .clink
    1459                            .thumbfunc SlNetIfWifi_select
    1460 00000000                   .thumb
    1461                            .global SlNetIfWifi_select
    1462                    
    1463                    $C$DW$177       .dwtag  DW_TAG_subprogram
    1464                            .dwattr $C$DW$177, DW_AT_name("SlNetIfWifi_select")
    1465                            .dwattr $C$DW$177, DW_AT_low_pc(SlNetIfWifi_select)
    1466                            .dwattr $C$DW$177, DW_AT_high_pc(0x00)
    1467                            .dwattr $C$DW$177, DW_AT_TI_symbol_name("SlNetIfWifi_select")
    1468                            .dwattr $C$DW$177, DW_AT_external
    1469                            .dwattr $C$DW$177, DW_AT_type(*$C$DW$T$289)
    1470                            .dwattr $C$DW$177, DW_AT_TI_begin_file("/vagrant/Q4_04/sdk_root/source/ti/drivers/net/wifi/sln
    1471                            .dwattr $C$DW$177, DW_AT_TI_begin_line(0xcf)
    1472                            .dwattr $C$DW$177, DW_AT_TI_begin_column(0x09)
    1473                            .dwattr $C$DW$177, DW_AT_decl_file("/vagrant/Q4_04/sdk_root/source/ti/drivers/net/wifi/slnetif
    1474                            .dwattr $C$DW$177, DW_AT_decl_line(0xcf)
    1475                            .dwattr $C$DW$177, DW_AT_decl_column(0x09)
    1476                            .dwattr $C$DW$177, DW_AT_TI_max_frame_size(0x18)
    1477                            .dwpsn  file "/vagrant/Q4_04/sdk_root/source/ti/drivers/net/wifi/slnetif/slnetifwifi.c",line 2
    1478                    
    1479                            .dwfde $C$DW$CIE, SlNetIfWifi_select
    1480                    $C$DW$178       .dwtag  DW_TAG_formal_parameter
    1481                            .dwattr $C$DW$178, DW_AT_name("ifContext")
    1482                            .dwattr $C$DW$178, DW_AT_TI_symbol_name("ifContext")
    1483                            .dwattr $C$DW$178, DW_AT_type(*$C$DW$T$3)
    1484                            .dwattr $C$DW$178, DW_AT_location[DW_OP_reg0]
    1485                    
TI ARM Assembler Unix v16.9.6 Thu Dec 28 17:45:45 2017

Tools Copyright (c) 1996-2017 Texas Instruments Incorporated
slnetifwifi.asm                                                      PAGE   28

    1486                    $C$DW$179       .dwtag  DW_TAG_formal_parameter
    1487                            .dwattr $C$DW$179, DW_AT_name("nfds")
    1488                            .dwattr $C$DW$179, DW_AT_TI_symbol_name("nfds")
    1489                            .dwattr $C$DW$179, DW_AT_type(*$C$DW$T$285)
    1490                            .dwattr $C$DW$179, DW_AT_location[DW_OP_reg1]
    1491                    
    1492                    $C$DW$180       .dwtag  DW_TAG_formal_parameter
    1493                            .dwattr $C$DW$180, DW_AT_name("readsds")
    1494                            .dwattr $C$DW$180, DW_AT_TI_symbol_name("readsds")
    1495                            .dwattr $C$DW$180, DW_AT_type(*$C$DW$T$309)
    1496                            .dwattr $C$DW$180, DW_AT_location[DW_OP_reg2]
    1497                    
    1498                    $C$DW$181       .dwtag  DW_TAG_formal_parameter
    1499                            .dwattr $C$DW$181, DW_AT_name("writesds")
    1500                            .dwattr $C$DW$181, DW_AT_TI_symbol_name("writesds")
    1501                            .dwattr $C$DW$181, DW_AT_type(*$C$DW$T$309)
    1502                            .dwattr $C$DW$181, DW_AT_location[DW_OP_reg3]
    1503                    
    1504                    $C$DW$182       .dwtag  DW_TAG_formal_parameter
    1505                            .dwattr $C$DW$182, DW_AT_name("exceptsds")
    1506                            .dwattr $C$DW$182, DW_AT_TI_symbol_name("exceptsds")
    1507                            .dwattr $C$DW$182, DW_AT_type(*$C$DW$T$309)
    1508                            .dwattr $C$DW$182, DW_AT_location[DW_OP_breg13 24]
    1509                    
    1510                    $C$DW$183       .dwtag  DW_TAG_formal_parameter
    1511                            .dwattr $C$DW$183, DW_AT_name("timeout")
    1512                            .dwattr $C$DW$183, DW_AT_TI_symbol_name("timeout")
    1513                            .dwattr $C$DW$183, DW_AT_type(*$C$DW$T$311)
    1514                            .dwattr $C$DW$183, DW_AT_location[DW_OP_breg13 28]
    1515                    
    1516                    ;----------------------------------------------------------------------
    1517                    ; 207 | int32_t SlNetIfWifi_select(void *ifContext, int16_t nfds, SlNetSock_SdS
    1518                    ;     | et_t *readsds, SlNetSock_SdSet_t *writesds, SlNetSock_SdSet_t *exceptsd
    1519                    ;     | s, SlNetSock_Timeval_t *timeout)                                       
    1520                    ;----------------------------------------------------------------------
    1521                    
    1522                    ;*****************************************************************************
    1523                    ;* FUNCTION NAME: SlNetIfWifi_select                                         *
    1524                    ;*                                                                           *
    1525                    ;*   Regs Modified     : A1,A2,A3,A4,V9,SP,LR,SR                             *
    1526                    ;*   Regs Used         : A1,A2,A3,A4,V9,SP,LR,SR                             *
    1527                    ;*   Local Frame Size  : 4 Args + 16 Auto + 4 Save = 24 byte                 *
    1528                    ;*****************************************************************************
    1529 00000000           SlNetIfWifi_select:
    1530                    ;* --------------------------------------------------------------------------*
    1531                            .dwcfi  cfa_offset, 0
    1532 00000000 B500              PUSH      {LR}                  ; [DPU_3_PIPE]  ; [ORIG 16-BIT INS]
    1533                            .dwcfi  cfa_offset, 4
    1534                            .dwcfi  save_reg_to_mem, 14, -4
    1535 00000002 0D14F1AD          SUB       SP, SP, #20           ; [DPU_3_PIPE]  ; [KEEP 32-BIT INS]
    1536                            .dwcfi  cfa_offset, 24
    1537                    $C$DW$184       .dwtag  DW_TAG_variable
    1538                            .dwattr $C$DW$184, DW_AT_name("ifContext")
    1539                            .dwattr $C$DW$184, DW_AT_TI_symbol_name("ifContext")
    1540                            .dwattr $C$DW$184, DW_AT_type(*$C$DW$T$3)
TI ARM Assembler Unix v16.9.6 Thu Dec 28 17:45:45 2017

Tools Copyright (c) 1996-2017 Texas Instruments Incorporated
slnetifwifi.asm                                                      PAGE   29

    1541                            .dwattr $C$DW$184, DW_AT_location[DW_OP_breg13 4]
    1542                    
    1543                    $C$DW$185       .dwtag  DW_TAG_variable
    1544                            .dwattr $C$DW$185, DW_AT_name("readsds")
    1545                            .dwattr $C$DW$185, DW_AT_TI_symbol_name("readsds")
    1546                            .dwattr $C$DW$185, DW_AT_type(*$C$DW$T$309)
    1547                            .dwattr $C$DW$185, DW_AT_location[DW_OP_breg13 8]
    1548                    
    1549                    $C$DW$186       .dwtag  DW_TAG_variable
    1550                            .dwattr $C$DW$186, DW_AT_name("writesds")
    1551                            .dwattr $C$DW$186, DW_AT_TI_symbol_name("writesds")
    1552                            .dwattr $C$DW$186, DW_AT_type(*$C$DW$T$309)
    1553                            .dwattr $C$DW$186, DW_AT_location[DW_OP_breg13 12]
    1554                    
    1555                    $C$DW$187       .dwtag  DW_TAG_variable
    1556                            .dwattr $C$DW$187, DW_AT_name("nfds")
    1557                            .dwattr $C$DW$187, DW_AT_TI_symbol_name("nfds")
    1558                            .dwattr $C$DW$187, DW_AT_type(*$C$DW$T$285)
    1559                            .dwattr $C$DW$187, DW_AT_location[DW_OP_breg13 16]
    1560                    
    1561 00000006 9303              STR       A4, [SP, #12]         ; [DPU_3_PIPE] |208|  ; [ORIG 16-BIT INS]
    1562 00000008 9202              STR       A3, [SP, #8]          ; [DPU_3_PIPE] |208|  ; [ORIG 16-BIT INS]
    1563 0000000a 1010F8AD          STRH      A2, [SP, #16]         ; [DPU_3_PIPE] |208|  ; [KEEP 32-BIT INS]
    1564 0000000e 9001              STR       A1, [SP, #4]          ; [DPU_3_PIPE] |208|  ; [ORIG 16-BIT INS]
    1565                            .dwpsn  file "/vagrant/Q4_04/sdk_root/source/ti/drivers/net/wifi/slnetif/slnetifwifi.c",line 2
    1566                    ;----------------------------------------------------------------------
    1567                    ; 209 | return sl_Select(nfds, (SlFdSet_t *)readsds, (SlFdSet_t *)writesds, (Sl
    1568                    ;     | FdSet_t *)exceptsds, (struct SlTimeval_t *)timeout);                   
    1569                    ;----------------------------------------------------------------------
    1570 00000010 9807              LDR       A1, [SP, #28]         ; [DPU_3_PIPE] |209|  ; [ORIG 16-BIT INS]
    1571 00000012 9000              STR       A1, [SP, #0]          ; [DPU_3_PIPE] |209|  ; [ORIG 16-BIT INS]
    1572 00000014 9B06              LDR       A4, [SP, #24]         ; [DPU_3_PIPE] |209|  ; [ORIG 16-BIT INS]
    1573 00000016 9902              LDR       A2, [SP, #8]          ; [DPU_3_PIPE] |209|  ; [ORIG 16-BIT INS]
    1574 00000018 9A03              LDR       A3, [SP, #12]         ; [DPU_3_PIPE] |209|  ; [ORIG 16-BIT INS]
    1575 0000001a 0010F9BD          LDRSH     A1, [SP, #16]         ; [DPU_3_PIPE] |209|  ; [KEEP 32-BIT INS]
    1576                    $C$DW$188       .dwtag  DW_TAG_TI_branch
    1577                            .dwattr $C$DW$188, DW_AT_low_pc(0x00)
    1578                            .dwattr $C$DW$188, DW_AT_name("sl_Select")
    1579                            .dwattr $C$DW$188, DW_AT_TI_call
    1580                    
    1581 0000001e FFFEF7FF!         BL        sl_Select             ; [DPU_3_PIPE] |209|  ; [KEEP 32-BIT INS]
    1582                            ; CALL OCCURS {sl_Select }       ; [] |209| 
    1583                            .dwpsn  file "/vagrant/Q4_04/sdk_root/source/ti/drivers/net/wifi/slnetif/slnetifwifi.c",line 2
    1584 00000022 B005              ADD       SP, SP, #20           ; [DPU_3_PIPE]  ; [ORIG 16-BIT INS]
    1585                            .dwcfi  cfa_offset, 4
    1586                    $C$DW$189       .dwtag  DW_TAG_TI_branch
    1587                            .dwattr $C$DW$189, DW_AT_low_pc(0x00)
    1588                            .dwattr $C$DW$189, DW_AT_TI_return
    1589                    
    1590 00000024 BD00              POP       {PC}                  ; [DPU_3_PIPE]  ; [ORIG 16-BIT INS]
    1591                            .dwcfi  cfa_offset, 0
    1592                            ; BRANCH OCCURS                  ; [] 
    1593                            .dwattr $C$DW$177, DW_AT_TI_end_file("/vagrant/Q4_04/sdk_root/source/ti/drivers/net/wifi/slnet
    1594                            .dwattr $C$DW$177, DW_AT_TI_end_line(0xd2)
    1595                            .dwattr $C$DW$177, DW_AT_TI_end_column(0x01)
TI ARM Assembler Unix v16.9.6 Thu Dec 28 17:45:45 2017

Tools Copyright (c) 1996-2017 Texas Instruments Incorporated
slnetifwifi.asm                                                      PAGE   30

    1596                            .dwendentry
    1597                            .dwendtag $C$DW$177
    1598                    
    1599 00000000                   .sect   ".text:SlNetIfWifi_setSockOpt"
    1600                            .clink
    1601                            .thumbfunc SlNetIfWifi_setSockOpt
    1602 00000000                   .thumb
    1603                            .global SlNetIfWifi_setSockOpt
    1604                    
    1605                    $C$DW$190       .dwtag  DW_TAG_subprogram
    1606                            .dwattr $C$DW$190, DW_AT_name("SlNetIfWifi_setSockOpt")
    1607                            .dwattr $C$DW$190, DW_AT_low_pc(SlNetIfWifi_setSockOpt)
    1608                            .dwattr $C$DW$190, DW_AT_high_pc(0x00)
    1609                            .dwattr $C$DW$190, DW_AT_TI_symbol_name("SlNetIfWifi_setSockOpt")
    1610                            .dwattr $C$DW$190, DW_AT_external
    1611                            .dwattr $C$DW$190, DW_AT_type(*$C$DW$T$289)
    1612                            .dwattr $C$DW$190, DW_AT_TI_begin_file("/vagrant/Q4_04/sdk_root/source/ti/drivers/net/wifi/sln
    1613                            .dwattr $C$DW$190, DW_AT_TI_begin_line(0xda)
    1614                            .dwattr $C$DW$190, DW_AT_TI_begin_column(0x09)
    1615                            .dwattr $C$DW$190, DW_AT_decl_file("/vagrant/Q4_04/sdk_root/source/ti/drivers/net/wifi/slnetif
    1616                            .dwattr $C$DW$190, DW_AT_decl_line(0xda)
    1617                            .dwattr $C$DW$190, DW_AT_decl_column(0x09)
    1618                            .dwattr $C$DW$190, DW_AT_TI_max_frame_size(0x18)
    1619                            .dwpsn  file "/vagrant/Q4_04/sdk_root/source/ti/drivers/net/wifi/slnetif/slnetifwifi.c",line 2
    1620                    
    1621                            .dwfde $C$DW$CIE, SlNetIfWifi_setSockOpt
    1622                    $C$DW$191       .dwtag  DW_TAG_formal_parameter
    1623                            .dwattr $C$DW$191, DW_AT_name("sd")
    1624                            .dwattr $C$DW$191, DW_AT_TI_symbol_name("sd")
    1625                            .dwattr $C$DW$191, DW_AT_type(*$C$DW$T$285)
    1626                            .dwattr $C$DW$191, DW_AT_location[DW_OP_reg0]
    1627                    
    1628                    $C$DW$192       .dwtag  DW_TAG_formal_parameter
    1629                            .dwattr $C$DW$192, DW_AT_name("sdContext")
    1630                            .dwattr $C$DW$192, DW_AT_TI_symbol_name("sdContext")
    1631                            .dwattr $C$DW$192, DW_AT_type(*$C$DW$T$3)
    1632                            .dwattr $C$DW$192, DW_AT_location[DW_OP_reg1]
    1633                    
    1634                    $C$DW$193       .dwtag  DW_TAG_formal_parameter
    1635                            .dwattr $C$DW$193, DW_AT_name("level")
    1636                            .dwattr $C$DW$193, DW_AT_TI_symbol_name("level")
    1637                            .dwattr $C$DW$193, DW_AT_type(*$C$DW$T$285)
    1638                            .dwattr $C$DW$193, DW_AT_location[DW_OP_reg2]
    1639                    
    1640                    $C$DW$194       .dwtag  DW_TAG_formal_parameter
    1641                            .dwattr $C$DW$194, DW_AT_name("optname")
    1642                            .dwattr $C$DW$194, DW_AT_TI_symbol_name("optname")
    1643                            .dwattr $C$DW$194, DW_AT_type(*$C$DW$T$285)
    1644                            .dwattr $C$DW$194, DW_AT_location[DW_OP_reg3]
    1645                    
    1646                    $C$DW$195       .dwtag  DW_TAG_formal_parameter
    1647                            .dwattr $C$DW$195, DW_AT_name("optval")
    1648                            .dwattr $C$DW$195, DW_AT_TI_symbol_name("optval")
    1649                            .dwattr $C$DW$195, DW_AT_type(*$C$DW$T$3)
    1650                            .dwattr $C$DW$195, DW_AT_location[DW_OP_breg13 24]
TI ARM Assembler Unix v16.9.6 Thu Dec 28 17:45:45 2017

Tools Copyright (c) 1996-2017 Texas Instruments Incorporated
slnetifwifi.asm                                                      PAGE   31

    1651                    
    1652                    $C$DW$196       .dwtag  DW_TAG_formal_parameter
    1653                            .dwattr $C$DW$196, DW_AT_name("optlen")
    1654                            .dwattr $C$DW$196, DW_AT_TI_symbol_name("optlen")
    1655                            .dwattr $C$DW$196, DW_AT_type(*$C$DW$T$296)
    1656                            .dwattr $C$DW$196, DW_AT_location[DW_OP_breg13 28]
    1657                    
    1658                    ;----------------------------------------------------------------------
    1659                    ; 218 | int32_t SlNetIfWifi_setSockOpt(int16_t sd, void *sdContext, int16_t lev
    1660                    ;     | el, int16_t optname, void *optval, SlNetSocklen_t optlen)              
    1661                    ;----------------------------------------------------------------------
    1662                    
    1663                    ;*****************************************************************************
    1664                    ;* FUNCTION NAME: SlNetIfWifi_setSockOpt                                     *
    1665                    ;*                                                                           *
    1666                    ;*   Regs Modified     : A1,A2,A3,A4,V4,V9,SP,LR,SR                          *
    1667                    ;*   Regs Used         : A1,A2,A3,A4,V4,V9,SP,LR,SR                          *
    1668                    ;*   Local Frame Size  : 4 Args + 12 Auto + 8 Save = 24 byte                 *
    1669                    ;*****************************************************************************
    1670 00000000           SlNetIfWifi_setSockOpt:
    1671                    ;* --------------------------------------------------------------------------*
    1672                            .dwcfi  cfa_offset, 0
    1673 00000000 B58F              PUSH      {A1, A2, A3, A4, V4, LR} ; [DPU_3_PIPE]  ; [ORIG 16-BIT INS]
    1674                            .dwcfi  cfa_offset, 24
    1675                            .dwcfi  save_reg_to_mem, 14, -4
    1676                            .dwcfi  save_reg_to_mem, 7, -8
    1677                            .dwcfi  save_reg_to_mem, 3, -12
    1678                            .dwcfi  save_reg_to_mem, 2, -16
    1679                            .dwcfi  save_reg_to_mem, 1, -20
    1680                            .dwcfi  save_reg_to_mem, 0, -24
    1681 00000002 AF06              ADD       V4, SP, #24           ; [DPU_3_PIPE]  ; [ORIG 16-BIT INS]
    1682                    $C$DW$197       .dwtag  DW_TAG_variable
    1683                            .dwattr $C$DW$197, DW_AT_name("sdContext")
    1684                            .dwattr $C$DW$197, DW_AT_TI_symbol_name("sdContext")
    1685                            .dwattr $C$DW$197, DW_AT_type(*$C$DW$T$3)
    1686                            .dwattr $C$DW$197, DW_AT_location[DW_OP_breg13 4]
    1687                    
    1688                    $C$DW$198       .dwtag  DW_TAG_variable
    1689                            .dwattr $C$DW$198, DW_AT_name("sd")
    1690                            .dwattr $C$DW$198, DW_AT_TI_symbol_name("sd")
    1691                            .dwattr $C$DW$198, DW_AT_type(*$C$DW$T$285)
    1692                            .dwattr $C$DW$198, DW_AT_location[DW_OP_breg13 8]
    1693                    
    1694                    $C$DW$199       .dwtag  DW_TAG_variable
    1695                            .dwattr $C$DW$199, DW_AT_name("level")
    1696                            .dwattr $C$DW$199, DW_AT_TI_symbol_name("level")
    1697                            .dwattr $C$DW$199, DW_AT_type(*$C$DW$T$285)
    1698                            .dwattr $C$DW$199, DW_AT_location[DW_OP_breg13 10]
    1699                    
    1700                    $C$DW$200       .dwtag  DW_TAG_variable
    1701                            .dwattr $C$DW$200, DW_AT_name("optname")
    1702                            .dwattr $C$DW$200, DW_AT_TI_symbol_name("optname")
    1703                            .dwattr $C$DW$200, DW_AT_type(*$C$DW$T$285)
    1704                            .dwattr $C$DW$200, DW_AT_location[DW_OP_breg13 12]
    1705                    
TI ARM Assembler Unix v16.9.6 Thu Dec 28 17:45:45 2017

Tools Copyright (c) 1996-2017 Texas Instruments Incorporated
slnetifwifi.asm                                                      PAGE   32

    1706 00000004 300CF8AD          STRH      A4, [SP, #12]         ; [DPU_3_PIPE] |219|  ; [KEEP 32-BIT INS]
    1707 00000008 200AF8AD          STRH      A3, [SP, #10]         ; [DPU_3_PIPE] |219|  ; [KEEP 32-BIT INS]
    1708 0000000c 9101              STR       A2, [SP, #4]          ; [DPU_3_PIPE] |219|  ; [ORIG 16-BIT INS]
    1709 0000000e 0008F8AD          STRH      A1, [SP, #8]          ; [DPU_3_PIPE] |219|  ; [KEEP 32-BIT INS]
    1710                            .dwpsn  file "/vagrant/Q4_04/sdk_root/source/ti/drivers/net/wifi/slnetif/slnetifwifi.c",line 2
    1711                    ;----------------------------------------------------------------------
    1712                    ; 220 | return sl_SetSockOpt(sd, level, optname, optval, optlen);              
    1713                    ;----------------------------------------------------------------------
    1714 00000012 88B8              LDRH      A1, [V4, #4]          ; [DPU_3_PIPE] |220|  ; [ORIG 16-BIT INS]
    1715 00000014 9000              STR       A1, [SP, #0]          ; [DPU_3_PIPE] |220|  ; [ORIG 16-BIT INS]
    1716 00000016 683B              LDR       A4, [V4, #0]          ; [DPU_3_PIPE] |220|  ; [ORIG 16-BIT INS]
    1717 00000018 100AF9BD          LDRSH     A2, [SP, #10]         ; [DPU_3_PIPE] |220|  ; [KEEP 32-BIT INS]
    1718 0000001c 200CF9BD          LDRSH     A3, [SP, #12]         ; [DPU_3_PIPE] |220|  ; [KEEP 32-BIT INS]
    1719 00000020 0008F9BD          LDRSH     A1, [SP, #8]          ; [DPU_3_PIPE] |220|  ; [KEEP 32-BIT INS]
    1720                    $C$DW$201       .dwtag  DW_TAG_TI_branch
    1721                            .dwattr $C$DW$201, DW_AT_low_pc(0x00)
    1722                            .dwattr $C$DW$201, DW_AT_name("sl_SetSockOpt")
    1723                            .dwattr $C$DW$201, DW_AT_TI_call
    1724                    
    1725 00000024 FFFEF7FF!         BL        sl_SetSockOpt         ; [DPU_3_PIPE] |220|  ; [KEEP 32-BIT INS]
    1726                            ; CALL OCCURS {sl_SetSockOpt }   ; [] |220| 
    1727                            .dwpsn  file "/vagrant/Q4_04/sdk_root/source/ti/drivers/net/wifi/slnetif/slnetifwifi.c",line 2
    1728 00000028 9000              STR       A1, [SP, #0]          ; [DPU_3_PIPE]  ; [ORIG 16-BIT INS]
    1729                    $C$DW$202       .dwtag  DW_TAG_TI_branch
    1730                            .dwattr $C$DW$202, DW_AT_low_pc(0x00)
    1731                            .dwattr $C$DW$202, DW_AT_TI_return
    1732                    
    1733 0000002a BD8F              POP       {A1, A2, A3, A4, V4, PC} ; [DPU_3_PIPE]  ; [ORIG 16-BIT INS]
    1734                            .dwcfi  cfa_offset, 0
    1735                            .dwcfi  restore_reg, 7
    1736                            .dwcfi  restore_reg, 3
    1737                            .dwcfi  restore_reg, 2
    1738                            .dwcfi  restore_reg, 1
    1739                            .dwcfi  restore_reg, 0
    1740                            ; BRANCH OCCURS                  ; [] 
    1741                            .dwattr $C$DW$190, DW_AT_TI_end_file("/vagrant/Q4_04/sdk_root/source/ti/drivers/net/wifi/slnet
    1742                            .dwattr $C$DW$190, DW_AT_TI_end_line(0xdd)
    1743                            .dwattr $C$DW$190, DW_AT_TI_end_column(0x01)
    1744                            .dwendentry
    1745                            .dwendtag $C$DW$190
    1746                    
    1747 00000000                   .sect   ".text:SlNetIfWifi_getSockOpt"
    1748                            .clink
    1749                            .thumbfunc SlNetIfWifi_getSockOpt
    1750 00000000                   .thumb
    1751                            .global SlNetIfWifi_getSockOpt
    1752                    
    1753                    $C$DW$203       .dwtag  DW_TAG_subprogram
    1754                            .dwattr $C$DW$203, DW_AT_name("SlNetIfWifi_getSockOpt")
    1755                            .dwattr $C$DW$203, DW_AT_low_pc(SlNetIfWifi_getSockOpt)
    1756                            .dwattr $C$DW$203, DW_AT_high_pc(0x00)
    1757                            .dwattr $C$DW$203, DW_AT_TI_symbol_name("SlNetIfWifi_getSockOpt")
    1758                            .dwattr $C$DW$203, DW_AT_external
    1759                            .dwattr $C$DW$203, DW_AT_type(*$C$DW$T$289)
    1760                            .dwattr $C$DW$203, DW_AT_TI_begin_file("/vagrant/Q4_04/sdk_root/source/ti/drivers/net/wifi/sln
TI ARM Assembler Unix v16.9.6 Thu Dec 28 17:45:45 2017

Tools Copyright (c) 1996-2017 Texas Instruments Incorporated
slnetifwifi.asm                                                      PAGE   33

    1761                            .dwattr $C$DW$203, DW_AT_TI_begin_line(0xe5)
    1762                            .dwattr $C$DW$203, DW_AT_TI_begin_column(0x09)
    1763                            .dwattr $C$DW$203, DW_AT_decl_file("/vagrant/Q4_04/sdk_root/source/ti/drivers/net/wifi/slnetif
    1764                            .dwattr $C$DW$203, DW_AT_decl_line(0xe5)
    1765                            .dwattr $C$DW$203, DW_AT_decl_column(0x09)
    1766                            .dwattr $C$DW$203, DW_AT_TI_max_frame_size(0x18)
    1767                            .dwpsn  file "/vagrant/Q4_04/sdk_root/source/ti/drivers/net/wifi/slnetif/slnetifwifi.c",line 2
    1768                    
    1769                            .dwfde $C$DW$CIE, SlNetIfWifi_getSockOpt
    1770                    $C$DW$204       .dwtag  DW_TAG_formal_parameter
    1771                            .dwattr $C$DW$204, DW_AT_name("sd")
    1772                            .dwattr $C$DW$204, DW_AT_TI_symbol_name("sd")
    1773                            .dwattr $C$DW$204, DW_AT_type(*$C$DW$T$285)
    1774                            .dwattr $C$DW$204, DW_AT_location[DW_OP_reg0]
    1775                    
    1776                    $C$DW$205       .dwtag  DW_TAG_formal_parameter
    1777                            .dwattr $C$DW$205, DW_AT_name("sdContext")
    1778                            .dwattr $C$DW$205, DW_AT_TI_symbol_name("sdContext")
    1779                            .dwattr $C$DW$205, DW_AT_type(*$C$DW$T$3)
    1780                            .dwattr $C$DW$205, DW_AT_location[DW_OP_reg1]
    1781                    
    1782                    $C$DW$206       .dwtag  DW_TAG_formal_parameter
    1783                            .dwattr $C$DW$206, DW_AT_name("level")
    1784                            .dwattr $C$DW$206, DW_AT_TI_symbol_name("level")
    1785                            .dwattr $C$DW$206, DW_AT_type(*$C$DW$T$285)
    1786                            .dwattr $C$DW$206, DW_AT_location[DW_OP_reg2]
    1787                    
    1788                    $C$DW$207       .dwtag  DW_TAG_formal_parameter
    1789                            .dwattr $C$DW$207, DW_AT_name("optname")
    1790                            .dwattr $C$DW$207, DW_AT_TI_symbol_name("optname")
    1791                            .dwattr $C$DW$207, DW_AT_type(*$C$DW$T$285)
    1792                            .dwattr $C$DW$207, DW_AT_location[DW_OP_reg3]
    1793                    
    1794                    $C$DW$208       .dwtag  DW_TAG_formal_parameter
    1795                            .dwattr $C$DW$208, DW_AT_name("optval")
    1796                            .dwattr $C$DW$208, DW_AT_TI_symbol_name("optval")
    1797                            .dwattr $C$DW$208, DW_AT_type(*$C$DW$T$3)
    1798                            .dwattr $C$DW$208, DW_AT_location[DW_OP_breg13 24]
    1799                    
    1800                    $C$DW$209       .dwtag  DW_TAG_formal_parameter
    1801                            .dwattr $C$DW$209, DW_AT_name("optlen")
    1802                            .dwattr $C$DW$209, DW_AT_TI_symbol_name("optlen")
    1803                            .dwattr $C$DW$209, DW_AT_type(*$C$DW$T$297)
    1804                            .dwattr $C$DW$209, DW_AT_location[DW_OP_breg13 28]
    1805                    
    1806                    ;----------------------------------------------------------------------
    1807                    ; 229 | int32_t SlNetIfWifi_getSockOpt(int16_t sd, void *sdContext, int16_t lev
    1808                    ;     | el, int16_t optname, void *optval, SlNetSocklen_t *optlen)             
    1809                    ;----------------------------------------------------------------------
    1810                    
    1811                    ;*****************************************************************************
    1812                    ;* FUNCTION NAME: SlNetIfWifi_getSockOpt                                     *
    1813                    ;*                                                                           *
    1814                    ;*   Regs Modified     : A1,A2,A3,A4,V9,SP,LR,SR                             *
    1815                    ;*   Regs Used         : A1,A2,A3,A4,V9,SP,LR,SR                             *
TI ARM Assembler Unix v16.9.6 Thu Dec 28 17:45:45 2017

Tools Copyright (c) 1996-2017 Texas Instruments Incorporated
slnetifwifi.asm                                                      PAGE   34

    1816                    ;*   Local Frame Size  : 4 Args + 12 Auto + 4 Save = 20 byte                 *
    1817                    ;*****************************************************************************
    1818 00000000           SlNetIfWifi_getSockOpt:
    1819                    ;* --------------------------------------------------------------------------*
    1820                            .dwcfi  cfa_offset, 0
    1821 00000000 B500              PUSH      {LR}                  ; [DPU_3_PIPE]  ; [ORIG 16-BIT INS]
    1822                            .dwcfi  cfa_offset, 4
    1823                            .dwcfi  save_reg_to_mem, 14, -4
    1824 00000002 0D14F1AD          SUB       SP, SP, #20           ; [DPU_3_PIPE]  ; [KEEP 32-BIT INS]
    1825                            .dwcfi  cfa_offset, 24
    1826                    $C$DW$210       .dwtag  DW_TAG_variable
    1827                            .dwattr $C$DW$210, DW_AT_name("sdContext")
    1828                            .dwattr $C$DW$210, DW_AT_TI_symbol_name("sdContext")
    1829                            .dwattr $C$DW$210, DW_AT_type(*$C$DW$T$3)
    1830                            .dwattr $C$DW$210, DW_AT_location[DW_OP_breg13 4]
    1831                    
    1832                    $C$DW$211       .dwtag  DW_TAG_variable
    1833                            .dwattr $C$DW$211, DW_AT_name("sd")
    1834                            .dwattr $C$DW$211, DW_AT_TI_symbol_name("sd")
    1835                            .dwattr $C$DW$211, DW_AT_type(*$C$DW$T$285)
    1836                            .dwattr $C$DW$211, DW_AT_location[DW_OP_breg13 8]
    1837                    
    1838                    $C$DW$212       .dwtag  DW_TAG_variable
    1839                            .dwattr $C$DW$212, DW_AT_name("level")
    1840                            .dwattr $C$DW$212, DW_AT_TI_symbol_name("level")
    1841                            .dwattr $C$DW$212, DW_AT_type(*$C$DW$T$285)
    1842                            .dwattr $C$DW$212, DW_AT_location[DW_OP_breg13 10]
    1843                    
    1844                    $C$DW$213       .dwtag  DW_TAG_variable
    1845                            .dwattr $C$DW$213, DW_AT_name("optname")
    1846                            .dwattr $C$DW$213, DW_AT_TI_symbol_name("optname")
    1847                            .dwattr $C$DW$213, DW_AT_type(*$C$DW$T$285)
    1848                            .dwattr $C$DW$213, DW_AT_location[DW_OP_breg13 12]
    1849                    
    1850 00000006 300CF8AD          STRH      A4, [SP, #12]         ; [DPU_3_PIPE] |230|  ; [KEEP 32-BIT INS]
    1851 0000000a 200AF8AD          STRH      A3, [SP, #10]         ; [DPU_3_PIPE] |230|  ; [KEEP 32-BIT INS]
    1852 0000000e 9101              STR       A2, [SP, #4]          ; [DPU_3_PIPE] |230|  ; [ORIG 16-BIT INS]
    1853 00000010 0008F8AD          STRH      A1, [SP, #8]          ; [DPU_3_PIPE] |230|  ; [KEEP 32-BIT INS]
    1854                            .dwpsn  file "/vagrant/Q4_04/sdk_root/source/ti/drivers/net/wifi/slnetif/slnetifwifi.c",line 2
    1855                    ;----------------------------------------------------------------------
    1856                    ; 231 | return sl_GetSockOpt(sd, level, optname, optval, optlen);              
    1857                    ;----------------------------------------------------------------------
    1858 00000014 9807              LDR       A1, [SP, #28]         ; [DPU_3_PIPE] |231|  ; [ORIG 16-BIT INS]
    1859 00000016 9000              STR       A1, [SP, #0]          ; [DPU_3_PIPE] |231|  ; [ORIG 16-BIT INS]
    1860 00000018 9B06              LDR       A4, [SP, #24]         ; [DPU_3_PIPE] |231|  ; [ORIG 16-BIT INS]
    1861 0000001a 100AF9BD          LDRSH     A2, [SP, #10]         ; [DPU_3_PIPE] |231|  ; [KEEP 32-BIT INS]
    1862 0000001e 200CF9BD          LDRSH     A3, [SP, #12]         ; [DPU_3_PIPE] |231|  ; [KEEP 32-BIT INS]
    1863 00000022 0008F9BD          LDRSH     A1, [SP, #8]          ; [DPU_3_PIPE] |231|  ; [KEEP 32-BIT INS]
    1864                    $C$DW$214       .dwtag  DW_TAG_TI_branch
    1865                            .dwattr $C$DW$214, DW_AT_low_pc(0x00)
    1866                            .dwattr $C$DW$214, DW_AT_name("sl_GetSockOpt")
    1867                            .dwattr $C$DW$214, DW_AT_TI_call
    1868                    
    1869 00000026 FFFEF7FF!         BL        sl_GetSockOpt         ; [DPU_3_PIPE] |231|  ; [KEEP 32-BIT INS]
    1870                            ; CALL OCCURS {sl_GetSockOpt }   ; [] |231| 
TI ARM Assembler Unix v16.9.6 Thu Dec 28 17:45:45 2017

Tools Copyright (c) 1996-2017 Texas Instruments Incorporated
slnetifwifi.asm                                                      PAGE   35

    1871                            .dwpsn  file "/vagrant/Q4_04/sdk_root/source/ti/drivers/net/wifi/slnetif/slnetifwifi.c",line 2
    1872 0000002a B005              ADD       SP, SP, #20           ; [DPU_3_PIPE]  ; [ORIG 16-BIT INS]
    1873                            .dwcfi  cfa_offset, 4
    1874                    $C$DW$215       .dwtag  DW_TAG_TI_branch
    1875                            .dwattr $C$DW$215, DW_AT_low_pc(0x00)
    1876                            .dwattr $C$DW$215, DW_AT_TI_return
    1877                    
    1878 0000002c BD00              POP       {PC}                  ; [DPU_3_PIPE]  ; [ORIG 16-BIT INS]
    1879                            .dwcfi  cfa_offset, 0
    1880                            ; BRANCH OCCURS                  ; [] 
    1881                            .dwattr $C$DW$203, DW_AT_TI_end_file("/vagrant/Q4_04/sdk_root/source/ti/drivers/net/wifi/slnet
    1882                            .dwattr $C$DW$203, DW_AT_TI_end_line(0xe8)
    1883                            .dwattr $C$DW$203, DW_AT_TI_end_column(0x01)
    1884                            .dwendentry
    1885                            .dwendtag $C$DW$203
    1886                    
    1887 00000000                   .sect   ".text:SlNetIfWifi_recv"
    1888                            .clink
    1889                            .thumbfunc SlNetIfWifi_recv
    1890 00000000                   .thumb
    1891                            .global SlNetIfWifi_recv
    1892                    
    1893                    $C$DW$216       .dwtag  DW_TAG_subprogram
    1894                            .dwattr $C$DW$216, DW_AT_name("SlNetIfWifi_recv")
    1895                            .dwattr $C$DW$216, DW_AT_low_pc(SlNetIfWifi_recv)
    1896                            .dwattr $C$DW$216, DW_AT_high_pc(0x00)
    1897                            .dwattr $C$DW$216, DW_AT_TI_symbol_name("SlNetIfWifi_recv")
    1898                            .dwattr $C$DW$216, DW_AT_external
    1899                            .dwattr $C$DW$216, DW_AT_type(*$C$DW$T$289)
    1900                            .dwattr $C$DW$216, DW_AT_TI_begin_file("/vagrant/Q4_04/sdk_root/source/ti/drivers/net/wifi/sln
    1901                            .dwattr $C$DW$216, DW_AT_TI_begin_line(0xf0)
    1902                            .dwattr $C$DW$216, DW_AT_TI_begin_column(0x09)
    1903                            .dwattr $C$DW$216, DW_AT_decl_file("/vagrant/Q4_04/sdk_root/source/ti/drivers/net/wifi/slnetif
    1904                            .dwattr $C$DW$216, DW_AT_decl_line(0xf0)
    1905                            .dwattr $C$DW$216, DW_AT_decl_column(0x09)
    1906                            .dwattr $C$DW$216, DW_AT_TI_max_frame_size(0x18)
    1907                            .dwpsn  file "/vagrant/Q4_04/sdk_root/source/ti/drivers/net/wifi/slnetif/slnetifwifi.c",line 2
    1908                    
    1909                            .dwfde $C$DW$CIE, SlNetIfWifi_recv
    1910                    $C$DW$217       .dwtag  DW_TAG_formal_parameter
    1911                            .dwattr $C$DW$217, DW_AT_name("sd")
    1912                            .dwattr $C$DW$217, DW_AT_TI_symbol_name("sd")
    1913                            .dwattr $C$DW$217, DW_AT_type(*$C$DW$T$285)
    1914                            .dwattr $C$DW$217, DW_AT_location[DW_OP_reg0]
    1915                    
    1916                    $C$DW$218       .dwtag  DW_TAG_formal_parameter
    1917                            .dwattr $C$DW$218, DW_AT_name("sdContext")
    1918                            .dwattr $C$DW$218, DW_AT_TI_symbol_name("sdContext")
    1919                            .dwattr $C$DW$218, DW_AT_type(*$C$DW$T$3)
    1920                            .dwattr $C$DW$218, DW_AT_location[DW_OP_reg1]
    1921                    
    1922                    $C$DW$219       .dwtag  DW_TAG_formal_parameter
    1923                            .dwattr $C$DW$219, DW_AT_name("buf")
    1924                            .dwattr $C$DW$219, DW_AT_TI_symbol_name("buf")
    1925                            .dwattr $C$DW$219, DW_AT_type(*$C$DW$T$3)
TI ARM Assembler Unix v16.9.6 Thu Dec 28 17:45:45 2017

Tools Copyright (c) 1996-2017 Texas Instruments Incorporated
slnetifwifi.asm                                                      PAGE   36

    1926                            .dwattr $C$DW$219, DW_AT_location[DW_OP_reg2]
    1927                    
    1928                    $C$DW$220       .dwtag  DW_TAG_formal_parameter
    1929                            .dwattr $C$DW$220, DW_AT_name("len")
    1930                            .dwattr $C$DW$220, DW_AT_TI_symbol_name("len")
    1931                            .dwattr $C$DW$220, DW_AT_type(*$C$DW$T$204)
    1932                            .dwattr $C$DW$220, DW_AT_location[DW_OP_reg3]
    1933                    
    1934                    $C$DW$221       .dwtag  DW_TAG_formal_parameter
    1935                            .dwattr $C$DW$221, DW_AT_name("flags")
    1936                            .dwattr $C$DW$221, DW_AT_TI_symbol_name("flags")
    1937                            .dwattr $C$DW$221, DW_AT_type(*$C$DW$T$204)
    1938                            .dwattr $C$DW$221, DW_AT_location[DW_OP_breg13 24]
    1939                    
    1940                    ;----------------------------------------------------------------------
    1941                    ; 240 | int32_t SlNetIfWifi_recv(int16_t sd, void *sdContext, void *buf, uint32
    1942                    ;     | _t len, uint32_t flags)                                                
    1943                    ;----------------------------------------------------------------------
    1944                    
    1945                    ;*****************************************************************************
    1946                    ;* FUNCTION NAME: SlNetIfWifi_recv                                           *
    1947                    ;*                                                                           *
    1948                    ;*   Regs Modified     : A1,A2,A3,A4,V4,V9,SP,LR,SR                          *
    1949                    ;*   Regs Used         : A1,A2,A3,A4,V4,V9,SP,LR,SR                          *
    1950                    ;*   Local Frame Size  : 0 Args + 16 Auto + 8 Save = 24 byte                 *
    1951                    ;*****************************************************************************
    1952 00000000           SlNetIfWifi_recv:
    1953                    ;* --------------------------------------------------------------------------*
    1954                            .dwcfi  cfa_offset, 0
    1955 00000000 B58F              PUSH      {A1, A2, A3, A4, V4, LR} ; [DPU_3_PIPE]  ; [ORIG 16-BIT INS]
    1956                            .dwcfi  cfa_offset, 24
    1957                            .dwcfi  save_reg_to_mem, 14, -4
    1958                            .dwcfi  save_reg_to_mem, 7, -8
    1959                            .dwcfi  save_reg_to_mem, 3, -12
    1960                            .dwcfi  save_reg_to_mem, 2, -16
    1961                            .dwcfi  save_reg_to_mem, 1, -20
    1962                            .dwcfi  save_reg_to_mem, 0, -24
    1963 00000002 AF06              ADD       V4, SP, #24           ; [DPU_3_PIPE]  ; [ORIG 16-BIT INS]
    1964                    $C$DW$222       .dwtag  DW_TAG_variable
    1965                            .dwattr $C$DW$222, DW_AT_name("sdContext")
    1966                            .dwattr $C$DW$222, DW_AT_TI_symbol_name("sdContext")
    1967                            .dwattr $C$DW$222, DW_AT_type(*$C$DW$T$3)
    1968                            .dwattr $C$DW$222, DW_AT_location[DW_OP_breg13 0]
    1969                    
    1970                    $C$DW$223       .dwtag  DW_TAG_variable
    1971                            .dwattr $C$DW$223, DW_AT_name("buf")
    1972                            .dwattr $C$DW$223, DW_AT_TI_symbol_name("buf")
    1973                            .dwattr $C$DW$223, DW_AT_type(*$C$DW$T$3)
    1974                            .dwattr $C$DW$223, DW_AT_location[DW_OP_breg13 4]
    1975                    
    1976                    $C$DW$224       .dwtag  DW_TAG_variable
    1977                            .dwattr $C$DW$224, DW_AT_name("len")
    1978                            .dwattr $C$DW$224, DW_AT_TI_symbol_name("len")
    1979                            .dwattr $C$DW$224, DW_AT_type(*$C$DW$T$204)
    1980                            .dwattr $C$DW$224, DW_AT_location[DW_OP_breg13 8]
TI ARM Assembler Unix v16.9.6 Thu Dec 28 17:45:45 2017

Tools Copyright (c) 1996-2017 Texas Instruments Incorporated
slnetifwifi.asm                                                      PAGE   37

    1981                    
    1982                    $C$DW$225       .dwtag  DW_TAG_variable
    1983                            .dwattr $C$DW$225, DW_AT_name("sd")
    1984                            .dwattr $C$DW$225, DW_AT_TI_symbol_name("sd")
    1985                            .dwattr $C$DW$225, DW_AT_type(*$C$DW$T$285)
    1986                            .dwattr $C$DW$225, DW_AT_location[DW_OP_breg13 12]
    1987                    
    1988 00000004 9302              STR       A4, [SP, #8]          ; [DPU_3_PIPE] |241|  ; [ORIG 16-BIT INS]
    1989 00000006 9201              STR       A3, [SP, #4]          ; [DPU_3_PIPE] |241|  ; [ORIG 16-BIT INS]
    1990 00000008 9100              STR       A2, [SP, #0]          ; [DPU_3_PIPE] |241|  ; [ORIG 16-BIT INS]
    1991 0000000a 000CF8AD          STRH      A1, [SP, #12]         ; [DPU_3_PIPE] |241|  ; [KEEP 32-BIT INS]
    1992                            .dwpsn  file "/vagrant/Q4_04/sdk_root/source/ti/drivers/net/wifi/slnetif/slnetifwifi.c",line 2
    1993                    ;----------------------------------------------------------------------
    1994                    ; 242 | DISABLE_SEC_BITS_FROM_INPUT_FLAGS(flags);                              
    1995                    ;----------------------------------------------------------------------
    1996 0000000e 6838              LDR       A1, [V4, #0]          ; [DPU_3_PIPE] |242|  ; [ORIG 16-BIT INS]
    1997 00000010 407FF020          BIC       A1, A1, #-16777216    ; [DPU_3_PIPE] |242|  ; [KEEP 32-BIT INS]
    1998 00000014 6038              STR       A1, [V4, #0]          ; [DPU_3_PIPE] |242|  ; [ORIG 16-BIT INS]
    1999                            .dwpsn  file "/vagrant/Q4_04/sdk_root/source/ti/drivers/net/wifi/slnetif/slnetifwifi.c",line 2
    2000                    ;----------------------------------------------------------------------
    2001                    ; 243 | return sl_Recv(sd, buf, len, flags);                                   
    2002                    ;----------------------------------------------------------------------
    2003 00000016 000CF9BD          LDRSH     A1, [SP, #12]         ; [DPU_3_PIPE] |243|  ; [KEEP 32-BIT INS]
    2004 0000001a 2008F9BD          LDRSH     A3, [SP, #8]          ; [DPU_3_PIPE] |243|  ; [KEEP 32-BIT INS]
    2005 0000001e 3000F9B7          LDRSH     A4, [V4, #0]          ; [DPU_3_PIPE] |243|  ; [KEEP 32-BIT INS]
    2006 00000022 9901              LDR       A2, [SP, #4]          ; [DPU_3_PIPE] |243|  ; [ORIG 16-BIT INS]
    2007                    $C$DW$226       .dwtag  DW_TAG_TI_branch
    2008                            .dwattr $C$DW$226, DW_AT_low_pc(0x00)
    2009                            .dwattr $C$DW$226, DW_AT_name("sl_Recv")
    2010                            .dwattr $C$DW$226, DW_AT_TI_call
    2011                    
    2012 00000024 FFFEF7FF!         BL        sl_Recv               ; [DPU_3_PIPE] |243|  ; [KEEP 32-BIT INS]
    2013                            ; CALL OCCURS {sl_Recv }         ; [] |243| 
    2014                            .dwpsn  file "/vagrant/Q4_04/sdk_root/source/ti/drivers/net/wifi/slnetif/slnetifwifi.c",line 2
    2015 00000028 9000              STR       A1, [SP, #0]          ; [DPU_3_PIPE]  ; [ORIG 16-BIT INS]
    2016                    $C$DW$227       .dwtag  DW_TAG_TI_branch
    2017                            .dwattr $C$DW$227, DW_AT_low_pc(0x00)
    2018                            .dwattr $C$DW$227, DW_AT_TI_return
    2019                    
    2020 0000002a BD8F              POP       {A1, A2, A3, A4, V4, PC} ; [DPU_3_PIPE]  ; [ORIG 16-BIT INS]
    2021                            .dwcfi  cfa_offset, 0
    2022                            .dwcfi  restore_reg, 7
    2023                            .dwcfi  restore_reg, 3
    2024                            .dwcfi  restore_reg, 2
    2025                            .dwcfi  restore_reg, 1
    2026                            .dwcfi  restore_reg, 0
    2027                            ; BRANCH OCCURS                  ; [] 
    2028                            .dwattr $C$DW$216, DW_AT_TI_end_file("/vagrant/Q4_04/sdk_root/source/ti/drivers/net/wifi/slnet
    2029                            .dwattr $C$DW$216, DW_AT_TI_end_line(0xf4)
    2030                            .dwattr $C$DW$216, DW_AT_TI_end_column(0x01)
    2031                            .dwendentry
    2032                            .dwendtag $C$DW$216
    2033                    
    2034 00000000                   .sect   ".text:SlNetIfWifi_recvFrom"
    2035                            .clink
TI ARM Assembler Unix v16.9.6 Thu Dec 28 17:45:45 2017

Tools Copyright (c) 1996-2017 Texas Instruments Incorporated
slnetifwifi.asm                                                      PAGE   38

    2036                            .thumbfunc SlNetIfWifi_recvFrom
    2037 00000000                   .thumb
    2038                            .global SlNetIfWifi_recvFrom
    2039                    
    2040                    $C$DW$228       .dwtag  DW_TAG_subprogram
    2041                            .dwattr $C$DW$228, DW_AT_name("SlNetIfWifi_recvFrom")
    2042                            .dwattr $C$DW$228, DW_AT_low_pc(SlNetIfWifi_recvFrom)
    2043                            .dwattr $C$DW$228, DW_AT_high_pc(0x00)
    2044                            .dwattr $C$DW$228, DW_AT_TI_symbol_name("SlNetIfWifi_recvFrom")
    2045                            .dwattr $C$DW$228, DW_AT_external
    2046                            .dwattr $C$DW$228, DW_AT_type(*$C$DW$T$289)
    2047                            .dwattr $C$DW$228, DW_AT_TI_begin_file("/vagrant/Q4_04/sdk_root/source/ti/drivers/net/wifi/sln
    2048                            .dwattr $C$DW$228, DW_AT_TI_begin_line(0xfc)
    2049                            .dwattr $C$DW$228, DW_AT_TI_begin_column(0x09)
    2050                            .dwattr $C$DW$228, DW_AT_decl_file("/vagrant/Q4_04/sdk_root/source/ti/drivers/net/wifi/slnetif
    2051                            .dwattr $C$DW$228, DW_AT_decl_line(0xfc)
    2052                            .dwattr $C$DW$228, DW_AT_decl_column(0x09)
    2053                            .dwattr $C$DW$228, DW_AT_TI_max_frame_size(0x20)
    2054                            .dwpsn  file "/vagrant/Q4_04/sdk_root/source/ti/drivers/net/wifi/slnetif/slnetifwifi.c",line 2
    2055                    
    2056                            .dwfde $C$DW$CIE, SlNetIfWifi_recvFrom
    2057                    $C$DW$229       .dwtag  DW_TAG_formal_parameter
    2058                            .dwattr $C$DW$229, DW_AT_name("sd")
    2059                            .dwattr $C$DW$229, DW_AT_TI_symbol_name("sd")
    2060                            .dwattr $C$DW$229, DW_AT_type(*$C$DW$T$285)
    2061                            .dwattr $C$DW$229, DW_AT_location[DW_OP_reg0]
    2062                    
    2063                    $C$DW$230       .dwtag  DW_TAG_formal_parameter
    2064                            .dwattr $C$DW$230, DW_AT_name("sdContext")
    2065                            .dwattr $C$DW$230, DW_AT_TI_symbol_name("sdContext")
    2066                            .dwattr $C$DW$230, DW_AT_type(*$C$DW$T$3)
    2067                            .dwattr $C$DW$230, DW_AT_location[DW_OP_reg1]
    2068                    
    2069                    $C$DW$231       .dwtag  DW_TAG_formal_parameter
    2070                            .dwattr $C$DW$231, DW_AT_name("buf")
    2071                            .dwattr $C$DW$231, DW_AT_TI_symbol_name("buf")
    2072                            .dwattr $C$DW$231, DW_AT_type(*$C$DW$T$3)
    2073                            .dwattr $C$DW$231, DW_AT_location[DW_OP_reg2]
    2074                    
    2075                    $C$DW$232       .dwtag  DW_TAG_formal_parameter
    2076                            .dwattr $C$DW$232, DW_AT_name("len")
    2077                            .dwattr $C$DW$232, DW_AT_TI_symbol_name("len")
    2078                            .dwattr $C$DW$232, DW_AT_type(*$C$DW$T$204)
    2079                            .dwattr $C$DW$232, DW_AT_location[DW_OP_reg3]
    2080                    
    2081                    $C$DW$233       .dwtag  DW_TAG_formal_parameter
    2082                            .dwattr $C$DW$233, DW_AT_name("flags")
    2083                            .dwattr $C$DW$233, DW_AT_TI_symbol_name("flags")
    2084                            .dwattr $C$DW$233, DW_AT_type(*$C$DW$T$204)
    2085                            .dwattr $C$DW$233, DW_AT_location[DW_OP_breg13 32]
    2086                    
    2087                    $C$DW$234       .dwtag  DW_TAG_formal_parameter
    2088                            .dwattr $C$DW$234, DW_AT_name("from")
    2089                            .dwattr $C$DW$234, DW_AT_TI_symbol_name("from")
    2090                            .dwattr $C$DW$234, DW_AT_type(*$C$DW$T$295)
TI ARM Assembler Unix v16.9.6 Thu Dec 28 17:45:45 2017

Tools Copyright (c) 1996-2017 Texas Instruments Incorporated
slnetifwifi.asm                                                      PAGE   39

    2091                            .dwattr $C$DW$234, DW_AT_location[DW_OP_breg13 36]
    2092                    
    2093                    $C$DW$235       .dwtag  DW_TAG_formal_parameter
    2094                            .dwattr $C$DW$235, DW_AT_name("fromlen")
    2095                            .dwattr $C$DW$235, DW_AT_TI_symbol_name("fromlen")
    2096                            .dwattr $C$DW$235, DW_AT_type(*$C$DW$T$297)
    2097                            .dwattr $C$DW$235, DW_AT_location[DW_OP_breg13 40]
    2098                    
    2099                    ;----------------------------------------------------------------------
    2100                    ; 252 | int32_t SlNetIfWifi_recvFrom(int16_t sd, void *sdContext, void *buf, ui
    2101                    ;     | nt32_t len, uint32_t flags, SlNetSock_Addr_t *from, SlNetSocklen_t *fro
    2102                    ;     | mlen)                                                                  
    2103                    ;----------------------------------------------------------------------
    2104                    
    2105                    ;*****************************************************************************
    2106                    ;* FUNCTION NAME: SlNetIfWifi_recvFrom                                       *
    2107                    ;*                                                                           *
    2108                    ;*   Regs Modified     : A1,A2,A3,A4,V4,V9,SP,LR,SR                          *
    2109                    ;*   Regs Used         : A1,A2,A3,A4,V4,V9,SP,LR,SR                          *
    2110                    ;*   Local Frame Size  : 8 Args + 16 Auto + 8 Save = 32 byte                 *
    2111                    ;*****************************************************************************
    2112 00000000           SlNetIfWifi_recvFrom:
    2113                    ;* --------------------------------------------------------------------------*
    2114                            .dwcfi  cfa_offset, 0
    2115 00000000 B580              PUSH      {V4, LR}              ; [DPU_3_PIPE]  ; [ORIG 16-BIT INS]
    2116                            .dwcfi  cfa_offset, 8
    2117                            .dwcfi  save_reg_to_mem, 14, -4
    2118                            .dwcfi  save_reg_to_mem, 7, -8
    2119 00000002 AF02              ADD       V4, SP, #8            ; [DPU_3_PIPE]  ; [ORIG 16-BIT INS]
    2120 00000004 0D18F1AD          SUB       SP, SP, #24           ; [DPU_3_PIPE]  ; [KEEP 32-BIT INS]
    2121                            .dwcfi  cfa_offset, 32
    2122                    $C$DW$236       .dwtag  DW_TAG_variable
    2123                            .dwattr $C$DW$236, DW_AT_name("sdContext")
    2124                            .dwattr $C$DW$236, DW_AT_TI_symbol_name("sdContext")
    2125                            .dwattr $C$DW$236, DW_AT_type(*$C$DW$T$3)
    2126                            .dwattr $C$DW$236, DW_AT_location[DW_OP_breg13 8]
    2127                    
    2128                    $C$DW$237       .dwtag  DW_TAG_variable
    2129                            .dwattr $C$DW$237, DW_AT_name("buf")
    2130                            .dwattr $C$DW$237, DW_AT_TI_symbol_name("buf")
    2131                            .dwattr $C$DW$237, DW_AT_type(*$C$DW$T$3)
    2132                            .dwattr $C$DW$237, DW_AT_location[DW_OP_breg13 12]
    2133                    
    2134                    $C$DW$238       .dwtag  DW_TAG_variable
    2135                            .dwattr $C$DW$238, DW_AT_name("len")
    2136                            .dwattr $C$DW$238, DW_AT_TI_symbol_name("len")
    2137                            .dwattr $C$DW$238, DW_AT_type(*$C$DW$T$204)
    2138                            .dwattr $C$DW$238, DW_AT_location[DW_OP_breg13 16]
    2139                    
    2140                    $C$DW$239       .dwtag  DW_TAG_variable
    2141                            .dwattr $C$DW$239, DW_AT_name("sd")
    2142                            .dwattr $C$DW$239, DW_AT_TI_symbol_name("sd")
    2143                            .dwattr $C$DW$239, DW_AT_type(*$C$DW$T$285)
    2144                            .dwattr $C$DW$239, DW_AT_location[DW_OP_breg13 20]
    2145                    
TI ARM Assembler Unix v16.9.6 Thu Dec 28 17:45:45 2017

Tools Copyright (c) 1996-2017 Texas Instruments Incorporated
slnetifwifi.asm                                                      PAGE   40

    2146 00000008 9304              STR       A4, [SP, #16]         ; [DPU_3_PIPE] |253|  ; [ORIG 16-BIT INS]
    2147 0000000a 9203              STR       A3, [SP, #12]         ; [DPU_3_PIPE] |253|  ; [ORIG 16-BIT INS]
    2148 0000000c 9102              STR       A2, [SP, #8]          ; [DPU_3_PIPE] |253|  ; [ORIG 16-BIT INS]
    2149 0000000e 0014F8AD          STRH      A1, [SP, #20]         ; [DPU_3_PIPE] |253|  ; [KEEP 32-BIT INS]
    2150                            .dwpsn  file "/vagrant/Q4_04/sdk_root/source/ti/drivers/net/wifi/slnetif/slnetifwifi.c",line 2
    2151                    ;----------------------------------------------------------------------
    2152                    ; 254 | DISABLE_SEC_BITS_FROM_INPUT_FLAGS(flags);                              
    2153                    ;----------------------------------------------------------------------
    2154 00000012 6838              LDR       A1, [V4, #0]          ; [DPU_3_PIPE] |254|  ; [ORIG 16-BIT INS]
    2155 00000014 407FF020          BIC       A1, A1, #-16777216    ; [DPU_3_PIPE] |254|  ; [KEEP 32-BIT INS]
    2156 00000018 6038              STR       A1, [V4, #0]          ; [DPU_3_PIPE] |254|  ; [ORIG 16-BIT INS]
    2157                            .dwpsn  file "/vagrant/Q4_04/sdk_root/source/ti/drivers/net/wifi/slnetif/slnetifwifi.c",line 2
    2158                    ;----------------------------------------------------------------------
    2159                    ; 255 | return sl_RecvFrom(sd, buf, len, flags, (SlSockAddr_t *)from, fromlen);
    2160                    ;----------------------------------------------------------------------
    2161 0000001a 6878              LDR       A1, [V4, #4]          ; [DPU_3_PIPE] |255|  ; [ORIG 16-BIT INS]
    2162 0000001c 9000              STR       A1, [SP, #0]          ; [DPU_3_PIPE] |255|  ; [ORIG 16-BIT INS]
    2163 0000001e 68B8              LDR       A1, [V4, #8]          ; [DPU_3_PIPE] |255|  ; [ORIG 16-BIT INS]
    2164 00000020 9001              STR       A1, [SP, #4]          ; [DPU_3_PIPE] |255|  ; [ORIG 16-BIT INS]
    2165 00000022 2010F9BD          LDRSH     A3, [SP, #16]         ; [DPU_3_PIPE] |255|  ; [KEEP 32-BIT INS]
    2166 00000026 3000F9B7          LDRSH     A4, [V4, #0]          ; [DPU_3_PIPE] |255|  ; [KEEP 32-BIT INS]
    2167 0000002a 9903              LDR       A2, [SP, #12]         ; [DPU_3_PIPE] |255|  ; [ORIG 16-BIT INS]
    2168 0000002c 0014F9BD          LDRSH     A1, [SP, #20]         ; [DPU_3_PIPE] |255|  ; [KEEP 32-BIT INS]
    2169                    $C$DW$240       .dwtag  DW_TAG_TI_branch
    2170                            .dwattr $C$DW$240, DW_AT_low_pc(0x00)
    2171                            .dwattr $C$DW$240, DW_AT_name("sl_RecvFrom")
    2172                            .dwattr $C$DW$240, DW_AT_TI_call
    2173                    
    2174 00000030 FFFEF7FF!         BL        sl_RecvFrom           ; [DPU_3_PIPE] |255|  ; [KEEP 32-BIT INS]
    2175                            ; CALL OCCURS {sl_RecvFrom }     ; [] |255| 
    2176                            .dwpsn  file "/vagrant/Q4_04/sdk_root/source/ti/drivers/net/wifi/slnetif/slnetifwifi.c",line 2
    2177 00000034 B006              ADD       SP, SP, #24           ; [DPU_3_PIPE]  ; [ORIG 16-BIT INS]
    2178                            .dwcfi  cfa_offset, 8
    2179                    $C$DW$241       .dwtag  DW_TAG_TI_branch
    2180                            .dwattr $C$DW$241, DW_AT_low_pc(0x00)
    2181                            .dwattr $C$DW$241, DW_AT_TI_return
    2182                    
    2183 00000036 BD80              POP       {V4, PC}              ; [DPU_3_PIPE]  ; [ORIG 16-BIT INS]
    2184                            .dwcfi  cfa_offset, 0
    2185                            .dwcfi  restore_reg, 7
    2186                            ; BRANCH OCCURS                  ; [] 
    2187                            .dwattr $C$DW$228, DW_AT_TI_end_file("/vagrant/Q4_04/sdk_root/source/ti/drivers/net/wifi/slnet
    2188                            .dwattr $C$DW$228, DW_AT_TI_end_line(0x100)
    2189                            .dwattr $C$DW$228, DW_AT_TI_end_column(0x01)
    2190                            .dwendentry
    2191                            .dwendtag $C$DW$228
    2192                    
    2193 00000000                   .sect   ".text:SlNetIfWifi_send"
    2194                            .clink
    2195                            .thumbfunc SlNetIfWifi_send
    2196 00000000                   .thumb
    2197                            .global SlNetIfWifi_send
    2198                    
    2199                    $C$DW$242       .dwtag  DW_TAG_subprogram
    2200                            .dwattr $C$DW$242, DW_AT_name("SlNetIfWifi_send")
TI ARM Assembler Unix v16.9.6 Thu Dec 28 17:45:45 2017

Tools Copyright (c) 1996-2017 Texas Instruments Incorporated
slnetifwifi.asm                                                      PAGE   41

    2201                            .dwattr $C$DW$242, DW_AT_low_pc(SlNetIfWifi_send)
    2202                            .dwattr $C$DW$242, DW_AT_high_pc(0x00)
    2203                            .dwattr $C$DW$242, DW_AT_TI_symbol_name("SlNetIfWifi_send")
    2204                            .dwattr $C$DW$242, DW_AT_external
    2205                            .dwattr $C$DW$242, DW_AT_type(*$C$DW$T$289)
    2206                            .dwattr $C$DW$242, DW_AT_TI_begin_file("/vagrant/Q4_04/sdk_root/source/ti/drivers/net/wifi/sln
    2207                            .dwattr $C$DW$242, DW_AT_TI_begin_line(0x108)
    2208                            .dwattr $C$DW$242, DW_AT_TI_begin_column(0x09)
    2209                            .dwattr $C$DW$242, DW_AT_decl_file("/vagrant/Q4_04/sdk_root/source/ti/drivers/net/wifi/slnetif
    2210                            .dwattr $C$DW$242, DW_AT_decl_line(0x108)
    2211                            .dwattr $C$DW$242, DW_AT_decl_column(0x09)
    2212                            .dwattr $C$DW$242, DW_AT_TI_max_frame_size(0x18)
    2213                            .dwpsn  file "/vagrant/Q4_04/sdk_root/source/ti/drivers/net/wifi/slnetif/slnetifwifi.c",line 2
    2214                    
    2215                            .dwfde $C$DW$CIE, SlNetIfWifi_send
    2216                    $C$DW$243       .dwtag  DW_TAG_formal_parameter
    2217                            .dwattr $C$DW$243, DW_AT_name("sd")
    2218                            .dwattr $C$DW$243, DW_AT_TI_symbol_name("sd")
    2219                            .dwattr $C$DW$243, DW_AT_type(*$C$DW$T$285)
    2220                            .dwattr $C$DW$243, DW_AT_location[DW_OP_reg0]
    2221                    
    2222                    $C$DW$244       .dwtag  DW_TAG_formal_parameter
    2223                            .dwattr $C$DW$244, DW_AT_name("sdContext")
    2224                            .dwattr $C$DW$244, DW_AT_TI_symbol_name("sdContext")
    2225                            .dwattr $C$DW$244, DW_AT_type(*$C$DW$T$3)
    2226                            .dwattr $C$DW$244, DW_AT_location[DW_OP_reg1]
    2227                    
    2228                    $C$DW$245       .dwtag  DW_TAG_formal_parameter
    2229                            .dwattr $C$DW$245, DW_AT_name("buf")
    2230                            .dwattr $C$DW$245, DW_AT_TI_symbol_name("buf")
    2231                            .dwattr $C$DW$245, DW_AT_type(*$C$DW$T$323)
    2232                            .dwattr $C$DW$245, DW_AT_location[DW_OP_reg2]
    2233                    
    2234                    $C$DW$246       .dwtag  DW_TAG_formal_parameter
    2235                            .dwattr $C$DW$246, DW_AT_name("len")
    2236                            .dwattr $C$DW$246, DW_AT_TI_symbol_name("len")
    2237                            .dwattr $C$DW$246, DW_AT_type(*$C$DW$T$204)
    2238                            .dwattr $C$DW$246, DW_AT_location[DW_OP_reg3]
    2239                    
    2240                    $C$DW$247       .dwtag  DW_TAG_formal_parameter
    2241                            .dwattr $C$DW$247, DW_AT_name("flags")
    2242                            .dwattr $C$DW$247, DW_AT_TI_symbol_name("flags")
    2243                            .dwattr $C$DW$247, DW_AT_type(*$C$DW$T$204)
    2244                            .dwattr $C$DW$247, DW_AT_location[DW_OP_breg13 24]
    2245                    
    2246                    ;----------------------------------------------------------------------
    2247                    ; 264 | int32_t SlNetIfWifi_send(int16_t sd, void *sdContext, const void *buf,
    2248                    ;     | uint32_t len, uint32_t flags)                                          
    2249                    ;----------------------------------------------------------------------
    2250                    
    2251                    ;*****************************************************************************
    2252                    ;* FUNCTION NAME: SlNetIfWifi_send                                           *
    2253                    ;*                                                                           *
    2254                    ;*   Regs Modified     : A1,A2,A3,A4,V4,V9,SP,LR,SR                          *
    2255                    ;*   Regs Used         : A1,A2,A3,A4,V4,V9,SP,LR,SR                          *
TI ARM Assembler Unix v16.9.6 Thu Dec 28 17:45:45 2017

Tools Copyright (c) 1996-2017 Texas Instruments Incorporated
slnetifwifi.asm                                                      PAGE   42

    2256                    ;*   Local Frame Size  : 0 Args + 16 Auto + 8 Save = 24 byte                 *
    2257                    ;*****************************************************************************
    2258 00000000           SlNetIfWifi_send:
    2259                    ;* --------------------------------------------------------------------------*
    2260                            .dwcfi  cfa_offset, 0
    2261 00000000 B58F              PUSH      {A1, A2, A3, A4, V4, LR} ; [DPU_3_PIPE]  ; [ORIG 16-BIT INS]
    2262                            .dwcfi  cfa_offset, 24
    2263                            .dwcfi  save_reg_to_mem, 14, -4
    2264                            .dwcfi  save_reg_to_mem, 7, -8
    2265                            .dwcfi  save_reg_to_mem, 3, -12
    2266                            .dwcfi  save_reg_to_mem, 2, -16
    2267                            .dwcfi  save_reg_to_mem, 1, -20
    2268                            .dwcfi  save_reg_to_mem, 0, -24
    2269 00000002 AF06              ADD       V4, SP, #24           ; [DPU_3_PIPE]  ; [ORIG 16-BIT INS]
    2270                    $C$DW$248       .dwtag  DW_TAG_variable
    2271                            .dwattr $C$DW$248, DW_AT_name("sdContext")
    2272                            .dwattr $C$DW$248, DW_AT_TI_symbol_name("sdContext")
    2273                            .dwattr $C$DW$248, DW_AT_type(*$C$DW$T$3)
    2274                            .dwattr $C$DW$248, DW_AT_location[DW_OP_breg13 0]
    2275                    
    2276                    $C$DW$249       .dwtag  DW_TAG_variable
    2277                            .dwattr $C$DW$249, DW_AT_name("buf")
    2278                            .dwattr $C$DW$249, DW_AT_TI_symbol_name("buf")
    2279                            .dwattr $C$DW$249, DW_AT_type(*$C$DW$T$323)
    2280                            .dwattr $C$DW$249, DW_AT_location[DW_OP_breg13 4]
    2281                    
    2282                    $C$DW$250       .dwtag  DW_TAG_variable
    2283                            .dwattr $C$DW$250, DW_AT_name("len")
    2284                            .dwattr $C$DW$250, DW_AT_TI_symbol_name("len")
    2285                            .dwattr $C$DW$250, DW_AT_type(*$C$DW$T$204)
    2286                            .dwattr $C$DW$250, DW_AT_location[DW_OP_breg13 8]
    2287                    
    2288                    $C$DW$251       .dwtag  DW_TAG_variable
    2289                            .dwattr $C$DW$251, DW_AT_name("sd")
    2290                            .dwattr $C$DW$251, DW_AT_TI_symbol_name("sd")
    2291                            .dwattr $C$DW$251, DW_AT_type(*$C$DW$T$285)
    2292                            .dwattr $C$DW$251, DW_AT_location[DW_OP_breg13 12]
    2293                    
    2294 00000004 9302              STR       A4, [SP, #8]          ; [DPU_3_PIPE] |265|  ; [ORIG 16-BIT INS]
    2295 00000006 9201              STR       A3, [SP, #4]          ; [DPU_3_PIPE] |265|  ; [ORIG 16-BIT INS]
    2296 00000008 9100              STR       A2, [SP, #0]          ; [DPU_3_PIPE] |265|  ; [ORIG 16-BIT INS]
    2297 0000000a 000CF8AD          STRH      A1, [SP, #12]         ; [DPU_3_PIPE] |265|  ; [KEEP 32-BIT INS]
    2298                            .dwpsn  file "/vagrant/Q4_04/sdk_root/source/ti/drivers/net/wifi/slnetif/slnetifwifi.c",line 2
    2299                    ;----------------------------------------------------------------------
    2300                    ; 266 | DISABLE_SEC_BITS_FROM_INPUT_FLAGS(flags);                              
    2301                    ;----------------------------------------------------------------------
    2302 0000000e 6838              LDR       A1, [V4, #0]          ; [DPU_3_PIPE] |266|  ; [ORIG 16-BIT INS]
    2303 00000010 407FF020          BIC       A1, A1, #-16777216    ; [DPU_3_PIPE] |266|  ; [KEEP 32-BIT INS]
    2304 00000014 6038              STR       A1, [V4, #0]          ; [DPU_3_PIPE] |266|  ; [ORIG 16-BIT INS]
    2305                            .dwpsn  file "/vagrant/Q4_04/sdk_root/source/ti/drivers/net/wifi/slnetif/slnetifwifi.c",line 2
    2306                    ;----------------------------------------------------------------------
    2307                    ; 267 | return sl_Send(sd, buf, len, flags);                                   
    2308                    ;----------------------------------------------------------------------
    2309 00000016 000CF9BD          LDRSH     A1, [SP, #12]         ; [DPU_3_PIPE] |267|  ; [KEEP 32-BIT INS]
    2310 0000001a 2008F9BD          LDRSH     A3, [SP, #8]          ; [DPU_3_PIPE] |267|  ; [KEEP 32-BIT INS]
TI ARM Assembler Unix v16.9.6 Thu Dec 28 17:45:45 2017

Tools Copyright (c) 1996-2017 Texas Instruments Incorporated
slnetifwifi.asm                                                      PAGE   43

    2311 0000001e 3000F9B7          LDRSH     A4, [V4, #0]          ; [DPU_3_PIPE] |267|  ; [KEEP 32-BIT INS]
    2312 00000022 9901              LDR       A2, [SP, #4]          ; [DPU_3_PIPE] |267|  ; [ORIG 16-BIT INS]
    2313                    $C$DW$252       .dwtag  DW_TAG_TI_branch
    2314                            .dwattr $C$DW$252, DW_AT_low_pc(0x00)
    2315                            .dwattr $C$DW$252, DW_AT_name("sl_Send")
    2316                            .dwattr $C$DW$252, DW_AT_TI_call
    2317                    
    2318 00000024 FFFEF7FF!         BL        sl_Send               ; [DPU_3_PIPE] |267|  ; [KEEP 32-BIT INS]
    2319                            ; CALL OCCURS {sl_Send }         ; [] |267| 
    2320                            .dwpsn  file "/vagrant/Q4_04/sdk_root/source/ti/drivers/net/wifi/slnetif/slnetifwifi.c",line 2
    2321 00000028 9000              STR       A1, [SP, #0]          ; [DPU_3_PIPE]  ; [ORIG 16-BIT INS]
    2322                    $C$DW$253       .dwtag  DW_TAG_TI_branch
    2323                            .dwattr $C$DW$253, DW_AT_low_pc(0x00)
    2324                            .dwattr $C$DW$253, DW_AT_TI_return
    2325                    
    2326 0000002a BD8F              POP       {A1, A2, A3, A4, V4, PC} ; [DPU_3_PIPE]  ; [ORIG 16-BIT INS]
    2327                            .dwcfi  cfa_offset, 0
    2328                            .dwcfi  restore_reg, 7
    2329                            .dwcfi  restore_reg, 3
    2330                            .dwcfi  restore_reg, 2
    2331                            .dwcfi  restore_reg, 1
    2332                            .dwcfi  restore_reg, 0
    2333                            ; BRANCH OCCURS                  ; [] 
    2334                            .dwattr $C$DW$242, DW_AT_TI_end_file("/vagrant/Q4_04/sdk_root/source/ti/drivers/net/wifi/slnet
    2335                            .dwattr $C$DW$242, DW_AT_TI_end_line(0x10c)
    2336                            .dwattr $C$DW$242, DW_AT_TI_end_column(0x01)
    2337                            .dwendentry
    2338                            .dwendtag $C$DW$242
    2339                    
    2340 00000000                   .sect   ".text:SlNetIfWifi_sendTo"
    2341                            .clink
    2342                            .thumbfunc SlNetIfWifi_sendTo
    2343 00000000                   .thumb
    2344                            .global SlNetIfWifi_sendTo
    2345                    
    2346                    $C$DW$254       .dwtag  DW_TAG_subprogram
    2347                            .dwattr $C$DW$254, DW_AT_name("SlNetIfWifi_sendTo")
    2348                            .dwattr $C$DW$254, DW_AT_low_pc(SlNetIfWifi_sendTo)
    2349                            .dwattr $C$DW$254, DW_AT_high_pc(0x00)
    2350                            .dwattr $C$DW$254, DW_AT_TI_symbol_name("SlNetIfWifi_sendTo")
    2351                            .dwattr $C$DW$254, DW_AT_external
    2352                            .dwattr $C$DW$254, DW_AT_type(*$C$DW$T$289)
    2353                            .dwattr $C$DW$254, DW_AT_TI_begin_file("/vagrant/Q4_04/sdk_root/source/ti/drivers/net/wifi/sln
    2354                            .dwattr $C$DW$254, DW_AT_TI_begin_line(0x114)
    2355                            .dwattr $C$DW$254, DW_AT_TI_begin_column(0x09)
    2356                            .dwattr $C$DW$254, DW_AT_decl_file("/vagrant/Q4_04/sdk_root/source/ti/drivers/net/wifi/slnetif
    2357                            .dwattr $C$DW$254, DW_AT_decl_line(0x114)
    2358                            .dwattr $C$DW$254, DW_AT_decl_column(0x09)
    2359                            .dwattr $C$DW$254, DW_AT_TI_max_frame_size(0x20)
    2360                            .dwpsn  file "/vagrant/Q4_04/sdk_root/source/ti/drivers/net/wifi/slnetif/slnetifwifi.c",line 2
    2361                    
    2362                            .dwfde $C$DW$CIE, SlNetIfWifi_sendTo
    2363                    $C$DW$255       .dwtag  DW_TAG_formal_parameter
    2364                            .dwattr $C$DW$255, DW_AT_name("sd")
    2365                            .dwattr $C$DW$255, DW_AT_TI_symbol_name("sd")
TI ARM Assembler Unix v16.9.6 Thu Dec 28 17:45:45 2017

Tools Copyright (c) 1996-2017 Texas Instruments Incorporated
slnetifwifi.asm                                                      PAGE   44

    2366                            .dwattr $C$DW$255, DW_AT_type(*$C$DW$T$285)
    2367                            .dwattr $C$DW$255, DW_AT_location[DW_OP_reg0]
    2368                    
    2369                    $C$DW$256       .dwtag  DW_TAG_formal_parameter
    2370                            .dwattr $C$DW$256, DW_AT_name("sdContext")
    2371                            .dwattr $C$DW$256, DW_AT_TI_symbol_name("sdContext")
    2372                            .dwattr $C$DW$256, DW_AT_type(*$C$DW$T$3)
    2373                            .dwattr $C$DW$256, DW_AT_location[DW_OP_reg1]
    2374                    
    2375                    $C$DW$257       .dwtag  DW_TAG_formal_parameter
    2376                            .dwattr $C$DW$257, DW_AT_name("buf")
    2377                            .dwattr $C$DW$257, DW_AT_TI_symbol_name("buf")
    2378                            .dwattr $C$DW$257, DW_AT_type(*$C$DW$T$323)
    2379                            .dwattr $C$DW$257, DW_AT_location[DW_OP_reg2]
    2380                    
    2381                    $C$DW$258       .dwtag  DW_TAG_formal_parameter
    2382                            .dwattr $C$DW$258, DW_AT_name("len")
    2383                            .dwattr $C$DW$258, DW_AT_TI_symbol_name("len")
    2384                            .dwattr $C$DW$258, DW_AT_type(*$C$DW$T$204)
    2385                            .dwattr $C$DW$258, DW_AT_location[DW_OP_reg3]
    2386                    
    2387                    $C$DW$259       .dwtag  DW_TAG_formal_parameter
    2388                            .dwattr $C$DW$259, DW_AT_name("flags")
    2389                            .dwattr $C$DW$259, DW_AT_TI_symbol_name("flags")
    2390                            .dwattr $C$DW$259, DW_AT_type(*$C$DW$T$204)
    2391                            .dwattr $C$DW$259, DW_AT_location[DW_OP_breg13 32]
    2392                    
    2393                    $C$DW$260       .dwtag  DW_TAG_formal_parameter
    2394                            .dwattr $C$DW$260, DW_AT_name("to")
    2395                            .dwattr $C$DW$260, DW_AT_TI_symbol_name("to")
    2396                            .dwattr $C$DW$260, DW_AT_type(*$C$DW$T$301)
    2397                            .dwattr $C$DW$260, DW_AT_location[DW_OP_breg13 36]
    2398                    
    2399                    $C$DW$261       .dwtag  DW_TAG_formal_parameter
    2400                            .dwattr $C$DW$261, DW_AT_name("tolen")
    2401                            .dwattr $C$DW$261, DW_AT_TI_symbol_name("tolen")
    2402                            .dwattr $C$DW$261, DW_AT_type(*$C$DW$T$296)
    2403                            .dwattr $C$DW$261, DW_AT_location[DW_OP_breg13 40]
    2404                    
    2405                    ;----------------------------------------------------------------------
    2406                    ; 276 | int32_t SlNetIfWifi_sendTo(int16_t sd, void *sdContext, const void *buf
    2407                    ;     | , uint32_t len, uint32_t flags, const SlNetSock_Addr_t *to, SlNetSockle
    2408                    ;     | n_t tolen)                                                             
    2409                    ;----------------------------------------------------------------------
    2410                    
    2411                    ;*****************************************************************************
    2412                    ;* FUNCTION NAME: SlNetIfWifi_sendTo                                         *
    2413                    ;*                                                                           *
    2414                    ;*   Regs Modified     : A1,A2,A3,A4,V4,V9,SP,LR,SR                          *
    2415                    ;*   Regs Used         : A1,A2,A3,A4,V4,V9,SP,LR,SR                          *
    2416                    ;*   Local Frame Size  : 8 Args + 16 Auto + 8 Save = 32 byte                 *
    2417                    ;*****************************************************************************
    2418 00000000           SlNetIfWifi_sendTo:
    2419                    ;* --------------------------------------------------------------------------*
    2420                            .dwcfi  cfa_offset, 0
TI ARM Assembler Unix v16.9.6 Thu Dec 28 17:45:45 2017

Tools Copyright (c) 1996-2017 Texas Instruments Incorporated
slnetifwifi.asm                                                      PAGE   45

    2421 00000000 B580              PUSH      {V4, LR}              ; [DPU_3_PIPE]  ; [ORIG 16-BIT INS]
    2422                            .dwcfi  cfa_offset, 8
    2423                            .dwcfi  save_reg_to_mem, 14, -4
    2424                            .dwcfi  save_reg_to_mem, 7, -8
    2425 00000002 AF02              ADD       V4, SP, #8            ; [DPU_3_PIPE]  ; [ORIG 16-BIT INS]
    2426 00000004 0D18F1AD          SUB       SP, SP, #24           ; [DPU_3_PIPE]  ; [KEEP 32-BIT INS]
    2427                            .dwcfi  cfa_offset, 32
    2428                    $C$DW$262       .dwtag  DW_TAG_variable
    2429                            .dwattr $C$DW$262, DW_AT_name("sdContext")
    2430                            .dwattr $C$DW$262, DW_AT_TI_symbol_name("sdContext")
    2431                            .dwattr $C$DW$262, DW_AT_type(*$C$DW$T$3)
    2432                            .dwattr $C$DW$262, DW_AT_location[DW_OP_breg13 8]
    2433                    
    2434                    $C$DW$263       .dwtag  DW_TAG_variable
    2435                            .dwattr $C$DW$263, DW_AT_name("buf")
    2436                            .dwattr $C$DW$263, DW_AT_TI_symbol_name("buf")
    2437                            .dwattr $C$DW$263, DW_AT_type(*$C$DW$T$323)
    2438                            .dwattr $C$DW$263, DW_AT_location[DW_OP_breg13 12]
    2439                    
    2440                    $C$DW$264       .dwtag  DW_TAG_variable
    2441                            .dwattr $C$DW$264, DW_AT_name("len")
    2442                            .dwattr $C$DW$264, DW_AT_TI_symbol_name("len")
    2443                            .dwattr $C$DW$264, DW_AT_type(*$C$DW$T$204)
    2444                            .dwattr $C$DW$264, DW_AT_location[DW_OP_breg13 16]
    2445                    
    2446                    $C$DW$265       .dwtag  DW_TAG_variable
    2447                            .dwattr $C$DW$265, DW_AT_name("sd")
    2448                            .dwattr $C$DW$265, DW_AT_TI_symbol_name("sd")
    2449                            .dwattr $C$DW$265, DW_AT_type(*$C$DW$T$285)
    2450                            .dwattr $C$DW$265, DW_AT_location[DW_OP_breg13 20]
    2451                    
    2452 00000008 9304              STR       A4, [SP, #16]         ; [DPU_3_PIPE] |277|  ; [ORIG 16-BIT INS]
    2453 0000000a 9203              STR       A3, [SP, #12]         ; [DPU_3_PIPE] |277|  ; [ORIG 16-BIT INS]
    2454 0000000c 9102              STR       A2, [SP, #8]          ; [DPU_3_PIPE] |277|  ; [ORIG 16-BIT INS]
    2455 0000000e 0014F8AD          STRH      A1, [SP, #20]         ; [DPU_3_PIPE] |277|  ; [KEEP 32-BIT INS]
    2456                            .dwpsn  file "/vagrant/Q4_04/sdk_root/source/ti/drivers/net/wifi/slnetif/slnetifwifi.c",line 2
    2457                    ;----------------------------------------------------------------------
    2458                    ; 278 | DISABLE_SEC_BITS_FROM_INPUT_FLAGS(flags);                              
    2459                    ;----------------------------------------------------------------------
    2460 00000012 6838              LDR       A1, [V4, #0]          ; [DPU_3_PIPE] |278|  ; [ORIG 16-BIT INS]
    2461 00000014 407FF020          BIC       A1, A1, #-16777216    ; [DPU_3_PIPE] |278|  ; [KEEP 32-BIT INS]
    2462 00000018 6038              STR       A1, [V4, #0]          ; [DPU_3_PIPE] |278|  ; [ORIG 16-BIT INS]
    2463                            .dwpsn  file "/vagrant/Q4_04/sdk_root/source/ti/drivers/net/wifi/slnetif/slnetifwifi.c",line 2
    2464                    ;----------------------------------------------------------------------
    2465                    ; 279 | return sl_SendTo(sd, buf, len, flags, (const SlSockAddr_t *)to, tolen);
    2466                    ;----------------------------------------------------------------------
    2467 0000001a 6878              LDR       A1, [V4, #4]          ; [DPU_3_PIPE] |279|  ; [ORIG 16-BIT INS]
    2468 0000001c 9000              STR       A1, [SP, #0]          ; [DPU_3_PIPE] |279|  ; [ORIG 16-BIT INS]
    2469 0000001e 8938              LDRH      A1, [V4, #8]          ; [DPU_3_PIPE] |279|  ; [ORIG 16-BIT INS]
    2470 00000020 9001              STR       A1, [SP, #4]          ; [DPU_3_PIPE] |279|  ; [ORIG 16-BIT INS]
    2471 00000022 2010F9BD          LDRSH     A3, [SP, #16]         ; [DPU_3_PIPE] |279|  ; [KEEP 32-BIT INS]
    2472 00000026 3000F9B7          LDRSH     A4, [V4, #0]          ; [DPU_3_PIPE] |279|  ; [KEEP 32-BIT INS]
    2473 0000002a 9903              LDR       A2, [SP, #12]         ; [DPU_3_PIPE] |279|  ; [ORIG 16-BIT INS]
    2474 0000002c 0014F9BD          LDRSH     A1, [SP, #20]         ; [DPU_3_PIPE] |279|  ; [KEEP 32-BIT INS]
    2475                    $C$DW$266       .dwtag  DW_TAG_TI_branch
TI ARM Assembler Unix v16.9.6 Thu Dec 28 17:45:45 2017

Tools Copyright (c) 1996-2017 Texas Instruments Incorporated
slnetifwifi.asm                                                      PAGE   46

    2476                            .dwattr $C$DW$266, DW_AT_low_pc(0x00)
    2477                            .dwattr $C$DW$266, DW_AT_name("sl_SendTo")
    2478                            .dwattr $C$DW$266, DW_AT_TI_call
    2479                    
    2480 00000030 FFFEF7FF!         BL        sl_SendTo             ; [DPU_3_PIPE] |279|  ; [KEEP 32-BIT INS]
    2481                            ; CALL OCCURS {sl_SendTo }       ; [] |279| 
    2482                            .dwpsn  file "/vagrant/Q4_04/sdk_root/source/ti/drivers/net/wifi/slnetif/slnetifwifi.c",line 2
    2483 00000034 B006              ADD       SP, SP, #24           ; [DPU_3_PIPE]  ; [ORIG 16-BIT INS]
    2484                            .dwcfi  cfa_offset, 8
    2485                    $C$DW$267       .dwtag  DW_TAG_TI_branch
    2486                            .dwattr $C$DW$267, DW_AT_low_pc(0x00)
    2487                            .dwattr $C$DW$267, DW_AT_TI_return
    2488                    
    2489 00000036 BD80              POP       {V4, PC}              ; [DPU_3_PIPE]  ; [ORIG 16-BIT INS]
    2490                            .dwcfi  cfa_offset, 0
    2491                            .dwcfi  restore_reg, 7
    2492                            ; BRANCH OCCURS                  ; [] 
    2493                            .dwattr $C$DW$254, DW_AT_TI_end_file("/vagrant/Q4_04/sdk_root/source/ti/drivers/net/wifi/slnet
    2494                            .dwattr $C$DW$254, DW_AT_TI_end_line(0x118)
    2495                            .dwattr $C$DW$254, DW_AT_TI_end_column(0x01)
    2496                            .dwendentry
    2497                            .dwendtag $C$DW$254
    2498                    
    2499 00000000                   .sect   ".text:SlNetIfWifi_sockstartSec"
    2500                            .clink
    2501                            .thumbfunc SlNetIfWifi_sockstartSec
    2502 00000000                   .thumb
    2503                            .global SlNetIfWifi_sockstartSec
    2504                    
    2505                    $C$DW$268       .dwtag  DW_TAG_subprogram
    2506                            .dwattr $C$DW$268, DW_AT_name("SlNetIfWifi_sockstartSec")
    2507                            .dwattr $C$DW$268, DW_AT_low_pc(SlNetIfWifi_sockstartSec)
    2508                            .dwattr $C$DW$268, DW_AT_high_pc(0x00)
    2509                            .dwattr $C$DW$268, DW_AT_TI_symbol_name("SlNetIfWifi_sockstartSec")
    2510                            .dwattr $C$DW$268, DW_AT_external
    2511                            .dwattr $C$DW$268, DW_AT_type(*$C$DW$T$289)
    2512                            .dwattr $C$DW$268, DW_AT_TI_begin_file("/vagrant/Q4_04/sdk_root/source/ti/drivers/net/wifi/sln
    2513                            .dwattr $C$DW$268, DW_AT_TI_begin_line(0x120)
    2514                            .dwattr $C$DW$268, DW_AT_TI_begin_column(0x09)
    2515                            .dwattr $C$DW$268, DW_AT_decl_file("/vagrant/Q4_04/sdk_root/source/ti/drivers/net/wifi/slnetif
    2516                            .dwattr $C$DW$268, DW_AT_decl_line(0x120)
    2517                            .dwattr $C$DW$268, DW_AT_decl_column(0x09)
    2518                            .dwattr $C$DW$268, DW_AT_TI_max_frame_size(0x20)
    2519                            .dwpsn  file "/vagrant/Q4_04/sdk_root/source/ti/drivers/net/wifi/slnetif/slnetifwifi.c",line 2
    2520                    
    2521                            .dwfde $C$DW$CIE, SlNetIfWifi_sockstartSec
    2522                    $C$DW$269       .dwtag  DW_TAG_formal_parameter
    2523                            .dwattr $C$DW$269, DW_AT_name("sd")
    2524                            .dwattr $C$DW$269, DW_AT_TI_symbol_name("sd")
    2525                            .dwattr $C$DW$269, DW_AT_type(*$C$DW$T$285)
    2526                            .dwattr $C$DW$269, DW_AT_location[DW_OP_reg0]
    2527                    
    2528                    $C$DW$270       .dwtag  DW_TAG_formal_parameter
    2529                            .dwattr $C$DW$270, DW_AT_name("sdContext")
    2530                            .dwattr $C$DW$270, DW_AT_TI_symbol_name("sdContext")
TI ARM Assembler Unix v16.9.6 Thu Dec 28 17:45:45 2017

Tools Copyright (c) 1996-2017 Texas Instruments Incorporated
slnetifwifi.asm                                                      PAGE   47

    2531                            .dwattr $C$DW$270, DW_AT_type(*$C$DW$T$3)
    2532                            .dwattr $C$DW$270, DW_AT_location[DW_OP_reg1]
    2533                    
    2534                    $C$DW$271       .dwtag  DW_TAG_formal_parameter
    2535                            .dwattr $C$DW$271, DW_AT_name("secAttrib")
    2536                            .dwattr $C$DW$271, DW_AT_TI_symbol_name("secAttrib")
    2537                            .dwattr $C$DW$271, DW_AT_type(*$C$DW$T$331)
    2538                            .dwattr $C$DW$271, DW_AT_location[DW_OP_reg2]
    2539                    
    2540                    $C$DW$272       .dwtag  DW_TAG_formal_parameter
    2541                            .dwattr $C$DW$272, DW_AT_name("flags")
    2542                            .dwattr $C$DW$272, DW_AT_TI_symbol_name("flags")
    2543                            .dwattr $C$DW$272, DW_AT_type(*$C$DW$T$200)
    2544                            .dwattr $C$DW$272, DW_AT_location[DW_OP_reg3]
    2545                    
    2546                    ;----------------------------------------------------------------------
    2547                    ; 288 | int32_t SlNetIfWifi_sockstartSec(int16_t sd, void *sdContext, SlNetSock
    2548                    ;     | SecAttrib_t *secAttrib, uint8_t flags)                                 
    2549                    ;----------------------------------------------------------------------
    2550                    
    2551                    ;*****************************************************************************
    2552                    ;* FUNCTION NAME: SlNetIfWifi_sockstartSec                                   *
    2553                    ;*                                                                           *
    2554                    ;*   Regs Modified     : A1,A2,A3,A4,V1,V9,SP,LR,SR                          *
    2555                    ;*   Regs Used         : A1,A2,A3,A4,V1,V9,SP,LR,SR                          *
    2556                    ;*   Local Frame Size  : 4 Args + 20 Auto + 8 Save = 32 byte                 *
    2557                    ;*****************************************************************************
    2558 00000000           SlNetIfWifi_sockstartSec:
    2559                    ;* --------------------------------------------------------------------------*
    2560                            .dwcfi  cfa_offset, 0
    2561 00000000 B510              PUSH      {V1, LR}              ; [DPU_3_PIPE]  ; [ORIG 16-BIT INS]
    2562                            .dwcfi  cfa_offset, 8
    2563                            .dwcfi  save_reg_to_mem, 14, -4
    2564                            .dwcfi  save_reg_to_mem, 4, -8
    2565 00000002 0D18F1AD          SUB       SP, SP, #24           ; [DPU_3_PIPE]  ; [KEEP 32-BIT INS]
    2566                            .dwcfi  cfa_offset, 32
    2567                    $C$DW$273       .dwtag  DW_TAG_variable
    2568                            .dwattr $C$DW$273, DW_AT_name("sdContext")
    2569                            .dwattr $C$DW$273, DW_AT_TI_symbol_name("sdContext")
    2570                            .dwattr $C$DW$273, DW_AT_type(*$C$DW$T$3)
    2571                            .dwattr $C$DW$273, DW_AT_location[DW_OP_breg13 4]
    2572                    
    2573                    $C$DW$274       .dwtag  DW_TAG_variable
    2574                            .dwattr $C$DW$274, DW_AT_name("secAttrib")
    2575                            .dwattr $C$DW$274, DW_AT_TI_symbol_name("secAttrib")
    2576                            .dwattr $C$DW$274, DW_AT_type(*$C$DW$T$331)
    2577                            .dwattr $C$DW$274, DW_AT_location[DW_OP_breg13 8]
    2578                    
    2579                    $C$DW$275       .dwtag  DW_TAG_variable
    2580                            .dwattr $C$DW$275, DW_AT_name("tempSecAttrib")
    2581                            .dwattr $C$DW$275, DW_AT_TI_symbol_name("tempSecAttrib")
    2582                            .dwattr $C$DW$275, DW_AT_type(*$C$DW$T$329)
    2583                            .dwattr $C$DW$275, DW_AT_location[DW_OP_breg13 12]
    2584                    
    2585                    $C$DW$276       .dwtag  DW_TAG_variable
TI ARM Assembler Unix v16.9.6 Thu Dec 28 17:45:45 2017

Tools Copyright (c) 1996-2017 Texas Instruments Incorporated
slnetifwifi.asm                                                      PAGE   48

    2586                            .dwattr $C$DW$276, DW_AT_name("retVal")
    2587                            .dwattr $C$DW$276, DW_AT_TI_symbol_name("retVal")
    2588                            .dwattr $C$DW$276, DW_AT_type(*$C$DW$T$289)
    2589                            .dwattr $C$DW$276, DW_AT_location[DW_OP_breg13 16]
    2590                    
    2591                    $C$DW$277       .dwtag  DW_TAG_variable
    2592                            .dwattr $C$DW$277, DW_AT_name("sd")
    2593                            .dwattr $C$DW$277, DW_AT_TI_symbol_name("sd")
    2594                            .dwattr $C$DW$277, DW_AT_type(*$C$DW$T$285)
    2595                            .dwattr $C$DW$277, DW_AT_location[DW_OP_breg13 20]
    2596                    
    2597                    $C$DW$278       .dwtag  DW_TAG_variable
    2598                            .dwattr $C$DW$278, DW_AT_name("flags")
    2599                            .dwattr $C$DW$278, DW_AT_TI_symbol_name("flags")
    2600                            .dwattr $C$DW$278, DW_AT_type(*$C$DW$T$200)
    2601                            .dwattr $C$DW$278, DW_AT_location[DW_OP_breg13 22]
    2602                    
    2603 00000006 3016F88D          STRB      A4, [SP, #22]         ; [DPU_3_PIPE] |289|  ; [KEEP 32-BIT INS]
    2604 0000000a 9202              STR       A3, [SP, #8]          ; [DPU_3_PIPE] |289|  ; [ORIG 16-BIT INS]
    2605 0000000c 9101              STR       A2, [SP, #4]          ; [DPU_3_PIPE] |289|  ; [ORIG 16-BIT INS]
    2606 0000000e 0014F8AD          STRH      A1, [SP, #20]         ; [DPU_3_PIPE] |289|  ; [KEEP 32-BIT INS]
    2607                            .dwpsn  file "/vagrant/Q4_04/sdk_root/source/ti/drivers/net/wifi/slnetif/slnetifwifi.c",line 2
    2608                    ;----------------------------------------------------------------------
    2609                    ; 290 | SlNetSock_SecAttribNode_t *tempSecAttrib = *secAttrib;                 
    2610                    ;----------------------------------------------------------------------
    2611 00000012 9802              LDR       A1, [SP, #8]          ; [DPU_3_PIPE] |290|  ; [ORIG 16-BIT INS]
    2612 00000014 6800              LDR       A1, [A1, #0]          ; [DPU_3_PIPE] |290|  ; [ORIG 16-BIT INS]
    2613 00000016 9003              STR       A1, [SP, #12]         ; [DPU_3_PIPE] |290|  ; [ORIG 16-BIT INS]
    2614                            .dwpsn  file "/vagrant/Q4_04/sdk_root/source/ti/drivers/net/wifi/slnetif/slnetifwifi.c",line 2
    2615                    ;----------------------------------------------------------------------
    2616                    ; 291 | int32_t                   retVal         = SLNETERR_RET_CODE_OK;       
    2617                    ;----------------------------------------------------------------------
    2618 00000018 2000              MOVS      A1, #0                ; [DPU_3_PIPE] |291|  ; [ORIG 16-BIT INS]
    2619 0000001a 9004              STR       A1, [SP, #16]         ; [DPU_3_PIPE] |291|  ; [ORIG 16-BIT INS]
    2620                            .dwpsn  file "/vagrant/Q4_04/sdk_root/source/ti/drivers/net/wifi/slnetif/slnetifwifi.c",line 2
    2621                    ;----------------------------------------------------------------------
    2622                    ; 293 | if ( 0 != (flags & SLNETSOCK_SEC_BIND_CONTEXT_ONLY)  )                 
    2623                    ;----------------------------------------------------------------------
    2624 0000001c 0016F89D          LDRB      A1, [SP, #22]         ; [DPU_3_PIPE] |293|  ; [KEEP 32-BIT INS]
    2625 00000020 0880              LSRS      A1, A1, #2            ; [DPU_3_PIPE] |293|  ; [ORIG 16-BIT INS]
    2626 00000022 D31E              BCC       ||$C$L4||             ; [DPU_3_PIPE] |293|  ; [ORIG 16-BIT INS]
    2627                            ; BRANCHCC OCCURS {||$C$L4||}    ; [] |293| 
    2628                    ;* --------------------------------------------------------------------------*
    2629                            .dwpsn  file "/vagrant/Q4_04/sdk_root/source/ti/drivers/net/wifi/slnetif/slnetifwifi.c",line 2
    2630                    ;----------------------------------------------------------------------
    2631                    ; 296 | while (NULL != tempSecAttrib)                                          
    2632                    ;----------------------------------------------------------------------
    2633 00000024 9803              LDR       A1, [SP, #12]         ; [DPU_3_PIPE] |296|  ; [ORIG 16-BIT INS]
    2634 00000026 B1E0              CBZ       A1, ||$C$L4||         ; []  ; [ORIG 16-BIT INS]
    2635                            ; BRANCHCC OCCURS {||$C$L4||}    ; [] |296| 
    2636                    ;* --------------------------------------------------------------------------*
    2637                    ;*   BEGIN LOOP ||$C$L1||
    2638                    ;*
    2639                    ;*   Loop source line                : 296
    2640                    ;*   Loop closing brace source line  : 307
TI ARM Assembler Unix v16.9.6 Thu Dec 28 17:45:45 2017

Tools Copyright (c) 1996-2017 Texas Instruments Incorporated
slnetifwifi.asm                                                      PAGE   49

    2641                    ;*   Known Minimum Trip Count        : 1
    2642                    ;*   Known Maximum Trip Count        : 4294967295
    2643                    ;*   Known Max Trip Count Factor     : 1
    2644                    ;* --------------------------------------------------------------------------*
    2645 00000028           ||$C$L1||:    
    2646                            .dwpsn  file "/vagrant/Q4_04/sdk_root/source/ti/drivers/net/wifi/slnetif/slnetifwifi.c",line 2
    2647                    ;----------------------------------------------------------------------
    2648                    ; 298 | if ( tempSecAttrib->attribName <= SLNETSOCK_SEC_ATTRIB_DISABLE_CERT_STO
    2649                    ;     | RE)                                                                    
    2650                    ;----------------------------------------------------------------------
    2651 00000028 9803              LDR       A1, [SP, #12]         ; [DPU_3_PIPE] |298|  ; [ORIG 16-BIT INS]
    2652 0000002a 7800              LDRB      A1, [A1, #0]          ; [DPU_3_PIPE] |298|  ; [ORIG 16-BIT INS]
    2653 0000002c 2809              CMP       A1, #9                ; [DPU_3_PIPE] |298|  ; [ORIG 16-BIT INS]
    2654 0000002e DC10              BGT       ||$C$L2||             ; [DPU_3_PIPE] |298|  ; [ORIG 16-BIT INS]
    2655                            ; BRANCHCC OCCURS {||$C$L2||}    ; [] |298| 
    2656                    ;* --------------------------------------------------------------------------*
    2657                            .dwpsn  file "/vagrant/Q4_04/sdk_root/source/ti/drivers/net/wifi/slnetif/slnetifwifi.c",line 3
    2658                    ;----------------------------------------------------------------------
    2659                    ; 300 | retVal = sl_SetSockOpt(sd, SL_SOL_SOCKET, StartSecOptName[tempSecAttrib
    2660                    ;     | ->attribName], tempSecAttrib->attribBuff, tempSecAttrib->attribBuffLen)
    2661                    ;     | ;                                                                      
    2662                    ;----------------------------------------------------------------------
    2663 00000030 9803              LDR       A1, [SP, #12]         ; [DPU_3_PIPE] |300|  ; [ORIG 16-BIT INS]
    2664 00000032 8900              LDRH      A1, [A1, #8]          ; [DPU_3_PIPE] |300|  ; [ORIG 16-BIT INS]
    2665 00000034 9000              STR       A1, [SP, #0]          ; [DPU_3_PIPE] |300|  ; [ORIG 16-BIT INS]
    2666 00000036 9903              LDR       A2, [SP, #12]         ; [DPU_3_PIPE] |300|  ; [ORIG 16-BIT INS]
    2667 00000038 9803              LDR       A1, [SP, #12]         ; [DPU_3_PIPE] |300|  ; [ORIG 16-BIT INS]
    2668 0000003a 4C10              LDR       V1, $C$CON3           ; [DPU_3_PIPE] |300|  ; [ORIG 16-BIT INS]
    2669 0000003c 7802              LDRB      A3, [A1, #0]          ; [DPU_3_PIPE] |300|  ; [ORIG 16-BIT INS]
    2670 0000003e 684B              LDR       A4, [A2, #4]          ; [DPU_3_PIPE] |300|  ; [ORIG 16-BIT INS]
    2671 00000040 0014F9BD          LDRSH     A1, [SP, #20]         ; [DPU_3_PIPE] |300|  ; [KEEP 32-BIT INS]
    2672 00000044 2012F934          LDRSH     A3, [V1, +A3, LSL #1] ; [DPU_3_PIPE] |300|  ; [KEEP 32-BIT INS]
    2673 00000048 2101              MOVS      A2, #1                ; [DPU_3_PIPE] |300|  ; [ORIG 16-BIT INS]
    2674                    $C$DW$279       .dwtag  DW_TAG_TI_branch
    2675                            .dwattr $C$DW$279, DW_AT_low_pc(0x00)
    2676                            .dwattr $C$DW$279, DW_AT_name("sl_SetSockOpt")
    2677                            .dwattr $C$DW$279, DW_AT_TI_call
    2678                    
    2679 0000004a FFFEF7FF!         BL        sl_SetSockOpt         ; [DPU_3_PIPE] |300|  ; [KEEP 32-BIT INS]
    2680                            ; CALL OCCURS {sl_SetSockOpt }   ; [] |300| 
    2681 0000004e 9004              STR       A1, [SP, #16]         ; [DPU_3_PIPE] |300|  ; [ORIG 16-BIT INS]
    2682                            .dwpsn  file "/vagrant/Q4_04/sdk_root/source/ti/drivers/net/wifi/slnetif/slnetifwifi.c",line 3
    2683                    ;----------------------------------------------------------------------
    2684                    ; 302 | else                                                                   
    2685                    ;----------------------------------------------------------------------
    2686 00000050 E001              B         ||$C$L3||             ; [DPU_3_PIPE] |301|  ; [ORIG 16-BIT INS]
    2687                            ; BRANCH OCCURS {||$C$L3||}      ; [] |301| 
    2688                    ;* --------------------------------------------------------------------------*
    2689 00000052           ||$C$L2||:    
    2690                            .dwpsn  file "/vagrant/Q4_04/sdk_root/source/ti/drivers/net/wifi/slnetif/slnetifwifi.c",line 3
    2691                    ;----------------------------------------------------------------------
    2692                    ; 304 | return SLNETERR_RET_CODE_INVALID_INPUT;                                
    2693                    ;----------------------------------------------------------------------
    2694 00000052 480B              LDR       A1, $C$CON4           ; [DPU_3_PIPE] |304|  ; [ORIG 16-BIT INS]
    2695 00000054 E00F              B         ||$C$L6||             ; [DPU_3_PIPE] |304|  ; [ORIG 16-BIT INS]
TI ARM Assembler Unix v16.9.6 Thu Dec 28 17:45:45 2017

Tools Copyright (c) 1996-2017 Texas Instruments Incorporated
slnetifwifi.asm                                                      PAGE   50

    2696                            ; BRANCH OCCURS {||$C$L6||}      ; [] |304| 
    2697                    ;* --------------------------------------------------------------------------*
    2698 00000056           ||$C$L3||:    
    2699                            .dwpsn  file "/vagrant/Q4_04/sdk_root/source/ti/drivers/net/wifi/slnetif/slnetifwifi.c",line 3
    2700                    ;----------------------------------------------------------------------
    2701                    ; 306 | tempSecAttrib = tempSecAttrib->next;                                   
    2702                    ;----------------------------------------------------------------------
    2703 00000056 9803              LDR       A1, [SP, #12]         ; [DPU_3_PIPE] |306|  ; [ORIG 16-BIT INS]
    2704 00000058 68C0              LDR       A1, [A1, #12]         ; [DPU_3_PIPE] |306|  ; [ORIG 16-BIT INS]
    2705 0000005a 9003              STR       A1, [SP, #12]         ; [DPU_3_PIPE] |306|  ; [ORIG 16-BIT INS]
    2706                            .dwpsn  file "/vagrant/Q4_04/sdk_root/source/ti/drivers/net/wifi/slnetif/slnetifwifi.c",line 2
    2707 0000005c 9803              LDR       A1, [SP, #12]         ; [DPU_3_PIPE] |296|  ; [ORIG 16-BIT INS]
    2708 0000005e 2800              CMP       A1, #0                ; [DPU_3_PIPE] |296|  ; [ORIG 16-BIT INS]
    2709 00000060 D1E2              BNE       ||$C$L1||             ; [DPU_3_PIPE] |296|  ; [ORIG 16-BIT INS]
    2710                            ; BRANCHCC OCCURS {||$C$L1||}    ; [] |296| 
    2711                    ;* --------------------------------------------------------------------------*
    2712 00000062           ||$C$L4||:    
    2713                            .dwpsn  file "/vagrant/Q4_04/sdk_root/source/ti/drivers/net/wifi/slnetif/slnetifwifi.c",line 3
    2714                    ;----------------------------------------------------------------------
    2715                    ; 310 | if ( 0 != (flags & SLNETSOCK_SEC_START_SECURITY_SESSION_ONLY)  )       
    2716                    ;----------------------------------------------------------------------
    2717 00000062 0016F89D          LDRB      A1, [SP, #22]         ; [DPU_3_PIPE] |310|  ; [KEEP 32-BIT INS]
    2718 00000066 0840              LSRS      A1, A1, #1            ; [DPU_3_PIPE] |310|  ; [ORIG 16-BIT INS]
    2719 00000068 D304              BCC       ||$C$L5||             ; [DPU_3_PIPE] |310|  ; [ORIG 16-BIT INS]
    2720                            ; BRANCHCC OCCURS {||$C$L5||}    ; [] |310| 
    2721                    ;* --------------------------------------------------------------------------*
    2722                            .dwpsn  file "/vagrant/Q4_04/sdk_root/source/ti/drivers/net/wifi/slnetif/slnetifwifi.c",line 3
    2723                    ;----------------------------------------------------------------------
    2724                    ; 313 | retVal = sl_StartTLS(sd);                                              
    2725                    ;----------------------------------------------------------------------
    2726 0000006a 0014F9BD          LDRSH     A1, [SP, #20]         ; [DPU_3_PIPE] |313|  ; [KEEP 32-BIT INS]
    2727                    $C$DW$280       .dwtag  DW_TAG_TI_branch
    2728                            .dwattr $C$DW$280, DW_AT_low_pc(0x00)
    2729                            .dwattr $C$DW$280, DW_AT_name("sl_StartTLS")
    2730                            .dwattr $C$DW$280, DW_AT_TI_call
    2731                    
    2732 0000006e FFFEF7FF!         BL        sl_StartTLS           ; [DPU_3_PIPE] |313|  ; [KEEP 32-BIT INS]
    2733                            ; CALL OCCURS {sl_StartTLS }     ; [] |313| 
    2734 00000072 9004              STR       A1, [SP, #16]         ; [DPU_3_PIPE] |313|  ; [ORIG 16-BIT INS]
    2735                    ;* --------------------------------------------------------------------------*
    2736 00000074           ||$C$L5||:    
    2737                            .dwpsn  file "/vagrant/Q4_04/sdk_root/source/ti/drivers/net/wifi/slnetif/slnetifwifi.c",line 3
    2738                    ;----------------------------------------------------------------------
    2739                    ; 316 | return retVal;                                                         
    2740                    ;----------------------------------------------------------------------
    2741 00000074 9804              LDR       A1, [SP, #16]         ; [DPU_3_PIPE] |316|  ; [ORIG 16-BIT INS]
    2742                    ;* --------------------------------------------------------------------------*
    2743 00000076           ||$C$L6||:    
    2744                            .dwpsn  file "/vagrant/Q4_04/sdk_root/source/ti/drivers/net/wifi/slnetif/slnetifwifi.c",line 3
    2745 00000076 B006              ADD       SP, SP, #24           ; [DPU_3_PIPE]  ; [ORIG 16-BIT INS]
    2746                            .dwcfi  cfa_offset, 8
    2747                    $C$DW$281       .dwtag  DW_TAG_TI_branch
    2748                            .dwattr $C$DW$281, DW_AT_low_pc(0x00)
    2749                            .dwattr $C$DW$281, DW_AT_TI_return
    2750                    
TI ARM Assembler Unix v16.9.6 Thu Dec 28 17:45:45 2017

Tools Copyright (c) 1996-2017 Texas Instruments Incorporated
slnetifwifi.asm                                                      PAGE   51

    2751 00000078 BD10              POP       {V1, PC}              ; [DPU_3_PIPE]  ; [ORIG 16-BIT INS]
    2752                            .dwcfi  cfa_offset, 0
    2753                            .dwcfi  restore_reg, 4
    2754                            ; BRANCH OCCURS                  ; [] 
    2755                            .dwattr $C$DW$268, DW_AT_TI_end_file("/vagrant/Q4_04/sdk_root/source/ti/drivers/net/wifi/slnet
    2756                            .dwattr $C$DW$268, DW_AT_TI_end_line(0x13d)
    2757                            .dwattr $C$DW$268, DW_AT_TI_end_column(0x01)
    2758                            .dwendentry
    2759                            .dwendtag $C$DW$268
    2760                    
    2761 00000000                   .sect   ".text:SlNetIfWifi_getHostByName"
    2762                            .clink
    2763                            .thumbfunc SlNetIfWifi_getHostByName
    2764 00000000                   .thumb
    2765                            .global SlNetIfWifi_getHostByName
    2766                    
    2767                    $C$DW$282       .dwtag  DW_TAG_subprogram
    2768                            .dwattr $C$DW$282, DW_AT_name("SlNetIfWifi_getHostByName")
    2769                            .dwattr $C$DW$282, DW_AT_low_pc(SlNetIfWifi_getHostByName)
    2770                            .dwattr $C$DW$282, DW_AT_high_pc(0x00)
    2771                            .dwattr $C$DW$282, DW_AT_TI_symbol_name("SlNetIfWifi_getHostByName")
    2772                            .dwattr $C$DW$282, DW_AT_external
    2773                            .dwattr $C$DW$282, DW_AT_type(*$C$DW$T$289)
    2774                            .dwattr $C$DW$282, DW_AT_TI_begin_file("/vagrant/Q4_04/sdk_root/source/ti/drivers/net/wifi/sln
    2775                            .dwattr $C$DW$282, DW_AT_TI_begin_line(0x146)
    2776                            .dwattr $C$DW$282, DW_AT_TI_begin_column(0x09)
    2777                            .dwattr $C$DW$282, DW_AT_decl_file("/vagrant/Q4_04/sdk_root/source/ti/drivers/net/wifi/slnetif
    2778                            .dwattr $C$DW$282, DW_AT_decl_line(0x146)
    2779                            .dwattr $C$DW$282, DW_AT_decl_column(0x09)
    2780                            .dwattr $C$DW$282, DW_AT_TI_max_frame_size(0x20)
    2781                            .dwpsn  file "/vagrant/Q4_04/sdk_root/source/ti/drivers/net/wifi/slnetif/slnetifwifi.c",line 3
    2782                    
    2783                            .dwfde $C$DW$CIE, SlNetIfWifi_getHostByName
    2784                    $C$DW$283       .dwtag  DW_TAG_formal_parameter
    2785                            .dwattr $C$DW$283, DW_AT_name("ifContext")
    2786                            .dwattr $C$DW$283, DW_AT_TI_symbol_name("ifContext")
    2787                            .dwattr $C$DW$283, DW_AT_type(*$C$DW$T$3)
    2788                            .dwattr $C$DW$283, DW_AT_location[DW_OP_reg0]
    2789                    
    2790                    $C$DW$284       .dwtag  DW_TAG_formal_parameter
    2791                            .dwattr $C$DW$284, DW_AT_name("name")
    2792                            .dwattr $C$DW$284, DW_AT_TI_symbol_name("name")
    2793                            .dwattr $C$DW$284, DW_AT_type(*$C$DW$T$334)
    2794                            .dwattr $C$DW$284, DW_AT_location[DW_OP_reg1]
    2795                    
    2796                    $C$DW$285       .dwtag  DW_TAG_formal_parameter
    2797                            .dwattr $C$DW$285, DW_AT_name("nameLen")
    2798                            .dwattr $C$DW$285, DW_AT_TI_symbol_name("nameLen")
    2799                            .dwattr $C$DW$285, DW_AT_type(*$C$DW$T$335)
    2800                            .dwattr $C$DW$285, DW_AT_location[DW_OP_reg2]
    2801                    
    2802                    $C$DW$286       .dwtag  DW_TAG_formal_parameter
    2803                            .dwattr $C$DW$286, DW_AT_name("ipAddr")
    2804                            .dwattr $C$DW$286, DW_AT_TI_symbol_name("ipAddr")
    2805                            .dwattr $C$DW$286, DW_AT_type(*$C$DW$T$336)
TI ARM Assembler Unix v16.9.6 Thu Dec 28 17:45:45 2017

Tools Copyright (c) 1996-2017 Texas Instruments Incorporated
slnetifwifi.asm                                                      PAGE   52

    2806                            .dwattr $C$DW$286, DW_AT_location[DW_OP_reg3]
    2807                    
    2808                    $C$DW$287       .dwtag  DW_TAG_formal_parameter
    2809                            .dwattr $C$DW$287, DW_AT_name("ipAddrLen")
    2810                            .dwattr $C$DW$287, DW_AT_TI_symbol_name("ipAddrLen")
    2811                            .dwattr $C$DW$287, DW_AT_type(*$C$DW$T$337)
    2812                            .dwattr $C$DW$287, DW_AT_location[DW_OP_breg13 32]
    2813                    
    2814                    $C$DW$288       .dwtag  DW_TAG_formal_parameter
    2815                            .dwattr $C$DW$288, DW_AT_name("family")
    2816                            .dwattr $C$DW$288, DW_AT_TI_symbol_name("family")
    2817                            .dwattr $C$DW$288, DW_AT_type(*$C$DW$T$338)
    2818                            .dwattr $C$DW$288, DW_AT_location[DW_OP_breg13 36]
    2819                    
    2820                    ;----------------------------------------------------------------------
    2821                    ; 326 | int32_t SlNetIfWifi_getHostByName(void *ifContext, char *name, const ui
    2822                    ;     | nt16_t nameLen, uint32_t *ipAddr, uint16_t *ipAddrLen, const uint8_t fa
    2823                    ;     | mily)                                                                  
    2824                    ;----------------------------------------------------------------------
    2825                    
    2826                    ;*****************************************************************************
    2827                    ;* FUNCTION NAME: SlNetIfWifi_getHostByName                                  *
    2828                    ;*                                                                           *
    2829                    ;*   Regs Modified     : A1,A2,A3,A4,V4,V9,SP,LR,SR                          *
    2830                    ;*   Regs Used         : A1,A2,A3,A4,V4,V9,SP,LR,SR                          *
    2831                    ;*   Local Frame Size  : 0 Args + 20 Auto + 8 Save = 28 byte                 *
    2832                    ;*****************************************************************************
    2833 00000000           SlNetIfWifi_getHostByName:
    2834                    ;* --------------------------------------------------------------------------*
    2835                            .dwcfi  cfa_offset, 0
    2836 00000000 B580              PUSH      {V4, LR}              ; [DPU_3_PIPE]  ; [ORIG 16-BIT INS]
    2837                            .dwcfi  cfa_offset, 8
    2838                            .dwcfi  save_reg_to_mem, 14, -4
    2839                            .dwcfi  save_reg_to_mem, 7, -8
    2840 00000002 AF02              ADD       V4, SP, #8            ; [DPU_3_PIPE]  ; [ORIG 16-BIT INS]
    2841 00000004 0D18F1AD          SUB       SP, SP, #24           ; [DPU_3_PIPE]  ; [KEEP 32-BIT INS]
    2842                            .dwcfi  cfa_offset, 32
    2843                    $C$DW$289       .dwtag  DW_TAG_variable
    2844                            .dwattr $C$DW$289, DW_AT_name("ifContext")
    2845                            .dwattr $C$DW$289, DW_AT_TI_symbol_name("ifContext")
    2846                            .dwattr $C$DW$289, DW_AT_type(*$C$DW$T$3)
    2847                            .dwattr $C$DW$289, DW_AT_location[DW_OP_breg13 0]
    2848                    
    2849                    $C$DW$290       .dwtag  DW_TAG_variable
    2850                            .dwattr $C$DW$290, DW_AT_name("name")
    2851                            .dwattr $C$DW$290, DW_AT_TI_symbol_name("name")
    2852                            .dwattr $C$DW$290, DW_AT_type(*$C$DW$T$334)
    2853                            .dwattr $C$DW$290, DW_AT_location[DW_OP_breg13 4]
    2854                    
    2855                    $C$DW$291       .dwtag  DW_TAG_variable
    2856                            .dwattr $C$DW$291, DW_AT_name("ipAddr")
    2857                            .dwattr $C$DW$291, DW_AT_TI_symbol_name("ipAddr")
    2858                            .dwattr $C$DW$291, DW_AT_type(*$C$DW$T$336)
    2859                            .dwattr $C$DW$291, DW_AT_location[DW_OP_breg13 8]
    2860                    
TI ARM Assembler Unix v16.9.6 Thu Dec 28 17:45:45 2017

Tools Copyright (c) 1996-2017 Texas Instruments Incorporated
slnetifwifi.asm                                                      PAGE   53

    2861                    $C$DW$292       .dwtag  DW_TAG_variable
    2862                            .dwattr $C$DW$292, DW_AT_name("retVal")
    2863                            .dwattr $C$DW$292, DW_AT_TI_symbol_name("retVal")
    2864                            .dwattr $C$DW$292, DW_AT_type(*$C$DW$T$289)
    2865                            .dwattr $C$DW$292, DW_AT_location[DW_OP_breg13 12]
    2866                    
    2867                    $C$DW$293       .dwtag  DW_TAG_variable
    2868                            .dwattr $C$DW$293, DW_AT_name("nameLen")
    2869                            .dwattr $C$DW$293, DW_AT_TI_symbol_name("nameLen")
    2870                            .dwattr $C$DW$293, DW_AT_type(*$C$DW$T$335)
    2871                            .dwattr $C$DW$293, DW_AT_location[DW_OP_breg13 16]
    2872                    
    2873 00000008 9302              STR       A4, [SP, #8]          ; [DPU_3_PIPE] |327|  ; [ORIG 16-BIT INS]
    2874 0000000a 2010F8AD          STRH      A3, [SP, #16]         ; [DPU_3_PIPE] |327|  ; [KEEP 32-BIT INS]
    2875 0000000e 9101              STR       A2, [SP, #4]          ; [DPU_3_PIPE] |327|  ; [ORIG 16-BIT INS]
    2876 00000010 9000              STR       A1, [SP, #0]          ; [DPU_3_PIPE] |327|  ; [ORIG 16-BIT INS]
    2877                            .dwpsn  file "/vagrant/Q4_04/sdk_root/source/ti/drivers/net/wifi/slnetif/slnetifwifi.c",line 3
    2878                    ;----------------------------------------------------------------------
    2879                    ; 328 | int32_t  retVal = SLNETERR_RET_CODE_OK;                                
    2880                    ;----------------------------------------------------------------------
    2881 00000012 2000              MOVS      A1, #0                ; [DPU_3_PIPE] |328|  ; [ORIG 16-BIT INS]
    2882 00000014 9003              STR       A1, [SP, #12]         ; [DPU_3_PIPE] |328|  ; [ORIG 16-BIT INS]
    2883                            .dwpsn  file "/vagrant/Q4_04/sdk_root/source/ti/drivers/net/wifi/slnetif/slnetifwifi.c",line 3
    2884                    ;----------------------------------------------------------------------
    2885                    ; 333 | retVal = sl_NetAppDnsGetHostByName((signed char *)name, nameLen, (_u32
    2886                    ;     | *)ipAddr, family);                                                     
    2887                    ;----------------------------------------------------------------------
    2888 00000016 793B              LDRB      A4, [V4, #4]          ; [DPU_3_PIPE] |333|  ; [ORIG 16-BIT INS]
    2889 00000018 1010F8BD          LDRH      A2, [SP, #16]         ; [DPU_3_PIPE] |333|  ; [KEEP 32-BIT INS]
    2890 0000001c 9A02              LDR       A3, [SP, #8]          ; [DPU_3_PIPE] |333|  ; [ORIG 16-BIT INS]
    2891 0000001e 9801              LDR       A1, [SP, #4]          ; [DPU_3_PIPE] |333|  ; [ORIG 16-BIT INS]
    2892                    $C$DW$294       .dwtag  DW_TAG_TI_branch
    2893                            .dwattr $C$DW$294, DW_AT_low_pc(0x00)
    2894                            .dwattr $C$DW$294, DW_AT_name("sl_NetAppDnsGetHostByName")
    2895                            .dwattr $C$DW$294, DW_AT_TI_call
    2896                    
    2897 00000020 FFFEF7FF!         BL        sl_NetAppDnsGetHostByName ; [DPU_3_PIPE] |333|  ; [KEEP 32-BIT INS]
    2898                            ; CALL OCCURS {sl_NetAppDnsGetHostByName }  ; [] |333| 
    2899 00000024 9003              STR       A1, [SP, #12]         ; [DPU_3_PIPE] |333|  ; [ORIG 16-BIT INS]
    2900                            .dwpsn  file "/vagrant/Q4_04/sdk_root/source/ti/drivers/net/wifi/slnetif/slnetifwifi.c",line 3
    2901                    ;----------------------------------------------------------------------
    2902                    ; 335 | if (retVal == SLNETERR_RET_CODE_OK)                                    
    2903                    ;----------------------------------------------------------------------
    2904 00000026 9803              LDR       A1, [SP, #12]         ; [DPU_3_PIPE] |335|  ; [ORIG 16-BIT INS]
    2905 00000028 B910              CBNZ      A1, ||$C$L7||         ; []  ; [ORIG 16-BIT INS]
    2906                            ; BRANCHCC OCCURS {||$C$L7||}    ; [] |335| 
    2907                    ;* --------------------------------------------------------------------------*
    2908                            .dwpsn  file "/vagrant/Q4_04/sdk_root/source/ti/drivers/net/wifi/slnetif/slnetifwifi.c",line 3
    2909                    ;----------------------------------------------------------------------
    2910                    ; 337 | *ipAddrLen = 1;                                                        
    2911                    ;----------------------------------------------------------------------
    2912 0000002a 6838              LDR       A1, [V4, #0]          ; [DPU_3_PIPE] |337|  ; [ORIG 16-BIT INS]
    2913 0000002c 2101              MOVS      A2, #1                ; [DPU_3_PIPE] |337|  ; [ORIG 16-BIT INS]
    2914 0000002e 8001              STRH      A2, [A1, #0]          ; [DPU_3_PIPE] |337|  ; [ORIG 16-BIT INS]
    2915                    ;* --------------------------------------------------------------------------*
TI ARM Assembler Unix v16.9.6 Thu Dec 28 17:45:45 2017

Tools Copyright (c) 1996-2017 Texas Instruments Incorporated
slnetifwifi.asm                                                      PAGE   54

    2916 00000030           ||$C$L7||:    
    2917                            .dwpsn  file "/vagrant/Q4_04/sdk_root/source/ti/drivers/net/wifi/slnetif/slnetifwifi.c",line 3
    2918                    ;----------------------------------------------------------------------
    2919                    ; 340 | return retVal;                                                         
    2920                    ;----------------------------------------------------------------------
    2921 00000030 9803              LDR       A1, [SP, #12]         ; [DPU_3_PIPE] |340|  ; [ORIG 16-BIT INS]
    2922                            .dwpsn  file "/vagrant/Q4_04/sdk_root/source/ti/drivers/net/wifi/slnetif/slnetifwifi.c",line 3
    2923 00000032 B006              ADD       SP, SP, #24           ; [DPU_3_PIPE]  ; [ORIG 16-BIT INS]
    2924                            .dwcfi  cfa_offset, 8
    2925                    $C$DW$295       .dwtag  DW_TAG_TI_branch
    2926                            .dwattr $C$DW$295, DW_AT_low_pc(0x00)
    2927                            .dwattr $C$DW$295, DW_AT_TI_return
    2928                    
    2929 00000034 BD80              POP       {V4, PC}              ; [DPU_3_PIPE]  ; [ORIG 16-BIT INS]
    2930                            .dwcfi  cfa_offset, 0
    2931                            .dwcfi  restore_reg, 7
    2932                            ; BRANCH OCCURS                  ; [] 
    2933                            .dwattr $C$DW$282, DW_AT_TI_end_file("/vagrant/Q4_04/sdk_root/source/ti/drivers/net/wifi/slnet
    2934                            .dwattr $C$DW$282, DW_AT_TI_end_line(0x157)
    2935                            .dwattr $C$DW$282, DW_AT_TI_end_column(0x01)
    2936                            .dwendentry
    2937                            .dwendtag $C$DW$282
    2938                    
    2939 00000000                   .sect   ".text:SlNetIfWifi_getIPAddr"
    2940                            .clink
    2941                            .thumbfunc SlNetIfWifi_getIPAddr
    2942 00000000                   .thumb
    2943                            .global SlNetIfWifi_getIPAddr
    2944                    
    2945                    $C$DW$296       .dwtag  DW_TAG_subprogram
    2946                            .dwattr $C$DW$296, DW_AT_name("SlNetIfWifi_getIPAddr")
    2947                            .dwattr $C$DW$296, DW_AT_low_pc(SlNetIfWifi_getIPAddr)
    2948                            .dwattr $C$DW$296, DW_AT_high_pc(0x00)
    2949                            .dwattr $C$DW$296, DW_AT_TI_symbol_name("SlNetIfWifi_getIPAddr")
    2950                            .dwattr $C$DW$296, DW_AT_external
    2951                            .dwattr $C$DW$296, DW_AT_type(*$C$DW$T$289)
    2952                            .dwattr $C$DW$296, DW_AT_TI_begin_file("/vagrant/Q4_04/sdk_root/source/ti/drivers/net/wifi/sln
    2953                            .dwattr $C$DW$296, DW_AT_TI_begin_line(0x15f)
    2954                            .dwattr $C$DW$296, DW_AT_TI_begin_column(0x09)
    2955                            .dwattr $C$DW$296, DW_AT_decl_file("/vagrant/Q4_04/sdk_root/source/ti/drivers/net/wifi/slnetif
    2956                            .dwattr $C$DW$296, DW_AT_decl_line(0x15f)
    2957                            .dwattr $C$DW$296, DW_AT_decl_column(0x09)
    2958                            .dwattr $C$DW$296, DW_AT_TI_max_frame_size(0x18)
    2959                            .dwpsn  file "/vagrant/Q4_04/sdk_root/source/ti/drivers/net/wifi/slnetif/slnetifwifi.c",line 3
    2960                    
    2961                            .dwfde $C$DW$CIE, SlNetIfWifi_getIPAddr
    2962                    $C$DW$297       .dwtag  DW_TAG_formal_parameter
    2963                            .dwattr $C$DW$297, DW_AT_name("ifContext")
    2964                            .dwattr $C$DW$297, DW_AT_TI_symbol_name("ifContext")
    2965                            .dwattr $C$DW$297, DW_AT_type(*$C$DW$T$3)
    2966                            .dwattr $C$DW$297, DW_AT_location[DW_OP_reg0]
    2967                    
    2968                    $C$DW$298       .dwtag  DW_TAG_formal_parameter
    2969                            .dwattr $C$DW$298, DW_AT_name("addrType")
    2970                            .dwattr $C$DW$298, DW_AT_TI_symbol_name("addrType")
TI ARM Assembler Unix v16.9.6 Thu Dec 28 17:45:45 2017

Tools Copyright (c) 1996-2017 Texas Instruments Incorporated
slnetifwifi.asm                                                      PAGE   55

    2971                            .dwattr $C$DW$298, DW_AT_type(*$C$DW$T$342)
    2972                            .dwattr $C$DW$298, DW_AT_location[DW_OP_reg1]
    2973                    
    2974                    $C$DW$299       .dwtag  DW_TAG_formal_parameter
    2975                            .dwattr $C$DW$299, DW_AT_name("addrConfig")
    2976                            .dwattr $C$DW$299, DW_AT_TI_symbol_name("addrConfig")
    2977                            .dwattr $C$DW$299, DW_AT_type(*$C$DW$T$337)
    2978                            .dwattr $C$DW$299, DW_AT_location[DW_OP_reg2]
    2979                    
    2980                    $C$DW$300       .dwtag  DW_TAG_formal_parameter
    2981                            .dwattr $C$DW$300, DW_AT_name("ipAddr")
    2982                            .dwattr $C$DW$300, DW_AT_TI_symbol_name("ipAddr")
    2983                            .dwattr $C$DW$300, DW_AT_type(*$C$DW$T$336)
    2984                            .dwattr $C$DW$300, DW_AT_location[DW_OP_reg3]
    2985                    
    2986                    ;----------------------------------------------------------------------
    2987                    ; 351 | int32_t SlNetIfWifi_getIPAddr(void *ifContext, SlNetIfAddressType_e add
    2988                    ;     | rType, uint16_t *addrConfig, uint32_t *ipAddr)                         
    2989                    ;----------------------------------------------------------------------
    2990                    
    2991                    ;*****************************************************************************
    2992                    ;* FUNCTION NAME: SlNetIfWifi_getIPAddr                                      *
    2993                    ;*                                                                           *
    2994                    ;*   Regs Modified     : A1,A2,A3,A4,V9,SP,LR,SR                             *
    2995                    ;*   Regs Used         : A1,A2,A3,A4,V9,SP,LR,SR                             *
    2996                    ;*   Local Frame Size  : 0 Args + 16 Auto + 4 Save = 20 byte                 *
    2997                    ;*****************************************************************************
    2998 00000000           SlNetIfWifi_getIPAddr:
    2999                    ;* --------------------------------------------------------------------------*
    3000                            .dwcfi  cfa_offset, 0
    3001 00000000 B500              PUSH      {LR}                  ; [DPU_3_PIPE]  ; [ORIG 16-BIT INS]
    3002                            .dwcfi  cfa_offset, 4
    3003                            .dwcfi  save_reg_to_mem, 14, -4
    3004 00000002 0D14F1AD          SUB       SP, SP, #20           ; [DPU_3_PIPE]  ; [KEEP 32-BIT INS]
    3005                            .dwcfi  cfa_offset, 24
    3006                    $C$DW$301       .dwtag  DW_TAG_variable
    3007                            .dwattr $C$DW$301, DW_AT_name("ifContext")
    3008                            .dwattr $C$DW$301, DW_AT_TI_symbol_name("ifContext")
    3009                            .dwattr $C$DW$301, DW_AT_type(*$C$DW$T$3)
    3010                            .dwattr $C$DW$301, DW_AT_location[DW_OP_breg13 0]
    3011                    
    3012                    $C$DW$302       .dwtag  DW_TAG_variable
    3013                            .dwattr $C$DW$302, DW_AT_name("addrConfig")
    3014                            .dwattr $C$DW$302, DW_AT_TI_symbol_name("addrConfig")
    3015                            .dwattr $C$DW$302, DW_AT_type(*$C$DW$T$337)
    3016                            .dwattr $C$DW$302, DW_AT_location[DW_OP_breg13 4]
    3017                    
    3018                    $C$DW$303       .dwtag  DW_TAG_variable
    3019                            .dwattr $C$DW$303, DW_AT_name("ipAddr")
    3020                            .dwattr $C$DW$303, DW_AT_TI_symbol_name("ipAddr")
    3021                            .dwattr $C$DW$303, DW_AT_type(*$C$DW$T$336)
    3022                            .dwattr $C$DW$303, DW_AT_location[DW_OP_breg13 8]
    3023                    
    3024                    $C$DW$304       .dwtag  DW_TAG_variable
    3025                            .dwattr $C$DW$304, DW_AT_name("ipAddrLen")
TI ARM Assembler Unix v16.9.6 Thu Dec 28 17:45:45 2017

Tools Copyright (c) 1996-2017 Texas Instruments Incorporated
slnetifwifi.asm                                                      PAGE   56

    3026                            .dwattr $C$DW$304, DW_AT_TI_symbol_name("ipAddrLen")
    3027                            .dwattr $C$DW$304, DW_AT_type(*$C$DW$T$202)
    3028                            .dwattr $C$DW$304, DW_AT_location[DW_OP_breg13 12]
    3029                    
    3030                    $C$DW$305       .dwtag  DW_TAG_variable
    3031                            .dwattr $C$DW$305, DW_AT_name("addrType")
    3032                            .dwattr $C$DW$305, DW_AT_TI_symbol_name("addrType")
    3033                            .dwattr $C$DW$305, DW_AT_type(*$C$DW$T$342)
    3034                            .dwattr $C$DW$305, DW_AT_location[DW_OP_breg13 14]
    3035                    
    3036 00000006 9302              STR       A4, [SP, #8]          ; [DPU_3_PIPE] |352|  ; [ORIG 16-BIT INS]
