###############################################################################
#
# IAR ELF Linker V8.20.1.14183/W32 for ARM                09/Nov/2018  14:39:34
# Copyright 2007-2017 IAR Systems AB.
#
#    Output file  =  
#        D:\work\IOT\code\internal_code\projects\autogen\helloworld@developerkit\iar_project\Debug\Exe\helloworld@developerkit.out
#    Map file     =  
#        D:\work\IOT\code\internal_code\projects\autogen\helloworld@developerkit\iar_project\Debug\List\helloworld@developerkit.map
#    Command line =  
#        -f C:\Users\jinzhou.zjz\AppData\Local\Temp\EWDC43.tmp
#        (D:\work\IOT\code\internal_code\projects\autogen\helloworld@developerkit\iar_project\Debug\Obj\adc.o
#        D:\work\IOT\code\internal_code\projects\autogen\helloworld@developerkit\iar_project\Debug\Obj\aos.o
#        D:\work\IOT\code\internal_code\projects\autogen\helloworld@developerkit\iar_project\Debug\Obj\aos_common.o
#        D:\work\IOT\code\internal_code\projects\autogen\helloworld@developerkit\iar_project\Debug\Obj\aos_init.o
#        D:\work\IOT\code\internal_code\projects\autogen\helloworld@developerkit\iar_project\Debug\Obj\aos_rhino.o
#        D:\work\IOT\code\internal_code\projects\autogen\helloworld@developerkit\iar_project\Debug\Obj\atparser.o
#        D:\work\IOT\code\internal_code\projects\autogen\helloworld@developerkit\iar_project\Debug\Obj\bk7231.o
#        D:\work\IOT\code\internal_code\projects\autogen\helloworld@developerkit\iar_project\Debug\Obj\board.o
#        D:\work\IOT\code\internal_code\projects\autogen\helloworld@developerkit\iar_project\Debug\Obj\board_cli.o
#        D:\work\IOT\code\internal_code\projects\autogen\helloworld@developerkit\iar_project\Debug\Obj\board_cpu_pwr.o
#        D:\work\IOT\code\internal_code\projects\autogen\helloworld@developerkit\iar_project\Debug\Obj\board_cpu_pwr_rtc.o
#        D:\work\IOT\code\internal_code\projects\autogen\helloworld@developerkit\iar_project\Debug\Obj\board_cpu_pwr_systick.o
#        D:\work\IOT\code\internal_code\projects\autogen\helloworld@developerkit\iar_project\Debug\Obj\board_cpu_pwr_timer.o
#        D:\work\IOT\code\internal_code\projects\autogen\helloworld@developerkit\iar_project\Debug\Obj\CheckSumUtils.o
#        D:\work\IOT\code\internal_code\projects\autogen\helloworld@developerkit\iar_project\Debug\Obj\cli.o
#        D:\work\IOT\code\internal_code\projects\autogen\helloworld@developerkit\iar_project\Debug\Obj\crc.o
#        D:\work\IOT\code\internal_code\projects\autogen\helloworld@developerkit\iar_project\Debug\Obj\crc16.o
#        D:\work\IOT\code\internal_code\projects\autogen\helloworld@developerkit\iar_project\Debug\Obj\dcmi.o
#        D:\work\IOT\code\internal_code\projects\autogen\helloworld@developerkit\iar_project\Debug\Obj\device.o
#        D:\work\IOT\code\internal_code\projects\autogen\helloworld@developerkit\iar_project\Debug\Obj\digest_algorithm.o
#        D:\work\IOT\code\internal_code\projects\autogen\helloworld@developerkit\iar_project\Debug\Obj\dma.o
#        D:\work\IOT\code\internal_code\projects\autogen\helloworld@developerkit\iar_project\Debug\Obj\drv_acc_bosch_bma253.o
#        D:\work\IOT\code\internal_code\projects\autogen\helloworld@developerkit\iar_project\Debug\Obj\drv_acc_gyro_st_lsm6dsl.o
#        D:\work\IOT\code\internal_code\projects\autogen\helloworld@developerkit\iar_project\Debug\Obj\drv_acc_mir3_da217.o
#        D:\work\IOT\code\internal_code\projects\autogen\helloworld@developerkit\iar_project\Debug\Obj\drv_als_ps_liteon_ltr553.o
#        D:\work\IOT\code\internal_code\projects\autogen\helloworld@developerkit\iar_project\Debug\Obj\drv_baro_bosch_bmp280.o
#        D:\work\IOT\code\internal_code\projects\autogen\helloworld@developerkit\iar_project\Debug\Obj\drv_baro_st_lps22hb.o
#        D:\work\IOT\code\internal_code\projects\autogen\helloworld@developerkit\iar_project\Debug\Obj\drv_humi_bosch_bme280.o
#        D:\work\IOT\code\internal_code\projects\autogen\helloworld@developerkit\iar_project\Debug\Obj\drv_mag_st_lis3mdl.o
#        D:\work\IOT\code\internal_code\projects\autogen\helloworld@developerkit\iar_project\Debug\Obj\drv_mag_temp_memsic_mmc3680kj.o
#        D:\work\IOT\code\internal_code\projects\autogen\helloworld@developerkit\iar_project\Debug\Obj\drv_temp_humi_sensirion_shtc1.o
#        D:\work\IOT\code\internal_code\projects\autogen\helloworld@developerkit\iar_project\Debug\Obj\drv_temp_humi_st_hts221.o
#        D:\work\IOT\code\internal_code\projects\autogen\helloworld@developerkit\iar_project\Debug\Obj\dumpsys.o
#        D:\work\IOT\code\internal_code\projects\autogen\helloworld@developerkit\iar_project\Debug\Obj\gpio.o
#        D:\work\IOT\code\internal_code\projects\autogen\helloworld@developerkit\iar_project\Debug\Obj\hal.o
#        D:\work\IOT\code\internal_code\projects\autogen\helloworld@developerkit\iar_project\Debug\Obj\hal_adc_stm32l4.o
#        D:\work\IOT\code\internal_code\projects\autogen\helloworld@developerkit\iar_project\Debug\Obj\hal_flash_stm32l4.o
#        D:\work\IOT\code\internal_code\projects\autogen\helloworld@developerkit\iar_project\Debug\Obj\hal_gpio_stm32l4.o
#        D:\work\IOT\code\internal_code\projects\autogen\helloworld@developerkit\iar_project\Debug\Obj\hal_i2c_stm32l4.o
#        D:\work\IOT\code\internal_code\projects\autogen\helloworld@developerkit\iar_project\Debug\Obj\hal_nand_stm32l4.o
#        D:\work\IOT\code\internal_code\projects\autogen\helloworld@developerkit\iar_project\Debug\Obj\hal_nor_stm32l4.o
#        D:\work\IOT\code\internal_code\projects\autogen\helloworld@developerkit\iar_project\Debug\Obj\hal_qspi_stm32l4.o
#        D:\work\IOT\code\internal_code\projects\autogen\helloworld@developerkit\iar_project\Debug\Obj\hal_rtc_stm32l4.o
#        D:\work\IOT\code\internal_code\projects\autogen\helloworld@developerkit\iar_project\Debug\Obj\hal_sd_stm32l4.o
#        D:\work\IOT\code\internal_code\projects\autogen\helloworld@developerkit\iar_project\Debug\Obj\hal_spi_stm32l4.o
#        D:\work\IOT\code\internal_code\projects\autogen\helloworld@developerkit\iar_project\Debug\Obj\hal_uart_stm32l4.o
#        D:\work\IOT\code\internal_code\projects\autogen\helloworld@developerkit\iar_project\Debug\Obj\helloworld.o
#        D:\work\IOT\code\internal_code\projects\autogen\helloworld@developerkit\iar_project\Debug\Obj\hook_impl.o
#        D:\work\IOT\code\internal_code\projects\autogen\helloworld@developerkit\iar_project\Debug\Obj\hw.o
#        D:\work\IOT\code\internal_code\projects\autogen\helloworld@developerkit\iar_project\Debug\Obj\i2c.o
#        D:\work\IOT\code\internal_code\projects\autogen\helloworld@developerkit\iar_project\Debug\Obj\iar_libc.o
#        D:\work\IOT\code\internal_code\projects\autogen\helloworld@developerkit\iar_project\Debug\Obj\ip4_addr.o
#        D:\work\IOT\code\internal_code\projects\autogen\helloworld@developerkit\iar_project\Debug\Obj\irtim.o
#        D:\work\IOT\code\internal_code\projects\autogen\helloworld@developerkit\iar_project\Debug\Obj\k_backtrace.o
#        D:\work\IOT\code\internal_code\projects\autogen\helloworld@developerkit\iar_project\Debug\Obj\k_buf_queue.o
#        D:\work\IOT\code\internal_code\projects\autogen\helloworld@developerkit\iar_project\Debug\Obj\k_cpuusage.o
#        D:\work\IOT\code\internal_code\projects\autogen\helloworld@developerkit\iar_project\Debug\Obj\k_dyn_mem_proc.o
#        D:\work\IOT\code\internal_code\projects\autogen\helloworld@developerkit\iar_project\Debug\Obj\k_err.o
#        D:\work\IOT\code\internal_code\projects\autogen\helloworld@developerkit\iar_project\Debug\Obj\k_event.o
#        D:\work\IOT\code\internal_code\projects\autogen\helloworld@developerkit\iar_project\Debug\Obj\k_fifo.o
#        D:\work\IOT\code\internal_code\projects\autogen\helloworld@developerkit\iar_project\Debug\Obj\k_idle.o
#        D:\work\IOT\code\internal_code\projects\autogen\helloworld@developerkit\iar_project\Debug\Obj\k_infoget.o
#        D:\work\IOT\code\internal_code\projects\autogen\helloworld@developerkit\iar_project\Debug\Obj\k_mm.o
#        D:\work\IOT\code\internal_code\projects\autogen\helloworld@developerkit\iar_project\Debug\Obj\k_mm_blk.o
#        D:\work\IOT\code\internal_code\projects\autogen\helloworld@developerkit\iar_project\Debug\Obj\k_mm_debug.o
#        D:\work\IOT\code\internal_code\projects\autogen\helloworld@developerkit\iar_project\Debug\Obj\k_mutex.o
#        D:\work\IOT\code\internal_code\projects\autogen\helloworld@developerkit\iar_project\Debug\Obj\k_obj.o
#        D:\work\IOT\code\internal_code\projects\autogen\helloworld@developerkit\iar_project\Debug\Obj\k_overview.o
#        D:\work\IOT\code\internal_code\projects\autogen\helloworld@developerkit\iar_project\Debug\Obj\k_panic.o
#        D:\work\IOT\code\internal_code\projects\autogen\helloworld@developerkit\iar_project\Debug\Obj\k_pend.o
#        D:\work\IOT\code\internal_code\projects\autogen\helloworld@developerkit\iar_project\Debug\Obj\k_queue.o
#        D:\work\IOT\code\internal_code\projects\autogen\helloworld@developerkit\iar_project\Debug\Obj\k_ringbuf.o
#        D:\work\IOT\code\internal_code\projects\autogen\helloworld@developerkit\iar_project\Debug\Obj\k_sched.o
#        D:\work\IOT\code\internal_code\projects\autogen\helloworld@developerkit\iar_project\Debug\Obj\k_sem.o
#        D:\work\IOT\code\internal_code\projects\autogen\helloworld@developerkit\iar_project\Debug\Obj\k_spin_lock.o
#        D:\work\IOT\code\internal_code\projects\autogen\helloworld@developerkit\iar_project\Debug\Obj\k_stats.o
#        D:\work\IOT\code\internal_code\projects\autogen\helloworld@developerkit\iar_project\Debug\Obj\k_sys.o
#        D:\work\IOT\code\internal_code\projects\autogen\helloworld@developerkit\iar_project\Debug\Obj\k_task.o
#        D:\work\IOT\code\internal_code\projects\autogen\helloworld@developerkit\iar_project\Debug\Obj\k_task_sem.o
#        D:\work\IOT\code\internal_code\projects\autogen\helloworld@developerkit\iar_project\Debug\Obj\k_tick.o
#        D:\work\IOT\code\internal_code\projects\autogen\helloworld@developerkit\iar_project\Debug\Obj\k_time.o
#        D:\work\IOT\code\internal_code\projects\autogen\helloworld@developerkit\iar_project\Debug\Obj\k_timer.o
#        D:\work\IOT\code\internal_code\projects\autogen\helloworld@developerkit\iar_project\Debug\Obj\k_trace.o
#        D:\work\IOT\code\internal_code\projects\autogen\helloworld@developerkit\iar_project\Debug\Obj\k_workqueue.o
#        D:\work\IOT\code\internal_code\projects\autogen\helloworld@developerkit\iar_project\Debug\Obj\kv_osal.o
#        D:\work\IOT\code\internal_code\projects\autogen\helloworld@developerkit\iar_project\Debug\Obj\kvmgr.o
#        D:\work\IOT\code\internal_code\projects\autogen\helloworld@developerkit\iar_project\Debug\Obj\local_event.o
#        D:\work\IOT\code\internal_code\projects\autogen\helloworld@developerkit\iar_project\Debug\Obj\log.o
#        D:\work\IOT\code\internal_code\projects\autogen\helloworld@developerkit\iar_project\Debug\Obj\main.o
#        D:\work\IOT\code\internal_code\projects\autogen\helloworld@developerkit\iar_project\Debug\Obj\md5.o
#        D:\work\IOT\code\internal_code\projects\autogen\helloworld@developerkit\iar_project\Debug\Obj\middleware_common_main.o
#        D:\work\IOT\code\internal_code\projects\autogen\helloworld@developerkit\iar_project\Debug\Obj\panic_c.o
#        D:\work\IOT\code\internal_code\projects\autogen\helloworld@developerkit\iar_project\Debug\Obj\panic_iccarm.o
#        D:\work\IOT\code\internal_code\projects\autogen\helloworld@developerkit\iar_project\Debug\Obj\port_c.o
#        D:\work\IOT\code\internal_code\projects\autogen\helloworld@developerkit\iar_project\Debug\Obj\port_s.o
#        D:\work\IOT\code\internal_code\projects\autogen\helloworld@developerkit\iar_project\Debug\Obj\port_serial.o
#        D:\work\IOT\code\internal_code\projects\autogen\helloworld@developerkit\iar_project\Debug\Obj\rttest_impl.o
#        D:\work\IOT\code\internal_code\projects\autogen\helloworld@developerkit\iar_project\Debug\Obj\sai.o
#        D:\work\IOT\code\internal_code\projects\autogen\helloworld@developerkit\iar_project\Debug\Obj\sal_arch_aos.o
#        D:\work\IOT\code\internal_code\projects\autogen\helloworld@developerkit\iar_project\Debug\Obj\sal_err.o
#        D:\work\IOT\code\internal_code\projects\autogen\helloworld@developerkit\iar_project\Debug\Obj\sal_sockets.o
#        D:\work\IOT\code\internal_code\projects\autogen\helloworld@developerkit\iar_project\Debug\Obj\sdmmc.o
#        D:\work\IOT\code\internal_code\projects\autogen\helloworld@developerkit\iar_project\Debug\Obj\select.o
#        D:\work\IOT\code\internal_code\projects\autogen\helloworld@developerkit\iar_project\Debug\Obj\sensor_drv_api.o
#        D:\work\IOT\code\internal_code\projects\autogen\helloworld@developerkit\iar_project\Debug\Obj\sensor_hal.o
#        D:\work\IOT\code\internal_code\projects\autogen\helloworld@developerkit\iar_project\Debug\Obj\soc_impl.o
#        D:\work\IOT\code\internal_code\projects\autogen\helloworld@developerkit\iar_project\Debug\Obj\soc_init.o
#        D:\work\IOT\code\internal_code\projects\autogen\helloworld@developerkit\iar_project\Debug\Obj\spi.o
#        D:\work\IOT\code\internal_code\projects\autogen\helloworld@developerkit\iar_project\Debug\Obj\st7789.o
#        D:\work\IOT\code\internal_code\projects\autogen\helloworld@developerkit\iar_project\Debug\Obj\startup_stm32l496xx_iar.o
#        D:\work\IOT\code\internal_code\projects\autogen\helloworld@developerkit\iar_project\Debug\Obj\stm32l4xx_hal.o
#        D:\work\IOT\code\internal_code\projects\autogen\helloworld@developerkit\iar_project\Debug\Obj\stm32l4xx_hal_adc.o
#        D:\work\IOT\code\internal_code\projects\autogen\helloworld@developerkit\iar_project\Debug\Obj\stm32l4xx_hal_adc_ex.o
#        D:\work\IOT\code\internal_code\projects\autogen\helloworld@developerkit\iar_project\Debug\Obj\stm32l4xx_hal_can.o
#        D:\work\IOT\code\internal_code\projects\autogen\helloworld@developerkit\iar_project\Debug\Obj\stm32l4xx_hal_comp.o
#        D:\work\IOT\code\internal_code\projects\autogen\helloworld@developerkit\iar_project\Debug\Obj\stm32l4xx_hal_cortex.o
#        D:\work\IOT\code\internal_code\projects\autogen\helloworld@developerkit\iar_project\Debug\Obj\stm32l4xx_hal_crc.o
#        D:\work\IOT\code\internal_code\projects\autogen\helloworld@developerkit\iar_project\Debug\Obj\stm32l4xx_hal_crc_ex.o
#        D:\work\IOT\code\internal_code\projects\autogen\helloworld@developerkit\iar_project\Debug\Obj\stm32l4xx_hal_cryp.o
#        D:\work\IOT\code\internal_code\projects\autogen\helloworld@developerkit\iar_project\Debug\Obj\stm32l4xx_hal_cryp_ex.o
#        D:\work\IOT\code\internal_code\projects\autogen\helloworld@developerkit\iar_project\Debug\Obj\stm32l4xx_hal_dac.o
#        D:\work\IOT\code\internal_code\projects\autogen\helloworld@developerkit\iar_project\Debug\Obj\stm32l4xx_hal_dac_ex.o
#        D:\work\IOT\code\internal_code\projects\autogen\helloworld@developerkit\iar_project\Debug\Obj\stm32l4xx_hal_dcmi.o
#        D:\work\IOT\code\internal_code\projects\autogen\helloworld@developerkit\iar_project\Debug\Obj\stm32l4xx_hal_dfsdm.o
#        D:\work\IOT\code\internal_code\projects\autogen\helloworld@developerkit\iar_project\Debug\Obj\stm32l4xx_hal_dfsdm_ex.o
#        D:\work\IOT\code\internal_code\projects\autogen\helloworld@developerkit\iar_project\Debug\Obj\stm32l4xx_hal_dma.o
#        D:\work\IOT\code\internal_code\projects\autogen\helloworld@developerkit\iar_project\Debug\Obj\stm32l4xx_hal_dma2d.o
#        D:\work\IOT\code\internal_code\projects\autogen\helloworld@developerkit\iar_project\Debug\Obj\stm32l4xx_hal_dma_ex.o
#        D:\work\IOT\code\internal_code\projects\autogen\helloworld@developerkit\iar_project\Debug\Obj\stm32l4xx_hal_dsi.o
#        D:\work\IOT\code\internal_code\projects\autogen\helloworld@developerkit\iar_project\Debug\Obj\stm32l4xx_hal_firewall.o
#        D:\work\IOT\code\internal_code\projects\autogen\helloworld@developerkit\iar_project\Debug\Obj\stm32l4xx_hal_flash.o
#        D:\work\IOT\code\internal_code\projects\autogen\helloworld@developerkit\iar_project\Debug\Obj\stm32l4xx_hal_flash_ex.o
#        D:\work\IOT\code\internal_code\projects\autogen\helloworld@developerkit\iar_project\Debug\Obj\stm32l4xx_hal_flash_ramfunc.o
#        D:\work\IOT\code\internal_code\projects\autogen\helloworld@developerkit\iar_project\Debug\Obj\stm32l4xx_hal_gfxmmu.o
#        D:\work\IOT\code\internal_code\projects\autogen\helloworld@developerkit\iar_project\Debug\Obj\stm32l4xx_hal_gpio.o
#        D:\work\IOT\code\internal_code\projects\autogen\helloworld@developerkit\iar_project\Debug\Obj\stm32l4xx_hal_hash.o
#        D:\work\IOT\code\internal_code\projects\autogen\helloworld@developerkit\iar_project\Debug\Obj\stm32l4xx_hal_hash_ex.o
#        D:\work\IOT\code\internal_code\projects\autogen\helloworld@developerkit\iar_project\Debug\Obj\stm32l4xx_hal_hcd.o
#        D:\work\IOT\code\internal_code\projects\autogen\helloworld@developerkit\iar_project\Debug\Obj\stm32l4xx_hal_i2c.o
#        D:\work\IOT\code\internal_code\projects\autogen\helloworld@developerkit\iar_project\Debug\Obj\stm32l4xx_hal_i2c_ex.o
#        D:\work\IOT\code\internal_code\projects\autogen\helloworld@developerkit\iar_project\Debug\Obj\stm32l4xx_hal_irda.o
#        D:\work\IOT\code\internal_code\projects\autogen\helloworld@developerkit\iar_project\Debug\Obj\stm32l4xx_hal_iwdg.o
#        D:\work\IOT\code\internal_code\projects\autogen\helloworld@developerkit\iar_project\Debug\Obj\stm32l4xx_hal_lcd.o
#        D:\work\IOT\code\internal_code\projects\autogen\helloworld@developerkit\iar_project\Debug\Obj\stm32l4xx_hal_lptim.o
#        D:\work\IOT\code\internal_code\projects\autogen\helloworld@developerkit\iar_project\Debug\Obj\stm32l4xx_hal_ltdc.o
#        D:\work\IOT\code\internal_code\projects\autogen\helloworld@developerkit\iar_project\Debug\Obj\stm32l4xx_hal_ltdc_ex.o
#        D:\work\IOT\code\internal_code\projects\autogen\helloworld@developerkit\iar_project\Debug\Obj\stm32l4xx_hal_msp.o
#        D:\work\IOT\code\internal_code\projects\autogen\helloworld@developerkit\iar_project\Debug\Obj\stm32l4xx_hal_nand.o
#        D:\work\IOT\code\internal_code\projects\autogen\helloworld@developerkit\iar_project\Debug\Obj\stm32l4xx_hal_nor.o
#        D:\work\IOT\code\internal_code\projects\autogen\helloworld@developerkit\iar_project\Debug\Obj\stm32l4xx_hal_opamp.o
#        D:\work\IOT\code\internal_code\projects\autogen\helloworld@developerkit\iar_project\Debug\Obj\stm32l4xx_hal_opamp_ex.o
#        D:\work\IOT\code\internal_code\projects\autogen\helloworld@developerkit\iar_project\Debug\Obj\stm32l4xx_hal_ospi.o
#        D:\work\IOT\code\internal_code\projects\autogen\helloworld@developerkit\iar_project\Debug\Obj\stm32l4xx_hal_pcd.o
#        D:\work\IOT\code\internal_code\projects\autogen\helloworld@developerkit\iar_project\Debug\Obj\stm32l4xx_hal_pcd_ex.o
#        D:\work\IOT\code\internal_code\projects\autogen\helloworld@developerkit\iar_project\Debug\Obj\stm32l4xx_hal_pwr.o
#        D:\work\IOT\code\internal_code\projects\autogen\helloworld@developerkit\iar_project\Debug\Obj\stm32l4xx_hal_pwr_ex.o
#        D:\work\IOT\code\internal_code\projects\autogen\helloworld@developerkit\iar_project\Debug\Obj\stm32l4xx_hal_qspi.o
#        D:\work\IOT\code\internal_code\projects\autogen\helloworld@developerkit\iar_project\Debug\Obj\stm32l4xx_hal_rcc.o
#        D:\work\IOT\code\internal_code\projects\autogen\helloworld@developerkit\iar_project\Debug\Obj\stm32l4xx_hal_rcc_ex.o
#        D:\work\IOT\code\internal_code\projects\autogen\helloworld@developerkit\iar_project\Debug\Obj\stm32l4xx_hal_rng.o
#        D:\work\IOT\code\internal_code\projects\autogen\helloworld@developerkit\iar_project\Debug\Obj\stm32l4xx_hal_rtc.o
#        D:\work\IOT\code\internal_code\projects\autogen\helloworld@developerkit\iar_project\Debug\Obj\stm32l4xx_hal_rtc_ex.o
#        D:\work\IOT\code\internal_code\projects\autogen\helloworld@developerkit\iar_project\Debug\Obj\stm32l4xx_hal_sai.o
#        D:\work\IOT\code\internal_code\projects\autogen\helloworld@developerkit\iar_project\Debug\Obj\stm32l4xx_hal_sd.o
#        D:\work\IOT\code\internal_code\projects\autogen\helloworld@developerkit\iar_project\Debug\Obj\stm32l4xx_hal_sd_ex.o
#        D:\work\IOT\code\internal_code\projects\autogen\helloworld@developerkit\iar_project\Debug\Obj\stm32l4xx_hal_smartcard.o
#        D:\work\IOT\code\internal_code\projects\autogen\helloworld@developerkit\iar_project\Debug\Obj\stm32l4xx_hal_smartcard_ex.o
#        D:\work\IOT\code\internal_code\projects\autogen\helloworld@developerkit\iar_project\Debug\Obj\stm32l4xx_hal_smbus.o
#        D:\work\IOT\code\internal_code\projects\autogen\helloworld@developerkit\iar_project\Debug\Obj\stm32l4xx_hal_spi.o
#        D:\work\IOT\code\internal_code\projects\autogen\helloworld@developerkit\iar_project\Debug\Obj\stm32l4xx_hal_spi_ex.o
#        D:\work\IOT\code\internal_code\projects\autogen\helloworld@developerkit\iar_project\Debug\Obj\stm32l4xx_hal_sram.o
#        D:\work\IOT\code\internal_code\projects\autogen\helloworld@developerkit\iar_project\Debug\Obj\stm32l4xx_hal_swpmi.o
#        D:\work\IOT\code\internal_code\projects\autogen\helloworld@developerkit\iar_project\Debug\Obj\stm32l4xx_hal_tim.o
#        D:\work\IOT\code\internal_code\projects\autogen\helloworld@developerkit\iar_project\Debug\Obj\stm32l4xx_hal_tim_ex.o
#        D:\work\IOT\code\internal_code\projects\autogen\helloworld@developerkit\iar_project\Debug\Obj\stm32l4xx_hal_tsc.o
#        D:\work\IOT\code\internal_code\projects\autogen\helloworld@developerkit\iar_project\Debug\Obj\stm32l4xx_hal_uart.o
#        D:\work\IOT\code\internal_code\projects\autogen\helloworld@developerkit\iar_project\Debug\Obj\stm32l4xx_hal_uart_ex.o
#        D:\work\IOT\code\internal_code\projects\autogen\helloworld@developerkit\iar_project\Debug\Obj\stm32l4xx_hal_wwdg.o
#        D:\work\IOT\code\internal_code\projects\autogen\helloworld@developerkit\iar_project\Debug\Obj\stm32l4xx_ll_adc.o
#        D:\work\IOT\code\internal_code\projects\autogen\helloworld@developerkit\iar_project\Debug\Obj\stm32l4xx_ll_comp.o
#        D:\work\IOT\code\internal_code\projects\autogen\helloworld@developerkit\iar_project\Debug\Obj\stm32l4xx_ll_crc.o
#        D:\work\IOT\code\internal_code\projects\autogen\helloworld@developerkit\iar_project\Debug\Obj\stm32l4xx_ll_crs.o
#        D:\work\IOT\code\internal_code\projects\autogen\helloworld@developerkit\iar_project\Debug\Obj\stm32l4xx_ll_dac.o
#        D:\work\IOT\code\internal_code\projects\autogen\helloworld@developerkit\iar_project\Debug\Obj\stm32l4xx_ll_dma.o
#        D:\work\IOT\code\internal_code\projects\autogen\helloworld@developerkit\iar_project\Debug\Obj\stm32l4xx_ll_dma2d.o
#        D:\work\IOT\code\internal_code\projects\autogen\helloworld@developerkit\iar_project\Debug\Obj\stm32l4xx_ll_exti.o
#        D:\work\IOT\code\internal_code\projects\autogen\helloworld@developerkit\iar_project\Debug\Obj\stm32l4xx_ll_fmc.o
#        D:\work\IOT\code\internal_code\projects\autogen\helloworld@developerkit\iar_project\Debug\Obj\stm32l4xx_ll_gpio.o
#        D:\work\IOT\code\internal_code\projects\autogen\helloworld@developerkit\iar_project\Debug\Obj\stm32l4xx_ll_i2c.o
#        D:\work\IOT\code\internal_code\projects\autogen\helloworld@developerkit\iar_project\Debug\Obj\stm32l4xx_ll_lptim.o
#        D:\work\IOT\code\internal_code\projects\autogen\helloworld@developerkit\iar_project\Debug\Obj\stm32l4xx_ll_lpuart.o
#        D:\work\IOT\code\internal_code\projects\autogen\helloworld@developerkit\iar_project\Debug\Obj\stm32l4xx_ll_opamp.o
#        D:\work\IOT\code\internal_code\projects\autogen\helloworld@developerkit\iar_project\Debug\Obj\stm32l4xx_ll_pwr.o
#        D:\work\IOT\code\internal_code\projects\autogen\helloworld@developerkit\iar_project\Debug\Obj\stm32l4xx_ll_rcc.o
#        D:\work\IOT\code\internal_code\projects\autogen\helloworld@developerkit\iar_project\Debug\Obj\stm32l4xx_ll_rng.o
#        D:\work\IOT\code\internal_code\projects\autogen\helloworld@developerkit\iar_project\Debug\Obj\stm32l4xx_ll_rtc.o
#        D:\work\IOT\code\internal_code\projects\autogen\helloworld@developerkit\iar_project\Debug\Obj\stm32l4xx_ll_sdmmc.o
#        D:\work\IOT\code\internal_code\projects\autogen\helloworld@developerkit\iar_project\Debug\Obj\stm32l4xx_ll_spi.o
#        D:\work\IOT\code\internal_code\projects\autogen\helloworld@developerkit\iar_project\Debug\Obj\stm32l4xx_ll_usart.o
#        D:\work\IOT\code\internal_code\projects\autogen\helloworld@developerkit\iar_project\Debug\Obj\stm32l4xx_ll_usb.o
#        D:\work\IOT\code\internal_code\projects\autogen\helloworld@developerkit\iar_project\Debug\Obj\stm32l4xx_ll_utils.o
#        D:\work\IOT\code\internal_code\projects\autogen\helloworld@developerkit\iar_project\Debug\Obj\system_stm32l4xx.o
#        D:\work\IOT\code\internal_code\projects\autogen\helloworld@developerkit\iar_project\Debug\Obj\tim.o
#        D:\work\IOT\code\internal_code\projects\autogen\helloworld@developerkit\iar_project\Debug\Obj\trace_impl.o
#        D:\work\IOT\code\internal_code\projects\autogen\helloworld@developerkit\iar_project\Debug\Obj\usart.o
#        D:\work\IOT\code\internal_code\projects\autogen\helloworld@developerkit\iar_project\Debug\Obj\usb_otg.o
#        D:\work\IOT\code\internal_code\projects\autogen\helloworld@developerkit\iar_project\Debug\Obj\utility_digest_algorithm_crc.o
#        D:\work\IOT\code\internal_code\projects\autogen\helloworld@developerkit\iar_project\Debug\Obj\version.o
#        D:\work\IOT\code\internal_code\projects\autogen\helloworld@developerkit\iar_project\Debug\Obj\vfs.o
#        D:\work\IOT\code\internal_code\projects\autogen\helloworld@developerkit\iar_project\Debug\Obj\vfs_adc.o
#        D:\work\IOT\code\internal_code\projects\autogen\helloworld@developerkit\iar_project\Debug\Obj\vfs_file.o
#        D:\work\IOT\code\internal_code\projects\autogen\helloworld@developerkit\iar_project\Debug\Obj\vfs_gpio.o
#        D:\work\IOT\code\internal_code\projects\autogen\helloworld@developerkit\iar_project\Debug\Obj\vfs_i2c.o
#        D:\work\IOT\code\internal_code\projects\autogen\helloworld@developerkit\iar_project\Debug\Obj\vfs_inode.o
#        D:\work\IOT\code\internal_code\projects\autogen\helloworld@developerkit\iar_project\Debug\Obj\vfs_pwm.o
#        D:\work\IOT\code\internal_code\projects\autogen\helloworld@developerkit\iar_project\Debug\Obj\vfs_register.o
#        D:\work\IOT\code\internal_code\projects\autogen\helloworld@developerkit\iar_project\Debug\Obj\vfs_rtc.o
#        D:\work\IOT\code\internal_code\projects\autogen\helloworld@developerkit\iar_project\Debug\Obj\vfs_spi.o
#        D:\work\IOT\code\internal_code\projects\autogen\helloworld@developerkit\iar_project\Debug\Obj\vfs_uart.o
#        D:\work\IOT\code\internal_code\projects\autogen\helloworld@developerkit\iar_project\Debug\Obj\vfs_wdg.o
#        D:\work\IOT\code\internal_code\projects\autogen\helloworld@developerkit\iar_project\Debug\Obj\wifi.o
#        D:\work\IOT\code\internal_code\projects\autogen\helloworld@developerkit\iar_project\Debug\Obj\wifi_atcmd_bk7231.o
#        D:\work\IOT\code\internal_code\projects\autogen\helloworld@developerkit\iar_project\Debug\Obj\yloop.o
#        -o
#        D:\work\IOT\code\internal_code\projects\autogen\helloworld@developerkit\iar_project\Debug\Exe\helloworld@developerkit.out
#        --map
#        D:\work\IOT\code\internal_code\projects\autogen\helloworld@developerkit\iar_project\Debug\List\helloworld@developerkit.map
#        --config
#        D:\work\IOT\code\internal_code\projects\autogen\helloworld@developerkit\iar_project\../../../../platform/mcu/stm32l475/STM32L475.icf
#        --semihosting --entry __iar_program_start --vfe --text_out locale)
#
###############################################################################

*******************************************************************************
*** RUNTIME MODEL ATTRIBUTES
***

CppFlavor       = *
__SystemLibrary = DLib
__dlib_version  = 6


*******************************************************************************
*** HEAP SELECTION
***

The basic heap was selected because no calls to memory allocation
functions were found in the application outside of system library
functions, and there are calls to deallocation functions in the
application.


*******************************************************************************
*** PLACEMENT SUMMARY
***

"A1":  place at 0x08000000 { ro section .intvec };
"P1":  place in [from 0x08000000 to 0x080647ff] |
                [from 0x08066800 to 0x080fffff] { ro };
define block CSTACK with size = 8K, alignment = 8 { };
define block HEAP with size = 67K, alignment = 8 { };
"P2":  place in [from 0x20000000 to 0x2001efff] {
          block CSTACK, rw, block HEAP };
initialize by copy { rw };

No sections matched the following patterns:

  ro section INITED_FIXED_LOC  in "P4"
  ro section UNINIT_FIXED_LOC  in "P3"
  ro section firewall_section  in "A0"


  Section            Kind        Address     Size  Object
  -------            ----        -------     ----  ------
"A1":                                       0x1ac
  .intvec            ro code  0x08000000    0x1ac  startup_stm32l496xx_iar.o [1]
                            - 0x080001ac    0x1ac

"P1":                                     0x1e6fc
  .text              ro code  0x080001ac   0x17f4  sal_sockets.o [1]
  .text              ro code  0x080019a0    0x180  sal_arch_aos.o [1]
  .text              ro code  0x08001b20     0xa8  rand.o [3]
  .text              ro code  0x08001bc8    0x42a  aos_rhino.o [1]
  .text              ro code  0x08001ff2     0x1e  xsscin.o [3]
  .text              ro code  0x08002010    0x114  log.o [1]
  .text              ro code  0x08002124     0x66  ABImemset.o [5]
  .text              ro code  0x0800218a     0x1a  xsnprout.o [3]
  .text              ro code  0x080021a4      0x6  ABImemclr4.o [5]
  .text              ro code  0x080021aa      0xa  xsprout.o [3]
  .text              ro code  0x080021b4     0x4a  strcmp.o [5]
  .rodata            const    0x080021fe      0x2  cli.o [1]
  .text              ro code  0x08002200    0x6c4  bk7231.o [1]
  .text              ro code  0x080028c4    0x2be  ip4_addr.o [1]
  .rodata            const    0x08002b82      0x2  cli.o [1]
  .text              ro code  0x08002b84     0xa6  ABImemcpy.o [5]
  .rodata            const    0x08002c2a      0x1  kvmgr.o [1]
  .rodata            const    0x08002c2b      0x1  kvmgr.o [1]
  .text              ro code  0x08002c2c     0x24  sal_err.o [1]
  .text              ro code  0x08002c50    0x908  k_task.o [1]
  .text              ro code  0x08003558    0x410  k_mutex.o [1]
  .text              ro code  0x08003968     0xb2  k_time.o [1]
  .text              ro code  0x08003a1c    0x290  k_sem.o [1]
  .text              ro code  0x08003cac    0x3a4  k_buf_queue.o [1]
  .text              ro code  0x08004050    0x758  k_mm.o [1]
  .text              ro code  0x080047a8    0x17a  k_sys.o [1]
  .text              ro code  0x08004924   0x1122  cli.o [1]
  .text              ro code  0x08005a48     0x36  strlen.o [5]
  .text              ro code  0x08005a7e     0x28  strncmp.o [3]
  .text              ro code  0x08005aa8     0x20  vprintf.o [3]
  .text              ro code  0x08005ac8     0xac  fflush.o [3]
  .text              ro code  0x08005b74     0x32  ABImemset48.o [5]
  .text              ro code  0x08005ba8     0x44  snprintf.o [3]
  .text              ro code  0x08005bec     0x30  strstr.o [3]
  .text              ro code  0x08005c1c     0xa8  port_s.o [1]
  .text              ro code  0x08005cc4     0x8c  port_c.o [1]
  .text              ro code  0x08005d50     0x18  hook_impl.o [1]
  .text              ro code  0x08005d68    0x44c  k_sched.o [1]
  .text              ro code  0x080061b4    0x1bc  k_tick.o [1]
  .text              ro code  0x08006370    0x198  k_pend.o [1]
  .text              ro code  0x08006508     0xfc  soc_impl.o [1]
  .text              ro code  0x08006604     0x18  k_err.o [1]
  .text              ro code  0x0800661c    0x22e  I64DivMod.o [5]
  .text              ro code  0x0800684a    0x2b8  k_ringbuf.o [1]
  .text              ro code  0x08006b04    0x134  k_mm_blk.o [1]
  .text              ro code  0x08006c38     0x28  printf.o [3]
  .text              ro code  0x08006c60    0x280  k_mm_debug.o [1]
  .text              ro code  0x08006ee0     0xb4  k_stats.o [1]
  .text              ro code  0x08006f94     0xdc  k_dyn_mem_proc.o [1]
  .text              ro code  0x08007070    0x1d4  k_workqueue.o [1]
  .text              ro code  0x08007244    0x36c  k_timer.o [1]
  .text              ro code  0x080075b0     0x16  strchr.o [5]
  .text              ro code  0x080075c8     0x70  strncpy.o [5]
  .text              ro code  0x08007638     0x86  iar_Stolx.o [3]
  .text              ro code  0x080076c0     0x24  hw.o [1]
  .text              ro code  0x080076e4    0x3bc  board_cli.o [1]
  .text              ro code  0x08007aa0     0x4c  strcpy.o [5]
  .text              ro code  0x08007aec     0x3c  vsnprint.o [3]
  .text              ro code  0x08007b28    0xfac  hal_uart_stm32l4.o [1]
  .text              ro code  0x08008ad4    0xde2  xprintffull_nomb.o [3]
  .text              ro code  0x080098b8     0x94  iar_libc.o [1]
  .text              ro code  0x0800994c    0xb2a  stm32l4xx_hal_tim.o [1]
  .text              ro code  0x0800a478     0x24  ABIassert.o [6]
  .text              ro code  0x0800a49c      0x2  I64DivZer.o [5]
  .text              ro code  0x0800a49e     0x14  isspace.o [3]
  .text              ro code  0x0800a4b4    0x17c  iar_Stoulx.o [3]
  .text              ro code  0x0800a630     0x28  errno.o [3]
  .text              ro code  0x0800a658    0x16c  stm32l4xx_hal_cortex.o [1]
  .text              ro code  0x0800a7c4     0xca  wifi.o [1]
  .text              ro code  0x0800a890     0xdc  local_event.o [1]
  .text              ro code  0x0800a96c    0xd0a  stm32l4xx_hal_uart.o [1]
  .text              ro code  0x0800b678    0x2c4  stm32l4xx_hal_dma.o [1]
  .text              ro code  0x0800b93c     0x44  xfail_s.o [3]
  .text              ro code  0x0800b980     0x58  memchr.o [5]
  .text              ro code  0x0800b9d8    0x1a2  DblMul.o [4]
  .text              ro code  0x0800bb7c     0x70  frexp.o [4]
  .text              ro code  0x0800bbec     0x2e  DblCmpLe.o [4]
  .text              ro code  0x0800bc1c     0x2e  DblCmpGe.o [4]
  .text              ro code  0x0800bc4c    0x13a  ldexp.o [4]
  .text              ro code  0x0800bd88     0x3a  DblToS32.o [4]
  .text              ro code  0x0800bdc4     0x22  S32ToDbl.o [4]
  .text              ro code  0x0800bde8     0xe2  DblSub.o [4]
  .text              ro code  0x0800becc    0x246  DblDiv.o [4]
  .text              ro code  0x0800c114     0x28  DblToU32.o [4]
  .text              ro code  0x0800c13c     0x1a  U32ToDbl.o [4]
  .text              ro code  0x0800c158     0x40  xlocale_c.o [3]
  .text              ro code  0x0800c198     0x14  memset.o [5]
  .text              ro code  0x0800c1ac    0x374  tim.o [1]
  .text              ro code  0x0800c520      0x2  stm32l4xx_hal_tim.o [1]
  .text              ro code  0x0800c522      0x2  stm32l4xx_hal_tim.o [1]
  .text              ro code  0x0800c524      0x2  stm32l4xx_hal_tim.o [1]
  .text              ro code  0x0800c526      0x6  abort.o [3]
  .text              ro code  0x0800c52c     0x14  tolower.o [3]
  .text              ro code  0x0800c540      0x4  tp_nothreads.o [3]
  .text              ro code  0x0800c544    0x154  vfs.o [1]
  .text              ro code  0x0800c698    0x3b4  yloop.o [1]
  .text              ro code  0x0800ca4c    0x278  usart.o [1]
  .text              ro code  0x0800ccc4      0x2  stm32l4xx_hal_uart.o [1]
  .text              ro code  0x0800ccc6      0x2  stm32l4xx_hal_uart_ex.o [1]
  .text              ro code  0x0800ccc8    0xab4  stm32l4xx_hal_rcc.o [1]
  .text              ro code  0x0800d77c      0xc  stm32l4xx_hal.o [1]
  .text              ro code  0x0800d788      0x2  stm32l4xx_hal_uart.o [1]
  .text              ro code  0x0800d78a      0x2  stm32l4xx_hal_uart.o [1]
  .text              ro code  0x0800d78c    0x168  DblAdd.o [4]
  .text              ro code  0x0800d8f4    0x142  main.o [1]
  .text              ro code  0x0800da38     0xfc  stm32l4xx_hal_tim_ex.o [1]
  .text              ro code  0x0800db34    0x24c  stm32l4xx_hal_gpio.o [1]
  .text              ro code  0x0800dd80     0x14  exit.o [6]
  .text              ro code  0x0800dd94    0x156  vfs_inode.o [1]
  .text              ro code  0x0800deec     0x80  vfs_file.o [1]
  .text              ro code  0x0800df6c    0x26c  select.o [1]
  .text              ro code  0x0800e1d8     0x28  stm32l4xx_hal.o [1]
  .text              ro code  0x0800e200     0xa4  stm32l4xx_hal_pwr_ex.o [1]
  .text              ro code  0x0800e2a4     0x14  stm32l4xx_hal_pwr.o [1]
  .text              ro code  0x0800e2b8    0xf2c  stm32l4xx_hal_rcc_ex.o [1]
  .text              ro code  0x0800f1e4    0x648  hal_gpio_stm32l4.o [1]
  .text              ro code  0x0800f82c   0x1790  atparser.o [1]
  .text              ro code  0x08010fbc     0x68  memcmp.o [5]
  .text              ro code  0x08011024    0xe6c  kvmgr.o [1]
  .text              ro code  0x08011e90     0x60  kv_osal.o [1]
  .text              ro code  0x08011ef0    0x4bc  hal_flash_stm32l4.o [1]
  .text              ro code  0x080123ac    0x270  stm32l4xx_hal_flash_ex.o [1]
  .text              ro code  0x0801261c    0x30c  stm32l4xx_hal_flash.o [1]
  .text              ro code  0x08012928    0xb4c  stm32l4xx_hal_i2c.o [1]
  .text              ro code  0x08013474     0xe4  i2c.o [1]
  .text              ro code  0x08013558    0xa8c  drv_acc_gyro_st_lsm6dsl.o [1]
  .text              ro code  0x08013fe4     0x50  sensor_drv_api.o [1]
  .text              ro code  0x08014034    0x638  sensor_hal.o [1]
  .text              ro code  0x0801466c    0x284  hal_i2c_stm32l4.o [1]
  .text              ro code  0x080148f0     0x70  vfs_register.o [1]
  .text              ro code  0x08014960    0x75c  drv_baro_bosch_bmp280.o [1]
  .text              ro code  0x080150bc    0x7b0  drv_als_ps_liteon_ltr553.o [1]
  .text              ro code  0x0801586c    0x558  drv_temp_humi_sensirion_shtc1.o [1]
  .text              ro code  0x08015dc4    0x6e8  drv_mag_temp_memsic_mmc3680kj.o [1]
  .text              ro code  0x080164ac    0x9d0  stm32l4xx_hal_adc.o [1]
  .text              ro code  0x08016e7c    0x100  adc.o [1]
  .text              ro code  0x08016f7c    0x6c4  xscanflarge_nomb.o [3]
  .text              ro code  0x08017640    0x568  dumpsys.o [1]
  .text              ro code  0x08017ba8     0x9c  k_cpuusage.o [1]
  .text              ro code  0x08017c44     0x40  sprintf.o [3]
  .text              ro code  0x08017c84    0x538  k_overview.o [1]
  .text              ro code  0x080181bc    0x52c  panic_c.o [1]
  .text              ro code  0x080186e8     0x30  k_infoget.o [1]
  .text              ro code  0x08018718    0x4b8  wifi_atcmd_bk7231.o [1]
  .text              ro code  0x08018bd0     0x28  sscanf.o [3]
  .text              ro code  0x08018bf8    0x41a  stm32l4xx_hal_sai.o [1]
  .text              ro code  0x08019014    0x17c  sai.o [1]
  .text              ro code  0x08019190    0x30e  stm32l4xx_hal_sd.o [1]
  .text              ro code  0x080194a0    0x1e8  stm32l4xx_ll_sdmmc.o [1]
  .text              ro code  0x08019688      0x2  stm32l4xx_hal_sd.o [1]
  .text              ro code  0x0801968a      0x2  stm32l4xx_hal_sd.o [1]
  .text              ro code  0x0801968c      0x2  stm32l4xx_hal_sd.o [1]
  .text              ro code  0x0801968e      0x2  stm32l4xx_hal_sd.o [1]
  .text              ro code  0x08019690    0x29c  device.o [1]
  .text              ro code  0x0801992c    0x27c  k_panic.o [1]
  .text              ro code  0x08019ba8    0x1fc  aos_init.o [1]
  .text              ro code  0x08019da4     0x10  trace_impl.o [1]
  .text              ro code  0x08019db4     0x34  middleware_common_main.o [1]
  .text              ro code  0x08019de8     0x90  helloworld.o [1]
  .text              ro code  0x08019e78     0x50  version.o [1]
  .text              ro code  0x08019ec8      0x8  version.o [1]
  .text              ro code  0x08019ed0      0x8  version.o [1]
  .text              ro code  0x08019ed8    0x1f2  lz77_init.o [5]
  .text              ro code  0x0801a0cc    0x1c4  dcmi.o [1]
  .text              ro code  0x0801a290     0xd8  stm32l4xx_hal_dcmi.o [1]
  .text              ro code  0x0801a368    0x1ac  soc_init.o [1]
  .text              ro code  0x0801a514     0x16  stm32l4xx_hal.o [1]
  .text              ro code  0x0801a52c     0xe8  dma.o [1]
  .text              ro code  0x0801a614     0xc8  spi.o [1]
  .text              ro code  0x0801a6dc      0x2  usb_otg.o [1]
  .text              ro code  0x0801a6e0     0x70  crc.o [1]
  .text              ro code  0x0801a750      0x2  irtim.o [1]
  .text              ro code  0x0801a754     0x10  stm32l4xx_hal.o [1]
  .text              ro code  0x0801a764     0x98  stm32l4xx_hal_msp.o [1]
  .text              ro code  0x0801a7fc     0xc8  stm32l4xx_hal_spi.o [1]
  .text              ro code  0x0801a8c4     0x8c  stm32l4xx_hal_crc.o [1]
  .text              ro code  0x0801a950     0x60  stm32l4xx_hal_crc_ex.o [1]
  .text              ro code  0x0801a9b0    0x148  board.o [1]
  .text              ro code  0x0801aaf8     0xc8  panic_iccarm.o [1]
  .rodata            const    0x0801abc0     0x9c  board_cli.o [1]
  .rodata            const    0x0801ac5c     0x9c  cli.o [1]
  .rodata            const    0x0801acf8     0x9c  panic_c.o [1]
  .text              ro code  0x0801ad94     0x8a  aos.o [1]
  .rodata            const    0x0801ae20     0x88  cli.o [1]
  .rodata            const    0x0801aea8     0x78  cli.o [1]
  .text              ro code  0x0801af20     0x6c  system_stm32l4xx.o [1]
  .rodata            const    0x0801af8c     0x58  k_mm_debug.o [1]
  .rodata            const    0x0801afe4     0x58  k_mm_debug.o [1]
  .rodata            const    0x0801b03c     0x58  k_mm_debug.o [1]
  .rodata            const    0x0801b094     0x54  dumpsys.o [1]
  .rodata            const    0x0801b0e8     0x54  hal_uart_stm32l4.o [1]
  .rodata            const    0x0801b13c     0x54  sal_sockets.o [1]
  .rodata            const    0x0801b190     0x50  k_overview.o [1]
  .rodata            const    0x0801b1e0     0x50  k_overview.o [1]
  .rodata            const    0x0801b230     0x50  k_overview.o [1]
  .rodata            const    0x0801b280     0x4c  dumpsys.o [1]
  .rodata            const    0x0801b2cc     0x4c  k_overview.o [1]
  .rodata            const    0x0801b318     0x4c  kvmgr.o [1]
  .rodata            const    0x0801b364     0x4c  soc_impl.o [1]
  .rodata            const    0x0801b3b0     0x48  k_overview.o [1]
  .rodata            const    0x0801b3f8     0x48  k_overview.o [1]
  .rodata            const    0x0801b440     0x44  board_cli.o [1]
  .rodata            const    0x0801b484     0x44  k_dyn_mem_proc.o [1]
  .rodata            const    0x0801b4c8     0x44  k_overview.o [1]
  .rodata            const    0x0801b50c     0x44  k_panic.o [1]
  .rodata            const    0x0801b550     0x44  sal_err.o [1]
  .text              ro code  0x0801b594     0x44  k_idle.o [1]
  .rodata            const    0x0801b5d8     0x40  atparser.o [1]
  .rodata            const    0x0801b618     0x40  dcmi.o [1]
  .rodata            const    0x0801b658     0x40  hal_flash_stm32l4.o [1]
  .rodata            const    0x0801b698     0x40  k_mm_debug.o [1]
  .rodata            const    0x0801b6d8     0x40  k_overview.o [1]
  .rodata            const    0x0801b718     0x40  k_overview.o [1]
  .rodata            const    0x0801b758     0x40  k_overview.o [1]
  .rodata            const    0x0801b798     0x40  k_overview.o [1]
  .rodata            const    0x0801b7d8     0x40  k_workqueue.o [1]
  .rodata            const    0x0801b818     0x40  main.o [1]
  .rodata            const    0x0801b858     0x40  usart.o [1]
  .text              ro code  0x0801b898     0x40  zero_init3.o [5]
  .rodata            const    0x0801b8d8     0x3c  adc.o [1]
  .rodata            const    0x0801b914     0x3c  crc.o [1]
  .rodata            const    0x0801b950     0x3c  dumpsys.o [1]
  .rodata            const    0x0801b98c     0x3c  k_mm_debug.o [1]
  .rodata            const    0x0801b9c8     0x3c  k_mm_debug.o [1]
  .rodata            const    0x0801ba04     0x3c  k_mutex.o [1]
  .rodata            const    0x0801ba40     0x3c  k_overview.o [1]
  .rodata            const    0x0801ba7c     0x3c  k_overview.o [1]
  .rodata            const    0x0801bab8     0x3c  k_pend.o [1]
  .rodata            const    0x0801baf4     0x3c  k_sched.o [1]
  .rodata            const    0x0801bb30     0x3c  k_stats.o [1]
  .rodata            const    0x0801bb6c     0x3c  k_task.o [1]
  .rodata            const    0x0801bba8     0x3c  k_tick.o [1]
  .rodata            const    0x0801bbe4     0x3c  k_timer.o [1]
  .rodata            const    0x0801bc20     0x3c  sai.o [1]
  .rodata            const    0x0801bc5c     0x3c  spi.o [1]
  .rodata            const    0x0801bc98     0x3c  tim.o [1]
  .rodata            const    0x0801bcd4     0x38  dumpsys.o [1]
  .rodata            const    0x0801bd0c     0x38  k_mm.o [1]
  .rodata            const    0x0801bd44     0x38  k_overview.o [1]
  .rodata            const    0x0801bd7c     0x38  sal_sockets.o [1]
  .rodata            const    0x0801bdb4     0x38  sal_sockets.o [1]
  .rodata            const    0x0801bdec     0x38  sal_sockets.o [1]
  .rodata            const    0x0801be24     0x34  aos_init.o [1]
  .rodata            const    0x0801be58     0x34  atparser.o [1]
  .rodata            const    0x0801be8c     0x34  dumpsys.o [1]
  .rodata            const    0x0801bec0     0x34  dumpsys.o [1]
  .rodata            const    0x0801bef4     0x34  dumpsys.o [1]
  .rodata            const    0x0801bf28     0x34  sal_sockets.o [1]
  .rodata            const    0x0801bf5c     0x34  sal_sockets.o [1]
  .rodata            const    0x0801bf90     0x34  sal_sockets.o [1]
  .rodata            const    0x0801bfc4     0x30  aos_init.o [1]
  .rodata            const    0x0801bff4     0x30  atparser.o [1]
  .rodata            const    0x0801c024     0x30  cli.o [1]
  .rodata            const    0x0801c054     0x30  dumpsys.o [1]
  .rodata            const    0x0801c084     0x30  dumpsys.o [1]
  .rodata            const    0x0801c0b4     0x30  dumpsys.o [1]
  .rodata            const    0x0801c0e4     0x30  dumpsys.o [1]
  .rodata            const    0x0801c114     0x30  hal_uart_stm32l4.o [1]
  .rodata            const    0x0801c144     0x30  k_mm_debug.o [1]
  .rodata            const    0x0801c174     0x30  k_overview.o [1]
  .rodata            const    0x0801c1a4     0x30  k_overview.o [1]
  .rodata            const    0x0801c1d4     0x30  sal_sockets.o [1]
  .rodata            const    0x0801c204     0x30  sal_sockets.o [1]
  .rodata            const    0x0801c234     0x30  system_stm32l4xx.o [1]
  .rodata            const    0x0801c264     0x2c  atparser.o [1]
  .rodata            const    0x0801c290     0x2c  atparser.o [1]
  .rodata            const    0x0801c2bc     0x2c  atparser.o [1]
  .rodata            const    0x0801c2e8     0x2c  atparser.o [1]
  .rodata            const    0x0801c314     0x2c  atparser.o [1]
  .rodata            const    0x0801c340     0x2c  cli.o [1]
  .rodata            const    0x0801c36c     0x2c  cli.o [1]
  .rodata            const    0x0801c398     0x2c  cli.o [1]
  .rodata            const    0x0801c3c4     0x2c  hal_flash_stm32l4.o [1]
  .rodata            const    0x0801c3f0     0x2c  hal_uart_stm32l4.o [1]
  .rodata            const    0x0801c41c     0x2c  k_mm_debug.o [1]
  .rodata            const    0x0801c448     0x2c  k_panic.o [1]
  .rodata            const    0x0801c474     0x2c  sal_sockets.o [1]
  .rodata            const    0x0801c4a0     0x2c  sal_sockets.o [1]
  .rodata            const    0x0801c4cc     0x2c  sal_sockets.o [1]
  .rodata            const    0x0801c4f8     0x28  aos_init.o [1]
  .rodata            const    0x0801c520     0x28  atparser.o [1]
  .rodata            const    0x0801c548     0x28  atparser.o [1]
  .rodata            const    0x0801c570     0x28  bk7231.o [1]
  .rodata            const    0x0801c598     0x28  bk7231.o [1]
  .rodata            const    0x0801c5c0     0x28  board_cli.o [1]
  .rodata            const    0x0801c5e8     0x28  board_cli.o [1]
  .rodata            const    0x0801c610     0x28  hal_uart_stm32l4.o [1]
  .rodata            const    0x0801c638     0x28  k_mm.o [1]
  .rodata            const    0x0801c660     0x28  sal_sockets.o [1]
  .rodata            const    0x0801c688     0x28  sal_sockets.o [1]
  .rodata            const    0x0801c6b0     0x28  sal_sockets.o [1]
  .rodata            const    0x0801c6d8     0x28  sal_sockets.o [1]
  .rodata            const    0x0801c700     0x28  sal_sockets.o [1]
  .rodata            const    0x0801c728     0x28  wifi_atcmd_bk7231.o [1]
  .text              ro code  0x0801c750     0x28  data_init.o [5]
  .rodata            const    0x0801c778     0x24  atparser.o [1]
  .rodata            const    0x0801c79c     0x24  atparser.o [1]
  .rodata            const    0x0801c7c0     0x24  board_cli.o [1]
  .rodata            const    0x0801c7e4     0x24  cli.o [1]
  .rodata            const    0x0801c808     0x24  dumpsys.o [1]
  .rodata            const    0x0801c82c     0x24  dumpsys.o [1]
  .rodata            const    0x0801c850     0x24  hal_flash_stm32l4.o [1]
  .rodata            const    0x0801c874     0x24  k_mm.o [1]
  .rodata            const    0x0801c898     0x24  k_panic.o [1]
  .rodata            const    0x0801c8bc     0x24  k_panic.o [1]
  .rodata            const    0x0801c8e0     0x24  k_panic.o [1]
  .rodata            const    0x0801c904     0x24  k_panic.o [1]
  .rodata            const    0x0801c928     0x24  k_panic.o [1]
  .rodata            const    0x0801c94c     0x24  k_panic.o [1]
  .rodata            const    0x0801c970     0x24  k_panic.o [1]
  .rodata            const    0x0801c994     0x24  k_panic.o [1]
  .rodata            const    0x0801c9b8     0x24  k_panic.o [1]
  .rodata            const    0x0801c9dc     0x24  panic_c.o [1]
  .rodata            const    0x0801ca00     0x24  panic_c.o [1]
  .rodata            const    0x0801ca24     0x24  sal_sockets.o [1]
  .rodata            const    0x0801ca48     0x24  sal_sockets.o [1]
  .rodata            const    0x0801ca6c     0x24  sal_sockets.o [1]
  .rodata            const    0x0801ca90     0x24  wifi_atcmd_bk7231.o [1]
  .text              ro code  0x0801cab4     0x22  fpinit_M.o [4]
  .iar.init_table    const    0x0801cad8     0x2c  - Linker created -
  .rodata            const    0x0801cb04     0x20  atparser.o [1]
  .rodata            const    0x0801cb24     0x20  atparser.o [1]
  .rodata            const    0x0801cb44     0x20  atparser.o [1]
  .rodata            const    0x0801cb64     0x20  atparser.o [1]
  .rodata            const    0x0801cb84     0x20  atparser.o [1]
  .rodata            const    0x0801cba4     0x20  atparser.o [1]
  .rodata            const    0x0801cbc4     0x20  atparser.o [1]
  .rodata            const    0x0801cbe4     0x20  atparser.o [1]
  .rodata            const    0x0801cc04     0x20  atparser.o [1]
  .rodata            const    0x0801cc24     0x20  bk7231.o [1]
  .rodata            const    0x0801cc44     0x20  board_cli.o [1]
  .rodata            const    0x0801cc64     0x20  board_cli.o [1]
  .rodata            const    0x0801cc84     0x20  board_cli.o [1]
  .rodata            const    0x0801cca4     0x20  board_cli.o [1]
  .rodata            const    0x0801ccc4     0x20  cli.o [1]
  .rodata            const    0x0801cce4     0x20  cli.o [1]
  .rodata            const    0x0801cd04     0x20  drv_acc_gyro_st_lsm6dsl.o [1]
  .rodata            const    0x0801cd24     0x20  drv_acc_gyro_st_lsm6dsl.o [1]
  .rodata            const    0x0801cd44     0x20  drv_mag_temp_memsic_mmc3680kj.o [1]
  .rodata            const    0x0801cd64     0x20  drv_mag_temp_memsic_mmc3680kj.o [1]
  .rodata            const    0x0801cd84     0x20  drv_mag_temp_memsic_mmc3680kj.o [1]
  .rodata            const    0x0801cda4     0x20  drv_mag_temp_memsic_mmc3680kj.o [1]
  .rodata            const    0x0801cdc4     0x20  drv_temp_humi_sensirion_shtc1.o [1]
  .rodata            const    0x0801cde4     0x20  drv_temp_humi_sensirion_shtc1.o [1]
  .rodata            const    0x0801ce04     0x20  drv_temp_humi_sensirion_shtc1.o [1]
  .rodata            const    0x0801ce24     0x20  drv_temp_humi_sensirion_shtc1.o [1]
  .rodata            const    0x0801ce44     0x20  drv_temp_humi_sensirion_shtc1.o [1]
  .rodata            const    0x0801ce64     0x20  drv_temp_humi_sensirion_shtc1.o [1]
  .rodata            const    0x0801ce84     0x20  drv_temp_humi_sensirion_shtc1.o [1]
  .rodata            const    0x0801cea4     0x20  drv_temp_humi_sensirion_shtc1.o [1]
  .rodata            const    0x0801cec4     0x20  dumpsys.o [1]
  .rodata            const    0x0801cee4     0x20  dumpsys.o [1]
  .rodata            const    0x0801cf04     0x20  hal_flash_stm32l4.o [1]
  .rodata            const    0x0801cf24     0x20  k_mm.o [1]
  .rodata            const    0x0801cf44     0x20  k_mm.o [1]
  .rodata            const    0x0801cf64     0x20  k_overview.o [1]
  .rodata            const    0x0801cf84     0x20  kvmgr.o [1]
  .rodata            const    0x0801cfa4     0x20  sal_sockets.o [1]
  .rodata            const    0x0801cfc4     0x20  sal_sockets.o [1]
  .rodata            const    0x0801cfe4     0x20  sal_sockets.o [1]
  .rodata            const    0x0801d004     0x20  wifi_atcmd_bk7231.o [1]
  .rodata            const    0x0801d024     0x20  wifi_atcmd_bk7231.o [1]
  .rodata            const    0x0801d044     0x20  wifi_atcmd_bk7231.o [1]
  .rodata            const    0x0801d064     0x20  wifi_atcmd_bk7231.o [1]
  .text              ro code  0x0801d084     0x1e  cmain.o [5]
  .text              ro code  0x0801d0a2      0x4  low_level_init.o [3]
  .text              ro code  0x0801d0a6      0x4  exit.o [3]
  .text              ro code  0x0801d0ac      0xa  cexit.o [5]
  .rodata            const    0x0801d0b8     0x1c  atparser.o [1]
  .rodata            const    0x0801d0d4     0x1c  atparser.o [1]
  .rodata            const    0x0801d0f0     0x1c  atparser.o [1]
  .rodata            const    0x0801d10c     0x1c  atparser.o [1]
  .rodata            const    0x0801d128     0x1c  bk7231.o [1]
  .rodata            const    0x0801d144     0x1c  bk7231.o [1]
  .rodata            const    0x0801d160     0x1c  bk7231.o [1]
  .rodata            const    0x0801d17c     0x1c  board_cli.o [1]
  .rodata            const    0x0801d198     0x1c  board_cli.o [1]
  .rodata            const    0x0801d1b4     0x1c  board_cli.o [1]
  .rodata            const    0x0801d1d0     0x1c  board_cli.o [1]
  .rodata            const    0x0801d1ec     0x1c  board_cli.o [1]
  .rodata            const    0x0801d208     0x1c  cli.o [1]
  .rodata            const    0x0801d224     0x1c  cli.o [1]
  .rodata            const    0x0801d240     0x1c  drv_acc_gyro_st_lsm6dsl.o [1]
  .rodata            const    0x0801d25c     0x1c  drv_als_ps_liteon_ltr553.o [1]
  .rodata            const    0x0801d278     0x1c  drv_als_ps_liteon_ltr553.o [1]
  .rodata            const    0x0801d294     0x1c  drv_als_ps_liteon_ltr553.o [1]
  .rodata            const    0x0801d2b0     0x1c  drv_als_ps_liteon_ltr553.o [1]
  .rodata            const    0x0801d2cc     0x1c  drv_als_ps_liteon_ltr553.o [1]
  .rodata            const    0x0801d2e8     0x1c  drv_als_ps_liteon_ltr553.o [1]
  .rodata            const    0x0801d304     0x1c  drv_als_ps_liteon_ltr553.o [1]
  .rodata            const    0x0801d320     0x1c  drv_als_ps_liteon_ltr553.o [1]
  .rodata            const    0x0801d33c     0x1c  drv_baro_bosch_bmp280.o [1]
  .rodata            const    0x0801d358     0x1c  drv_baro_bosch_bmp280.o [1]
  .rodata            const    0x0801d374     0x1c  drv_baro_bosch_bmp280.o [1]
  .rodata            const    0x0801d390     0x1c  drv_baro_bosch_bmp280.o [1]
  .rodata            const    0x0801d3ac     0x1c  dumpsys.o [1]
  .rodata            const    0x0801d3c8     0x1c  hal_flash_stm32l4.o [1]
  .rodata            const    0x0801d3e4     0x1c  hal_flash_stm32l4.o [1]
  .rodata            const    0x0801d400     0x1c  hal_flash_stm32l4.o [1]
  .rodata            const    0x0801d41c     0x1c  k_mm.o [1]
  .rodata            const    0x0801d438     0x1c  k_mm_debug.o [1]
  .rodata            const    0x0801d454     0x1c  panic_c.o [1]
  .rodata            const    0x0801d470     0x1c  panic_c.o [1]
  .rodata            const    0x0801d48c     0x1c  panic_c.o [1]
  .rodata            const    0x0801d4a8     0x1c  panic_c.o [1]
  .rodata            const    0x0801d4c4     0x1c  panic_c.o [1]
  .rodata            const    0x0801d4e0     0x1c  sal_sockets.o [1]
  .rodata            const    0x0801d4fc     0x18  aos_init.o [1]
  .rodata            const    0x0801d514     0x18  aos_init.o [1]
  .rodata            const    0x0801d52c     0x18  atparser.o [1]
  .rodata            const    0x0801d544     0x18  atparser.o [1]
  .rodata            const    0x0801d55c     0x18  atparser.o [1]
  .rodata            const    0x0801d574     0x18  atparser.o [1]
  .rodata            const    0x0801d58c     0x18  atparser.o [1]
  .rodata            const    0x0801d5a4     0x18  atparser.o [1]
  .rodata            const    0x0801d5bc     0x18  atparser.o [1]
  .rodata            const    0x0801d5d4     0x18  atparser.o [1]
  .rodata            const    0x0801d5ec     0x18  board_cli.o [1]
  .rodata            const    0x0801d604     0x18  board_cli.o [1]
  .rodata            const    0x0801d61c     0x18  cli.o [1]
  .rodata            const    0x0801d634     0x18  cli.o [1]
  .rodata            const    0x0801d64c     0x18  device.o [1]
  .rodata            const    0x0801d664     0x18  drv_acc_gyro_st_lsm6dsl.o [1]
  .rodata            const    0x0801d67c     0x18  drv_acc_gyro_st_lsm6dsl.o [1]
  .rodata            const    0x0801d694     0x18  drv_als_ps_liteon_ltr553.o [1]
  .rodata            const    0x0801d6ac     0x18  drv_baro_bosch_bmp280.o [1]
  .rodata            const    0x0801d6c4     0x18  drv_mag_temp_memsic_mmc3680kj.o [1]
  .rodata            const    0x0801d6dc     0x18  drv_temp_humi_sensirion_shtc1.o [1]
  .rodata            const    0x0801d6f4     0x18  dumpsys.o [1]
  .rodata            const    0x0801d70c     0x18  hal_flash_stm32l4.o [1]
  .rodata            const    0x0801d724     0x18  hal_uart_stm32l4.o [1]
  .rodata            const    0x0801d73c     0x18  hal_uart_stm32l4.o [1]
  .rodata            const    0x0801d754     0x18  helloworld.o [1]
  .rodata            const    0x0801d76c     0x18  helloworld.o [1]
  .rodata            const    0x0801d784     0x18  hw.o [1]
  .rodata            const    0x0801d79c     0x18  k_mm_debug.o [1]
  .rodata            const    0x0801d7b4     0x18  k_mm_debug.o [1]
  .rodata            const    0x0801d7cc     0x18  k_overview.o [1]
  .rodata            const    0x0801d7e4     0x18  kvmgr.o [1]
  .rodata            const    0x0801d7fc     0x18  kvmgr.o [1]
  .rodata            const    0x0801d814     0x18  log.o [1]
  .rodata            const    0x0801d82c     0x18  log.o [1]
  .rodata            const    0x0801d844     0x18  log.o [1]
  .rodata            const    0x0801d85c     0x18  sal_sockets.o [1]
  .rodata            const    0x0801d874     0x18  sal_sockets.o [1]
  .rodata            const    0x0801d88c     0x18  sensor_hal.o [1]
  .rodata            const    0x0801d8a4     0x18  trace_impl.o [1]
  .rodata            const    0x0801d8bc     0x18  version.o [1]
  .rodata            const    0x0801d8d4     0x18  version.o [1]
  .rodata            const    0x0801d8ec     0x18  wifi_atcmd_bk7231.o [1]
  .rodata            const    0x0801d904     0x18  wifi_atcmd_bk7231.o [1]
  .rodata            const    0x0801d91c     0x18  wifi_atcmd_bk7231.o [1]
  .rodata            const    0x0801d934     0x18  wifi_atcmd_bk7231.o [1]
  .rodata            const    0x0801d94c     0x18  wifi_atcmd_bk7231.o [1]
  .rodata            const    0x0801d964     0x18  yloop.o [1]
  .text              ro code  0x0801d97c     0x16  xprout.o [3]
  .text              ro code  0x0801d994      0xc  putchar.o [3]
  .rodata            const    0x0801d9a0     0x14  atparser.o [1]
  .rodata            const    0x0801d9b4     0x14  atparser.o [1]
  .rodata            const    0x0801d9c8     0x14  atparser.o [1]
  .rodata            const    0x0801d9dc     0x14  atparser.o [1]
  .rodata            const    0x0801d9f0     0x14  atparser.o [1]
  .rodata            const    0x0801da04     0x14  bk7231.o [1]
  .rodata            const    0x0801da18     0x14  bk7231.o [1]
  .rodata            const    0x0801da2c     0x14  board_cli.o [1]
  .rodata            const    0x0801da40     0x14  cli.o [1]
  .rodata            const    0x0801da54     0x14  cli.o [1]
  .rodata            const    0x0801da68     0x14  cli.o [1]
  .rodata            const    0x0801da7c     0x14  cli.o [1]
  .rodata            const    0x0801da90     0x14  dumpsys.o [1]
  .rodata            const    0x0801daa4     0x14  dumpsys.o [1]
  .rodata            const    0x0801dab8     0x14  helloworld.o [1]
  .rodata            const    0x0801dacc     0x14  k_dyn_mem_proc.o [1]
  .rodata            const    0x0801dae0     0x14  k_mm_debug.o [1]
  .rodata            const    0x0801daf4     0x14  k_overview.o [1]
  .rodata            const    0x0801db08     0x14  k_overview.o [1]
  .rodata            const    0x0801db1c     0x14  k_overview.o [1]
  .rodata            const    0x0801db30     0x14  k_workqueue.o [1]
  .rodata            const    0x0801db44     0x14  kvmgr.o [1]
  .rodata            const    0x0801db58     0x14  kvmgr.o [1]
  .rodata            const    0x0801db6c     0x14  log.o [1]
  .rodata            const    0x0801db80     0x14  middleware_common_main.o [1]
  .rodata            const    0x0801db94     0x14  panic_c.o [1]
  .rodata            const    0x0801dba8     0x14  version.o [1]
  .rodata            const    0x0801dbbc     0x14  wifi_atcmd_bk7231.o [1]
  .rodata            const    0x0801dbd0     0x10  aos_init.o [1]
  .rodata            const    0x0801dbe0     0x10  aos_init.o [1]
  .rodata            const    0x0801dbf0     0x10  atparser.o [1]
  .rodata            const    0x0801dc00     0x10  atparser.o [1]
  .rodata            const    0x0801dc10     0x10  bk7231.o [1]
  .rodata            const    0x0801dc20     0x10  bk7231.o [1]
  .rodata            const    0x0801dc30     0x10  bk7231.o [1]
  .rodata            const    0x0801dc40     0x10  bk7231.o [1]
  .rodata            const    0x0801dc50     0x10  bk7231.o [1]
  .rodata            const    0x0801dc60     0x10  bk7231.o [1]
  .rodata            const    0x0801dc70     0x10  bk7231.o [1]
  .rodata            const    0x0801dc80     0x10  board_cli.o [1]
  .rodata            const    0x0801dc90     0x10  board_cli.o [1]
  .rodata            const    0x0801dca0     0x10  cli.o [1]
  .rodata            const    0x0801dcb0     0x10  cli.o [1]
  .rodata            const    0x0801dcc0     0x10  cli.o [1]
  .rodata            const    0x0801dcd0     0x10  cli.o [1]
  .rodata            const    0x0801dce0     0x10  cli.o [1]
  .rodata            const    0x0801dcf0     0x10  cli.o [1]
  .rodata            const    0x0801dd00     0x10  cli.o [1]
  .rodata            const    0x0801dd10     0x10  cli.o [1]
  .rodata            const    0x0801dd20     0x10  cli.o [1]
  .rodata            const    0x0801dd30     0x10  cli.o [1]
  .rodata            const    0x0801dd40     0x10  k_mm.o [1]
  .rodata            const    0x0801dd50     0x10  k_mm_debug.o [1]
  .rodata            const    0x0801dd60     0x10  k_mm_debug.o [1]
  .rodata            const    0x0801dd70     0x10  k_mm_debug.o [1]
  .rodata            const    0x0801dd80     0x10  k_workqueue.o [1]
  .rodata            const    0x0801dd90     0x10  kvmgr.o [1]
  .rodata            const    0x0801dda0     0x10  kvmgr.o [1]
  .rodata            const    0x0801ddb0     0x10  log.o [1]
  .rodata            const    0x0801ddc0     0x10  sal_sockets.o [1]
  .rodata            const    0x0801ddd0     0x10  sal_sockets.o [1]
  .rodata            const    0x0801dde0     0x10  system_stm32l4xx.o [1]
  .rodata            const    0x0801ddf0     0x10  version.o [1]
  .rodata            const    0x0801de00     0x10  wifi_atcmd_bk7231.o [1]
  .rodata            const    0x0801de10     0x10  wifi_atcmd_bk7231.o [1]
  .rodata            const    0x0801de20     0x10  yloop.o [1]
  .text              ro code  0x0801de30     0x10  hal_sd_stm32l4.o [1]
  .text              ro code  0x0801de40     0x10  startup_stm32l496xx_iar.o [1]
  .rodata            const    0x0801de50      0xc  aos.o [1]
  .rodata            const    0x0801de5c      0xc  aos_common.o [1]
  .rodata            const    0x0801de68      0xc  aos_init.o [1]
  .rodata            const    0x0801de74      0xc  aos_init.o [1]
  .rodata            const    0x0801de80      0xc  atparser.o [1]
  .rodata            const    0x0801de8c      0xc  atparser.o [1]
  .rodata            const    0x0801de98      0xc  atparser.o [1]
  .rodata            const    0x0801dea4      0xc  atparser.o [1]
  .rodata            const    0x0801deb0      0xc  bk7231.o [1]
  .rodata            const    0x0801debc      0xc  bk7231.o [1]
  .rodata            const    0x0801dec8      0xc  bk7231.o [1]
  .rodata            const    0x0801ded4      0xc  bk7231.o [1]
  .rodata            const    0x0801dee0      0xc  bk7231.o [1]
  .rodata            const    0x0801deec      0xc  bk7231.o [1]
  .rodata            const    0x0801def8      0xc  bk7231.o [1]
  .rodata            const    0x0801df04      0xc  bk7231.o [1]
  .rodata            const    0x0801df10      0xc  board.o [1]
  .rodata            const    0x0801df1c      0xc  board.o [1]
  .rodata            const    0x0801df28      0xc  board.o [1]
  .rodata            const    0x0801df34      0xc  board.o [1]
  .rodata            const    0x0801df40      0xc  board.o [1]
  .rodata            const    0x0801df4c      0xc  board.o [1]
  .rodata            const    0x0801df58      0xc  board.o [1]
  .rodata            const    0x0801df64      0xc  board_cli.o [1]
  .rodata            const    0x0801df70      0xc  board_cli.o [1]
  .rodata            const    0x0801df7c      0xc  board_cli.o [1]
  .rodata            const    0x0801df88      0xc  cli.o [1]
  .rodata            const    0x0801df94      0xc  cli.o [1]
  .rodata            const    0x0801dfa0      0xc  cli.o [1]
  .rodata            const    0x0801dfac      0xc  cli.o [1]
  .rodata            const    0x0801dfb8      0xc  cli.o [1]
  .rodata            const    0x0801dfc4      0xc  cli.o [1]
  .rodata            const    0x0801dfd0      0xc  cli.o [1]
  .rodata            const    0x0801dfdc      0xc  cli.o [1]
  .rodata            const    0x0801dfe8      0xc  device.o [1]
  .rodata            const    0x0801dff4      0xc  drv_acc_gyro_st_lsm6dsl.o [1]
  .rodata            const    0x0801e000      0xc  drv_acc_gyro_st_lsm6dsl.o [1]
  .rodata            const    0x0801e00c      0xc  drv_acc_gyro_st_lsm6dsl.o [1]
  .rodata            const    0x0801e018      0xc  drv_acc_gyro_st_lsm6dsl.o [1]
  .rodata            const    0x0801e024      0xc  drv_als_ps_liteon_ltr553.o [1]
  .rodata            const    0x0801e030      0xc  drv_als_ps_liteon_ltr553.o [1]
  .rodata            const    0x0801e03c      0xc  drv_als_ps_liteon_ltr553.o [1]
  .rodata            const    0x0801e048      0xc  drv_baro_bosch_bmp280.o [1]
  .rodata            const    0x0801e054      0xc  drv_baro_bosch_bmp280.o [1]
  .rodata            const    0x0801e060      0xc  drv_baro_bosch_bmp280.o [1]
  .rodata            const    0x0801e06c      0xc  drv_mag_temp_memsic_mmc3680kj.o [1]
  .rodata            const    0x0801e078      0xc  drv_mag_temp_memsic_mmc3680kj.o [1]
  .rodata            const    0x0801e084      0xc  drv_mag_temp_memsic_mmc3680kj.o [1]
  .rodata            const    0x0801e090      0xc  drv_mag_temp_memsic_mmc3680kj.o [1]
  .rodata            const    0x0801e09c      0xc  drv_temp_humi_sensirion_shtc1.o [1]
  .rodata            const    0x0801e0a8      0xc  drv_temp_humi_sensirion_shtc1.o [1]
  .rodata            const    0x0801e0b4      0xc  drv_temp_humi_sensirion_shtc1.o [1]
  .rodata            const    0x0801e0c0      0xc  drv_temp_humi_sensirion_shtc1.o [1]
  .rodata            const    0x0801e0cc      0xc  drv_temp_humi_sensirion_shtc1.o [1]
  .rodata            const    0x0801e0d8      0xc  dumpsys.o [1]
  .rodata            const    0x0801e0e4      0xc  dumpsys.o [1]
  .rodata            const    0x0801e0f0      0xc  dumpsys.o [1]
  .rodata            const    0x0801e0fc      0xc  dumpsys.o [1]
  .rodata            const    0x0801e108      0xc  helloworld.o [1]
  .rodata            const    0x0801e114      0xc  ip4_addr.o [1]
  .rodata            const    0x0801e120      0xc  ip4_addr.o [1]
  .rodata            const    0x0801e12c      0xc  ip4_addr.o [1]
  .rodata            const    0x0801e138      0xc  k_mm_debug.o [1]
  .rodata            const    0x0801e144      0xc  k_mm_debug.o [1]
  .rodata            const    0x0801e150      0xc  k_mm_debug.o [1]
  .rodata            const    0x0801e15c      0xc  k_overview.o [1]
  .rodata            const    0x0801e168      0xc  k_panic.o [1]
  .rodata            const    0x0801e174      0xc  k_sys.o [1]
  .rodata            const    0x0801e180      0xc  k_timer.o [1]
  .rodata            const    0x0801e18c      0xc  k_timer.o [1]
  .rodata            const    0x0801e198      0xc  kvmgr.o [1]
  .rodata            const    0x0801e1a4      0xc  local_event.o [1]
  .rodata            const    0x0801e1b0      0xc  log.o [1]
  .rodata            const    0x0801e1bc      0xc  middleware_common_main.o [1]
  .rodata            const    0x0801e1c8      0xc  sal_sockets.o [1]
  .rodata            const    0x0801e1d4      0xc  sal_sockets.o [1]
  .rodata            const    0x0801e1e0      0xc  sal_sockets.o [1]
  .rodata            const    0x0801e1ec      0xc  sal_sockets.o [1]
  .rodata            const    0x0801e1f8      0xc  sensor_hal.o [1]
  .rodata            const    0x0801e204      0xc  version.o [1]
  .rodata            const    0x0801e210      0xc  vfs.o [1]
  .rodata            const    0x0801e21c      0xc  wifi_atcmd_bk7231.o [1]
  .rodata            const    0x0801e228      0xc  wifi_atcmd_bk7231.o [1]
  .rodata            const    0x0801e234      0xc  wifi_atcmd_bk7231.o [1]
  .rodata            const    0x0801e240      0xc  wifi_atcmd_bk7231.o [1]
  .rodata            const    0x0801e24c      0xc  wifi_atcmd_bk7231.o [1]
  .rodata            const    0x0801e258      0xc  yloop.o [1]
  .rodata            const    0x0801e264      0xc  yloop.o [1]
  .text              ro code  0x0801e270      0xc  cstartup_M.o [5]
  .rodata            const    0x0801e27c      0x8  atparser.o [1]
  .rodata            const    0x0801e284      0x8  atparser.o [1]
  .rodata            const    0x0801e28c      0x8  atparser.o [1]
  .rodata            const    0x0801e294      0x8  bk7231.o [1]
  .rodata            const    0x0801e29c      0x8  bk7231.o [1]
  .rodata            const    0x0801e2a4      0x8  bk7231.o [1]
  .rodata            const    0x0801e2ac      0x8  bk7231.o [1]
  .rodata            const    0x0801e2b4      0x8  board_cli.o [1]
  .rodata            const    0x0801e2bc      0x8  board_cli.o [1]
  .rodata            const    0x0801e2c4      0x8  cli.o [1]
  .rodata            const    0x0801e2cc      0x8  cli.o [1]
  .rodata            const    0x0801e2d4      0x8  cli.o [1]
  .rodata            const    0x0801e2dc      0x8  cli.o [1]
  .rodata            const    0x0801e2e4      0x8  cli.o [1]
  .rodata            const    0x0801e2ec      0x8  cli.o [1]
  .rodata            const    0x0801e2f4      0x8  cli.o [1]
  .rodata            const    0x0801e2fc      0x8  cli.o [1]
  .rodata            const    0x0801e304      0x8  cli.o [1]
  .rodata            const    0x0801e30c      0x8  cli.o [1]
  .rodata            const    0x0801e314      0x8  cli.o [1]
  .rodata            const    0x0801e31c      0x8  cli.o [1]
  .rodata            const    0x0801e324      0x8  cli.o [1]
  .rodata            const    0x0801e32c      0x8  cli.o [1]
  .rodata            const    0x0801e334      0x8  cli.o [1]
  .rodata            const    0x0801e33c      0x8  cli.o [1]
  .rodata            const    0x0801e344      0x8  cli.o [1]
  .rodata            const    0x0801e34c      0x8  drv_acc_gyro_st_lsm6dsl.o [1]
  .rodata            const    0x0801e354      0x8  drv_als_ps_liteon_ltr553.o [1]
  .rodata            const    0x0801e35c      0x8  drv_als_ps_liteon_ltr553.o [1]
  .rodata            const    0x0801e364      0x8  drv_baro_bosch_bmp280.o [1]
  .rodata            const    0x0801e36c      0x8  drv_temp_humi_sensirion_shtc1.o [1]
  .rodata            const    0x0801e374      0x8  dumpsys.o [1]
  .rodata            const    0x0801e37c      0x8  dumpsys.o [1]
  .rodata            const    0x0801e384      0x8  dumpsys.o [1]
  .rodata            const    0x0801e38c      0x8  dumpsys.o [1]
  .rodata            const    0x0801e394      0x8  dumpsys.o [1]
  .rodata            const    0x0801e39c      0x8  dumpsys.o [1]
  .rodata            const    0x0801e3a4      0x8  dumpsys.o [1]
  .rodata            const    0x0801e3ac      0x8  dumpsys.o [1]
  .rodata            const    0x0801e3b4      0x8  dumpsys.o [1]
  .rodata            const    0x0801e3bc      0x8  dumpsys.o [1]
  .rodata            const    0x0801e3c4      0x8  dumpsys.o [1]
  .rodata            const    0x0801e3cc      0x8  k_mm_debug.o [1]
  .rodata            const    0x0801e3d4      0x8  k_mm_debug.o [1]
  .rodata            const    0x0801e3dc      0x8  k_mm_debug.o [1]
  .rodata            const    0x0801e3e4      0x8  k_mm_debug.o [1]
  .rodata            const    0x0801e3ec      0x8  k_overview.o [1]
  .rodata            const    0x0801e3f4      0x8  k_overview.o [1]
  .rodata            const    0x0801e3fc      0x8  k_overview.o [1]
  .rodata            const    0x0801e404      0x8  k_sys.o [1]
  .rodata            const    0x0801e40c      0x8  kvmgr.o [1]
  .rodata            const    0x0801e414      0x8  kvmgr.o [1]
  .rodata            const    0x0801e41c      0x8  kvmgr.o [1]
  .rodata            const    0x0801e424      0x8  kvmgr.o [1]
  .rodata            const    0x0801e42c      0x8  log.o [1]
  .rodata            const    0x0801e434      0x8  log.o [1]
  .rodata            const    0x0801e43c      0x8  log.o [1]
  .rodata            const    0x0801e444      0x8  log.o [1]
  .rodata            const    0x0801e44c      0x8  log.o [1]
  .rodata            const    0x0801e454      0x8  sal_sockets.o [1]
  .rodata            const    0x0801e45c      0x8  soc_impl.o [1]
  .rodata            const    0x0801e464      0x8  soc_impl.o [1]
  .rodata            const    0x0801e46c      0x8  soc_impl.o [1]
  .rodata            const    0x0801e474      0x8  system_stm32l4xx.o [1]
  .rodata            const    0x0801e47c      0x8  version.o [1]
  .rodata            const    0x0801e484      0x8  wifi_atcmd_bk7231.o [1]
  .rodata            const    0x0801e48c      0x8  wifi_atcmd_bk7231.o [1]
  .rodata            const    0x0801e494      0x8  wifi_atcmd_bk7231.o [1]
  .rodata            const    0x0801e49c      0x8  wifi_atcmd_bk7231.o [1]
  .rodata            const    0x0801e4a4      0x8  wifi_atcmd_bk7231.o [1]
  .rodata            const    0x0801e4ac      0x6  xlocale_c.o [3]
  .rodata            const    0x0801e4b4      0x4  aos_init.o [1]
  .rodata            const    0x0801e4b8      0x4  aos_init.o [1]
  .rodata            const    0x0801e4bc      0x4  cli.o [1]
  .rodata            const    0x0801e4c0      0x4  dumpsys.o [1]
  .rodata            const    0x0801e4c4      0x4  dumpsys.o [1]
  .rodata            const    0x0801e4c8      0x4  dumpsys.o [1]
  .rodata            const    0x0801e4cc      0x4  k_overview.o [1]
  .rodata            const    0x0801e4d0      0x4  k_overview.o [1]
  .rodata            const    0x0801e4d4      0x4  k_overview.o [1]
  .rodata            const    0x0801e4d8      0x4  k_overview.o [1]
  .rodata            const    0x0801e4dc      0x4  k_overview.o [1]
  .rodata            const    0x0801e4e0      0x4  kvmgr.o [1]
  .text              ro code  0x0801e4e4      0x4  startup_stm32l496xx_iar.o [1]
  .text              ro code  0x0801e4e8      0x4  startup_stm32l496xx_iar.o [1]
  .text              ro code  0x0801e4ec      0x4  startup_stm32l496xx_iar.o [1]
  .text              ro code  0x0801e4f0      0x4  startup_stm32l496xx_iar.o [1]
  .text              ro code  0x0801e4f4      0x4  startup_stm32l496xx_iar.o [1]
  .text              ro code  0x0801e4f8      0x4  startup_stm32l496xx_iar.o [1]
  .text              ro code  0x0801e4fc      0x4  startup_stm32l496xx_iar.o [1]
  .text              ro code  0x0801e500      0x4  startup_stm32l496xx_iar.o [1]
  .text              ro code  0x0801e504      0x4  startup_stm32l496xx_iar.o [1]
  .text              ro code  0x0801e508      0x4  startup_stm32l496xx_iar.o [1]
  .text              ro code  0x0801e50c      0x4  startup_stm32l496xx_iar.o [1]
  .text              ro code  0x0801e510      0x4  startup_stm32l496xx_iar.o [1]
  .text              ro code  0x0801e514      0x4  startup_stm32l496xx_iar.o [1]
  .text              ro code  0x0801e518      0x4  startup_stm32l496xx_iar.o [1]
  .text              ro code  0x0801e51c      0x4  startup_stm32l496xx_iar.o [1]
  .text              ro code  0x0801e520      0x4  startup_stm32l496xx_iar.o [1]
  .text              ro code  0x0801e524      0x4  startup_stm32l496xx_iar.o [1]
  .text              ro code  0x0801e528      0x4  startup_stm32l496xx_iar.o [1]
  .text              ro code  0x0801e52c      0x4  startup_stm32l496xx_iar.o [1]
  .text              ro code  0x0801e530      0x4  startup_stm32l496xx_iar.o [1]
  .text              ro code  0x0801e534      0x4  startup_stm32l496xx_iar.o [1]
  .text              ro code  0x0801e538      0x4  startup_stm32l496xx_iar.o [1]
  .text              ro code  0x0801e53c      0x4  startup_stm32l496xx_iar.o [1]
  .text              ro code  0x0801e540      0x4  startup_stm32l496xx_iar.o [1]
  .text              ro code  0x0801e544      0x4  startup_stm32l496xx_iar.o [1]
  .text              ro code  0x0801e548      0x4  startup_stm32l496xx_iar.o [1]
  .text              ro code  0x0801e54c      0x4  startup_stm32l496xx_iar.o [1]
  .text              ro code  0x0801e550      0x4  startup_stm32l496xx_iar.o [1]
  .text              ro code  0x0801e554      0x4  startup_stm32l496xx_iar.o [1]
  .text              ro code  0x0801e558      0x4  startup_stm32l496xx_iar.o [1]
  .text              ro code  0x0801e55c      0x4  startup_stm32l496xx_iar.o [1]
  .text              ro code  0x0801e560      0x4  startup_stm32l496xx_iar.o [1]
  .text              ro code  0x0801e564      0x4  startup_stm32l496xx_iar.o [1]
  .text              ro code  0x0801e568      0x4  startup_stm32l496xx_iar.o [1]
  .text              ro code  0x0801e56c      0x4  startup_stm32l496xx_iar.o [1]
  .text              ro code  0x0801e570      0x4  startup_stm32l496xx_iar.o [1]
  .text              ro code  0x0801e574      0x4  startup_stm32l496xx_iar.o [1]
  .text              ro code  0x0801e578      0x4  startup_stm32l496xx_iar.o [1]
  .text              ro code  0x0801e57c      0x4  startup_stm32l496xx_iar.o [1]
  .text              ro code  0x0801e580      0x4  startup_stm32l496xx_iar.o [1]
  .text              ro code  0x0801e584      0x4  startup_stm32l496xx_iar.o [1]
  .text              ro code  0x0801e588      0x4  startup_stm32l496xx_iar.o [1]
  .text              ro code  0x0801e58c      0x4  startup_stm32l496xx_iar.o [1]
  .text              ro code  0x0801e590      0x4  startup_stm32l496xx_iar.o [1]
  .text              ro code  0x0801e594      0x4  startup_stm32l496xx_iar.o [1]
  .text              ro code  0x0801e598      0x4  startup_stm32l496xx_iar.o [1]
  .text              ro code  0x0801e59c      0x4  startup_stm32l496xx_iar.o [1]
  .text              ro code  0x0801e5a0      0x4  startup_stm32l496xx_iar.o [1]
  .text              ro code  0x0801e5a4      0x4  startup_stm32l496xx_iar.o [1]
  .text              ro code  0x0801e5a8      0x4  startup_stm32l496xx_iar.o [1]
  .text              ro code  0x0801e5ac      0x4  startup_stm32l496xx_iar.o [1]
  .text              ro code  0x0801e5b0      0x4  startup_stm32l496xx_iar.o [1]
  .text              ro code  0x0801e5b4      0x4  startup_stm32l496xx_iar.o [1]
  .text              ro code  0x0801e5b8      0x4  startup_stm32l496xx_iar.o [1]
  .text              ro code  0x0801e5bc      0x4  startup_stm32l496xx_iar.o [1]
  .text              ro code  0x0801e5c0      0x4  startup_stm32l496xx_iar.o [1]
  .text              ro code  0x0801e5c4      0x4  startup_stm32l496xx_iar.o [1]
  .text              ro code  0x0801e5c8      0x4  startup_stm32l496xx_iar.o [1]
  .text              ro code  0x0801e5cc      0x4  startup_stm32l496xx_iar.o [1]
  .text              ro code  0x0801e5d0      0x4  startup_stm32l496xx_iar.o [1]
  .text              ro code  0x0801e5d4      0x4  startup_stm32l496xx_iar.o [1]
  .text              ro code  0x0801e5d8      0x4  startup_stm32l496xx_iar.o [1]
  .text              ro code  0x0801e5dc      0x4  startup_stm32l496xx_iar.o [1]
  .text              ro code  0x0801e5e0      0x4  startup_stm32l496xx_iar.o [1]
  .text              ro code  0x0801e5e4      0x4  startup_stm32l496xx_iar.o [1]
  .text              ro code  0x0801e5e8      0x4  startup_stm32l496xx_iar.o [1]
  .text              ro code  0x0801e5ec      0x4  startup_stm32l496xx_iar.o [1]
  .text              ro code  0x0801e5f0      0x4  startup_stm32l496xx_iar.o [1]
  .text              ro code  0x0801e5f4      0x4  startup_stm32l496xx_iar.o [1]
  .text              ro code  0x0801e5f8      0x4  startup_stm32l496xx_iar.o [1]
  .text              ro code  0x0801e5fc      0x4  startup_stm32l496xx_iar.o [1]
  .text              ro code  0x0801e600      0x4  startup_stm32l496xx_iar.o [1]
  .text              ro code  0x0801e604      0x4  startup_stm32l496xx_iar.o [1]
  .text              ro code  0x0801e608      0x4  startup_stm32l496xx_iar.o [1]
  .text              ro code  0x0801e60c      0x4  startup_stm32l496xx_iar.o [1]
  .rodata            const    0x0801e610      0x0  zero_init3.o [5]
  .rodata            const    0x0801e610      0x0  lz77_init.o [5]
  Initializer bytes  const    0x0801e610    0x298  <for P2 s0>
                            - 0x0801e8a8  0x1e6fc

"P2", part 1 of 3:                          0x6ee
  P2 s0                       0x20000000    0x6ee  <Init block>
    .data            inited   0x20000000    0x114  atparser.o [1]
    .data            inited   0x20000114    0x100  hal_gpio_stm32l4.o [1]
    .data            inited   0x20000214     0xd8  soc_init.o [1]
    .data            inited   0x200002ec     0x90  wifi_atcmd_bk7231.o [1]
    .data            inited   0x2000037c     0x48  soc_init.o [1]
    .data            inited   0x200003c4     0x48  xfiles.o [3]
    .data            inited   0x2000040c     0x48  xfiles.o [3]
    .data            inited   0x20000454     0x48  xfiles.o [3]
    .data            inited   0x2000049c     0x48  xlocale_c.o [3]
    .data            inited   0x200004e4     0x38  xlocale_c.o [3]
    .data            inited   0x2000051c     0x28  drv_acc_gyro_st_lsm6dsl.o [1]
    .data            inited   0x20000544     0x20  xfiles.o [3]
    .data            inited   0x20000564     0x18  aos_init.o [1]
    .data            inited   0x2000057c     0x18  dumpsys.o [1]
    .data            inited   0x20000594     0x14  bk7231.o [1]
    .data            inited   0x200005a8     0x14  drv_acc_gyro_st_lsm6dsl.o [1]
    .data            inited   0x200005bc     0x14  drv_acc_gyro_st_lsm6dsl.o [1]
    .data            inited   0x200005d0     0x14  drv_als_ps_liteon_ltr553.o [1]
    .data            inited   0x200005e4     0x14  drv_baro_bosch_bmp280.o [1]
    .data            inited   0x200005f8     0x14  drv_mag_temp_memsic_mmc3680kj.o [1]
    .data            inited   0x2000060c     0x14  drv_temp_humi_sensirion_shtc1.o [1]
    .data            inited   0x20000620     0x14  soc_init.o [1]
    .data            inited   0x20000634     0x14  soc_init.o [1]
    .data            inited   0x20000648     0x14  soc_init.o [1]
    .data            inited   0x2000065c      0xc  aos_init.o [1]
    .data            inited   0x20000668      0xc  board_cli.o [1]
    .data            inited   0x20000674      0xc  drv_mag_temp_memsic_mmc3680kj.o [1]
    .data            inited   0x20000680      0xc  kvmgr.o [1]
    .data            inited   0x2000068c      0xc  log.o [1]
    .data            inited   0x20000698      0xc  version.o [1]
    .data            inited   0x200006a4      0x8  local_event.o [1]
    .data            inited   0x200006ac      0x8  local_event.o [1]
    .data            inited   0x200006b4      0x8  soc_impl.o [1]
    .data            inited   0x200006bc      0x8  wifi.o [1]
    .data            inited   0x200006c4      0x8  rand.o [3]
    .data            inited   0x200006cc      0x4  aos_common.o [1]
    .data            inited   0x200006d0      0x4  atparser.o [1]
    .data            inited   0x200006d4      0x4  drv_temp_humi_sensirion_shtc1.o [1]
    .data            inited   0x200006d8      0x4  drv_temp_humi_sensirion_shtc1.o [1]
    .data            inited   0x200006dc      0x4  log.o [1]
    .data            inited   0x200006e0      0x4  soc_impl.o [1]
    .data            inited   0x200006e4      0x4  soc_impl.o [1]
    .data            inited   0x200006e8      0x4  system_stm32l4xx.o [1]
    .data            inited   0x200006ec      0x1  soc_init.o [1]
    .data            inited   0x200006ed      0x1  soc_init.o [1]
                            - 0x200006ee    0x6ee

"P2", part 2 of 3:                         0xc234
  .bss               zero     0x200006f0   0x7800  soc_impl.o [1]
  .bss               zero     0x20007ef0   0x1800  aos.o [1]
  .bss               zero     0x200096f0    0xc00  k_obj.o [1]
  .bss               zero     0x2000a2f0    0x4b0  k_obj.o [1]
  .bss               zero     0x2000a7a0    0x400  k_obj.o [1]
  .bss               zero     0x2000aba0    0x320  k_obj.o [1]
  .bss               zero     0x2000aec0    0x258  vfs_file.o [1]
  .bss               zero     0x2000b118    0x1f4  vfs_inode.o [1]
  .bss               zero     0x2000b30c    0x1ec  hal_uart_stm32l4.o [1]
  .bss               zero     0x2000b4f8    0x1e0  k_obj.o [1]
  .bss               zero     0x2000b6d8    0x12c  board.o [1]
  .bss               zero     0x2000b804    0x104  k_obj.o [1]
  .bss               zero     0x2000b908    0x100  cli.o [1]
  .bss               zero     0x2000ba08     0xe0  k_obj.o [1]
  .bss               zero     0x2000bae8     0xa0  aos.o [1]
  .bss               zero     0x2000bb88     0xa0  k_obj.o [1]
  .bss               zero     0x2000bc28     0xa0  k_obj.o [1]
  .bss               zero     0x2000bcc8     0xa0  k_obj.o [1]
  .bss               zero     0x2000bd68     0x84  hal_sd_stm32l4.o [1]
  .bss               zero     0x2000bdec     0x84  sai.o [1]
  .bss               zero     0x2000be70     0x84  rand.o [3]
  .bss               zero     0x2000bef4     0x7c  sensor_hal.o [1]
  .bss               zero     0x2000bf70     0x78  sal_sockets.o [1]
  .bss               zero     0x2000bfe8     0x6c  adc.o [1]
  .bss               zero     0x2000c054     0x64  sal_sockets.o [1]
  .bss               zero     0x2000c0b8     0x64  spi.o [1]
  .bss               zero     0x2000c11c     0x5c  kvmgr.o [1]
  .bss               zero     0x2000c178     0x58  dcmi.o [1]
  .bss               zero     0x2000c1d0     0x50  xfiles.o [3]
  .bss               zero     0x2000c220     0x50  xfiles.o [3]
  .bss               zero     0x2000c270     0x4c  hal_i2c_stm32l4.o [1]
  .bss               zero     0x2000c2bc     0x4c  hal_i2c_stm32l4.o [1]
  .bss               zero     0x2000c308     0x4c  hal_i2c_stm32l4.o [1]
  .bss               zero     0x2000c354     0x4c  hal_i2c_stm32l4.o [1]
  .bss               zero     0x2000c3a0     0x4c  k_obj.o [1]
  .bss               zero     0x2000c3ec     0x48  dcmi.o [1]
  .bss               zero     0x2000c434     0x48  sai.o [1]
  .bss               zero     0x2000c47c     0x48  usart.o [1]
  .bss               zero     0x2000c4c4     0x48  usart.o [1]
  .bss               zero     0x2000c50c     0x48  usart.o [1]
  .bss               zero     0x2000c554     0x48  usart.o [1]
  .bss               zero     0x2000c59c     0x40  cli.o [1]
  .bss               zero     0x2000c5dc     0x40  soc_impl.o [1]
  .bss               zero     0x2000c61c     0x40  tim.o [1]
  .bss               zero     0x2000c65c     0x40  tim.o [1]
  .bss               zero     0x2000c69c     0x40  tim.o [1]
  .bss               zero     0x2000c6dc     0x3c  bk7231.o [1]
  .bss               zero     0x2000c718     0x38  k_obj.o [1]
  .bss               zero     0x2000c750     0x28  vfs.o [1]
  .bss               zero     0x2000c778     0x24  crc.o [1]
  .bss               zero     0x2000c79c     0x24  k_obj.o [1]
  .bss               zero     0x2000c7c0     0x20  stm32l4xx_hal_flash.o [1]
  .bss               zero     0x2000c7e0     0x1c  drv_baro_bosch_bmp280.o [1]
  .bss               zero     0x2000c7fc     0x14  atparser.o [1]
  .bss               zero     0x2000c810     0x14  soc_init.o [1]
  .bss               zero     0x2000c824      0xc  aos.o [1]
  .bss               zero     0x2000c830      0x8  board_cli.o [1]
  .bss               zero     0x2000c838      0x8  drv_mag_temp_memsic_mmc3680kj.o [1]
  .bss               zero     0x2000c840      0x8  drv_temp_humi_sensirion_shtc1.o [1]
  .bss               zero     0x2000c848      0x8  k_obj.o [1]
  .bss               zero     0x2000c850      0x8  k_obj.o [1]
  .bss               zero     0x2000c858      0x8  k_obj.o [1]
  .bss               zero     0x2000c860      0x8  k_obj.o [1]
  .bss               zero     0x2000c868      0x8  k_obj.o [1]
  .bss               zero     0x2000c870      0x8  k_obj.o [1]
  .bss               zero     0x2000c878      0x8  k_obj.o [1]
  .bss               zero     0x2000c880      0x4  aos_rhino.o [1]
  .bss               zero     0x2000c884      0x4  atparser.o [1]
  .bss               zero     0x2000c888      0x4  bk7231.o [1]
  .bss               zero     0x2000c88c      0x4  cli.o [1]
  .bss               zero     0x2000c890      0x4  cli.o [1]
  .bss               zero     0x2000c894      0x4  cli.o [1]
  .bss               zero     0x2000c898      0x4  device.o [1]
  .bss               zero     0x2000c89c      0x4  drv_acc_gyro_st_lsm6dsl.o [1]
  .bss               zero     0x2000c8a0      0x4  drv_acc_gyro_st_lsm6dsl.o [1]
  .bss               zero     0x2000c8a4      0x4  drv_acc_gyro_st_lsm6dsl.o [1]
  .bss               zero     0x2000c8a8      0x4  drv_temp_humi_sensirion_shtc1.o [1]
  .bss               zero     0x2000c8ac      0x4  iar_libc.o [1]
  .bss               zero     0x2000c8b0      0x4  k_cpuusage.o [1]
  .bss               zero     0x2000c8b4      0x4  k_cpuusage.o [1]
  .bss               zero     0x2000c8b8      0x4  k_mm.o [1]
  .bss               zero     0x2000c8bc      0x4  k_obj.o [1]
  .bss               zero     0x2000c8c0      0x4  k_obj.o [1]
  .bss               zero     0x2000c8c4      0x4  k_obj.o [1]
  .bss               zero     0x2000c8c8      0x4  k_panic.o [1]
  .bss               zero     0x2000c8cc      0x4  k_panic.o [1]
  .bss               zero     0x2000c8d0      0x4  k_panic.o [1]
  .bss               zero     0x2000c8d4      0x4  k_panic.o [1]
  .bss               zero     0x2000c8d8      0x4  log.o [1]
  .bss               zero     0x2000c8dc      0x4  sai.o [1]
  .bss               zero     0x2000c8e0      0x4  sal_arch_aos.o [1]
  .bss               zero     0x2000c8e4      0x4  sal_sockets.o [1]
  .bss               zero     0x2000c8e8      0x4  sal_sockets.o [1]
  .bss               zero     0x2000c8ec      0x4  sal_sockets.o [1]
  .bss               zero     0x2000c8f0      0x4  sal_sockets.o [1]
  .bss               zero     0x2000c8f4      0x4  sal_sockets.o [1]
  .bss               zero     0x2000c8f8      0x4  sensor_hal.o [1]
  .bss               zero     0x2000c8fc      0x4  sensor_hal.o [1]
  .bss               zero     0x2000c900      0x4  stm32l4xx_hal.o [1]
  .bss               zero     0x2000c904      0x4  yloop.o [1]
  .bss               zero     0x2000c908      0x4  yloop.o [1]
  .bss               zero     0x2000c90c      0x4  xfail_s.o [3]
  .tbss              zero     0x2000c910      0x4  errno.o [3]
  .bss               zero     0x2000c914      0x2  k_obj.o [1]
  .bss               zero     0x2000c916      0x2  sal_sockets.o [1]
  .bss               zero     0x2000c918      0x1  atparser.o [1]
  .bss               zero     0x2000c919      0x1  cli.o [1]
  .bss               zero     0x2000c91a      0x1  drv_als_ps_liteon_ltr553.o [1]
  .bss               zero     0x2000c91b      0x1  drv_mag_temp_memsic_mmc3680kj.o [1]
  .bss               zero     0x2000c91c      0x1  drv_temp_humi_sensirion_shtc1.o [1]
  .bss               zero     0x2000c91d      0x1  k_obj.o [1]
  .bss               zero     0x2000c91e      0x1  k_obj.o [1]
  .bss               zero     0x2000c91f      0x1  k_obj.o [1]
  .bss               zero     0x2000c920      0x1  soc_init.o [1]
  .bss               zero     0x2000c921      0x1  vfs.o [1]
                            - 0x2000c922   0xc232

"P2", part 3 of 3:                         0x2000
  CSTACK                      0x2000c928   0x2000  <Block>
    CSTACK           uninit   0x2000c928   0x2000  <Block tail>
                            - 0x2000e928   0x2000


*******************************************************************************
*** INIT TABLE
***

          Address     Size
          -------     ----
Zero (__iar_zero_init3)
    1 destination range, total size 0xc232:
          0x200006f0  0xc232

Copy/lz77 (__iar_lz77_init3)
    1 source range, total size 0x298 (37% of destination):
          0x0801e610   0x298
    1 destination range, total size 0x6ee:
          0x20000000   0x6ee



*******************************************************************************
*** MODULE SUMMARY
***

    Module                           ro code  ro data  rw data
    ------                           -------  -------  -------
D:\work\IOT\code\internal_code\projects\autogen\helloworld@developerkit\iar_project\Debug\Obj: [1]
    adc.o                                256       60      108
    aos.o                                138       12    6 316
    aos_common.o                                   13        4
    aos_init.o                           508      265       36
    aos_rhino.o                        1 066                 4
    atparser.o                         6 032    1 437      305
    bk7231.o                           1 732      483       84
    board.o                              328       84      300
    board_cli.o                          956      765       20
    cli.o                              4 386    1 276      333
    crc.o                                112       60       36
    dcmi.o                               452       64      160
    device.o                             668       36        4
    dma.o                                232
    drv_acc_gyro_st_lsm6dsl.o          2 700      226       92
    drv_als_ps_liteon_ltr553.o         1 968      308       21
    drv_baro_bosch_bmp280.o            1 884      187       48
    drv_mag_temp_memsic_mmc3680kj.o    1 768      212       41
    drv_temp_humi_sensirion_shtc1.o    1 368      358       41
    dumpsys.o                          1 384    1 009       24
    hal_flash_stm32l4.o                1 212      284
    hal_gpio_stm32l4.o                 1 608       96      256
    hal_i2c_stm32l4.o                    644               304
    hal_sd_stm32l4.o                      16               132
    hal_uart_stm32l4.o                 4 012      264      492
    helloworld.o                         144       80
    hook_impl.o                           24
    hw.o                                  36       24
    i2c.o                                228
    iar_libc.o                           148                 4
    ip4_addr.o                           702       36
    irtim.o                                2
    k_buf_queue.o                        932
    k_cpuusage.o                         156                 8
    k_dyn_mem_proc.o                     220       88
    k_err.o                               24
    k_idle.o                              68
    k_infoget.o                           48
    k_mm.o                             1 880      240        4
    k_mm_blk.o                           308
    k_mm_debug.o                         640      752
    k_mutex.o                          1 040       60
    k_obj.o                                              7 781
    k_overview.o                       1 336    1 228
    k_panic.o                            636      448       16
    k_pend.o                             408       60
    k_ringbuf.o                          696
    k_sched.o                          1 100       60
    k_sem.o                              656
    k_stats.o                            180       60
    k_sys.o                              378       20
    k_task.o                           2 312       60
    k_tick.o                             444       60
    k_time.o                             178
    k_timer.o                            876       84
    k_workqueue.o                        468      100
    kv_osal.o                             96
    kvmgr.o                            3 692      283      104
    local_event.o                        220       18       16
    log.o                                276      165       20
    main.o                               322       64
    middleware_common_main.o              52       32
    panic_c.o                          1 324      388
    panic_iccarm.o                       200
    port_c.o                             140
    port_s.o                             168
    sai.o                                380       60      208
    sal_arch_aos.o                       384                 4
    sal_err.o                             36       68
    sal_sockets.o                      6 132    1 204      242
    select.o                             620
    sensor_drv_api.o                      80
    sensor_hal.o                       1 592       36      132
    soc_impl.o                           252      106   30 800
    soc_init.o                           428      131      371
    spi.o                                200       60      100
    startup_stm32l496xx_iar.o            744
    stm32l4xx_hal.o                       90                 4
    stm32l4xx_hal_adc.o                2 512
    stm32l4xx_hal_cortex.o               364
    stm32l4xx_hal_crc.o                  140
    stm32l4xx_hal_crc_ex.o                96
    stm32l4xx_hal_dcmi.o                 216
    stm32l4xx_hal_dma.o                  708
    stm32l4xx_hal_flash.o                780                32
    stm32l4xx_hal_flash_ex.o             624
    stm32l4xx_hal_gpio.o                 588
    stm32l4xx_hal_i2c.o                2 892
    stm32l4xx_hal_msp.o                  152
    stm32l4xx_hal_pwr.o                   20
    stm32l4xx_hal_pwr_ex.o               164
    stm32l4xx_hal_rcc.o                2 740
    stm32l4xx_hal_rcc_ex.o             3 884
    stm32l4xx_hal_sai.o                1 050
    stm32l4xx_hal_sd.o                   790
    stm32l4xx_hal_spi.o                  200
    stm32l4xx_hal_tim.o                2 864
    stm32l4xx_hal_tim_ex.o               252
    stm32l4xx_hal_uart.o               3 344
    stm32l4xx_hal_uart_ex.o                2
    stm32l4xx_ll_sdmmc.o                 488
    system_stm32l4xx.o                   108       74        4
    tim.o                                884       60      192
    trace_impl.o                          16       24
    usart.o                              632       64      288
    usb_otg.o                              2
    version.o                             96      109       12
    vfs.o                                340       12       41
    vfs_file.o                           128               600
    vfs_inode.o                          342               500
    vfs_register.o                       112
    wifi.o                               202        3        8
    wifi_atcmd_bk7231.o                1 208      530      144
    yloop.o                              948       64        8
    ----------------------------------------------------------
    Total:                            99 014   14 514   50 804

command line: [2]
    ----------------------------------------------------------
    Total:

dl7M_tlf.a: [3]
    abort.o                                6
    errno.o                               40                 4
    exit.o                                 4
    fflush.o                             172
    iar_Stolx.o                          134
    iar_Stoulx.o                         380
    isspace.o                             20
    low_level_init.o                       4
    printf.o                              40
    putchar.o                             12
    rand.o                               168        3      140
    snprintf.o                            68
    sprintf.o                             64
    sscanf.o                              40
    strncmp.o                             40
    strstr.o                              48
    tolower.o                             20
    tp_nothreads.o                         4
    vprintf.o                             32
    vsnprint.o                            60
    xfail_s.o                             68                 4
    xfiles.o                                       93      408
    xlocale_c.o                           64       54      128
    xprintffull_nomb.o                 3 554
    xprout.o                              22
    xscanflarge_nomb.o                 1 732
    xsnprout.o                            26
    xsprout.o                             10
    xsscin.o                              30
    ----------------------------------------------------------
    Total:                             6 862      150      684

m7M_tls.a: [4]
    DblAdd.o                             360
    DblCmpGe.o                            46
    DblCmpLe.o                            46
    DblDiv.o                             582
    DblMul.o                             418
    DblSub.o                             226
    DblToS32.o                            58
    DblToU32.o                            40
    S32ToDbl.o                            34
    U32ToDbl.o                            26
    fpinit_M.o                            34
    frexp.o                              112
    ldexp.o                              314
    ----------------------------------------------------------
    Total:                             2 296

rt7M_tl.a: [5]
    ABImemclr4.o                           6
    ABImemcpy.o                          166
    ABImemset.o                          102
    ABImemset48.o                         50
    I64DivMod.o                          558
    I64DivZer.o                            2
    cexit.o                               10
    cmain.o                               30
    cstartup_M.o                          12
    data_init.o                           40
    lz77_init.o                          498
    memchr.o                              88
    memcmp.o                             104
    memset.o                              20
    strchr.o                              22
    strcmp.o                              74
    strcpy.o                              76
    strlen.o                              54
    strncpy.o                            112
    zero_init3.o                          64
    ----------------------------------------------------------
    Total:                             2 088

shb_l.a: [6]
    ABIassert.o                           36
    exit.o                                20
    ----------------------------------------------------------
    Total:                                56

    Gaps                                  64        8
    Linker created                                 44    8 192
--------------------------------------------------------------
    Grand Total:                     110 380   14 716   59 680


*******************************************************************************
*** ENTRY LIST
***

Entry                      Address    Size  Type      Object
-----                      -------    ----  ----      ------
.iar.init_table$$Base   0x0801cad8           --   Gb  - Linker created -
.iar.init_table$$Limit  0x0801cb04           --   Gb  - Linker created -
?main                   0x0801d085          Code  Gb  cmain.o [5]
AHBPrescTable           0x0801dde0    0x10  Data  Gb  system_stm32l4xx.o [1]
APBPrescTable           0x0801e474     0x8  Data  Gb  system_stm32l4xx.o [1]
BLK_MAGIC_NUM           0x08002c2a     0x1  Data  Lc  kvmgr.o [1]
BusFault_Handler        0x0801aaf9          Code  Gb  panic_iccarm.o [1]
CSTACK$$Base            0x2000c928           --   Gb  - Linker created -
CSTACK$$Limit           0x2000e928           --   Gb  - Linker created -
DMA1_Channel2_IRQHandler
                        0x0801a53f    0x12  Code  Gb  dma.o [1]
DMA1_Channel3_IRQHandler
                        0x0801a52d    0x12  Code  Gb  dma.o [1]
DMA1_Channel6_IRQHandler
                        0x0801a551    0x12  Code  Gb  dma.o [1]
DMA1_Channel7_IRQHandler
                        0x0801a563    0x12  Code  Gb  dma.o [1]
DMA_SetConfig           0x0800b911    0x2c  Code  Lc  stm32l4xx_hal_dma.o [1]
EXTI0_IRQHandler        0x0800f25d    0x12  Code  Gb  hal_gpio_stm32l4.o [1]
EXTI15_10_IRQHandler    0x0800f2e5    0x3c  Code  Gb  hal_gpio_stm32l4.o [1]
EXTI1_IRQHandler        0x0800f26f    0x12  Code  Gb  hal_gpio_stm32l4.o [1]
EXTI2_IRQHandler        0x0800f281    0x12  Code  Gb  hal_gpio_stm32l4.o [1]
EXTI3_IRQHandler        0x0800f293    0x12  Code  Gb  hal_gpio_stm32l4.o [1]
EXTI4_IRQHandler        0x0800f2a5    0x12  Code  Gb  hal_gpio_stm32l4.o [1]
EXTI9_5_IRQHandler      0x0800f2b7    0x2e  Code  Gb  hal_gpio_stm32l4.o [1]
FLASH_FlushCaches       0x08012575    0x92  Code  Gb  stm32l4xx_hal_flash_ex.o [1]
FLASH_MassErase         0x080124d7    0x3a  Code  Lc  stm32l4xx_hal_flash_ex.o [1]
FLASH_PageErase         0x08012511    0x64  Code  Gb  stm32l4xx_hal_flash_ex.o [1]
FLASH_Program_DoubleWord
                        0x080128c9    0x18  Code  Lc  stm32l4xx_hal_flash.o [1]
FLASH_Program_Fast      0x080128e1    0x28  Code  Lc  stm32l4xx_hal_flash.o [1]
FLASH_SetErrorCode      0x080127bb   0x10e  Code  Lc  stm32l4xx_hal_flash.o [1]
FLASH_WaitForLastOperation
                        0x0801271b    0xa0  Code  Gb  stm32l4xx_hal_flash.o [1]
FLASH_erase_at          0x08012015    0x6e  Code  Gb  hal_flash_stm32l4.o [1]
FLASH_get_bank          0x08011ef1    0x7c  Code  Gb  hal_flash_stm32l4.o [1]
FLASH_get_pageInBank    0x08011f6d    0xa8  Code  Gb  hal_flash_stm32l4.o [1]
FLASH_read_at           0x080120f1    0x24  Code  Gb  hal_flash_stm32l4.o [1]
FLASH_update            0x08012115    0xc6  Code  Gb  hal_flash_stm32l4.o [1]
FLASH_write_at          0x08012083    0x6e  Code  Gb  hal_flash_stm32l4.o [1]
GetAppPortFromPhyInstanse
                        0x08007c03    0x3a  Code  Lc  hal_uart_stm32l4.o [1]
GetUARTMapping          0x08007bc7    0x3c  Code  Lc  hal_uart_stm32l4.o [1]
HAL_ADC_ConfigChannel   0x080168e5   0x564  Code  Gb  stm32l4xx_hal_adc.o [1]
HAL_ADC_Init            0x080165fb   0x2ac  Code  Gb  stm32l4xx_hal_adc.o [1]
HAL_ADC_MspInit         0x08016f23    0x3c  Code  Gb  adc.o [1]
HAL_CRCEx_Polynomial_Set
                        0x0801a951    0x60  Code  Gb  stm32l4xx_hal_crc_ex.o [1]
HAL_CRC_Init            0x0801a8c5    0x88  Code  Gb  stm32l4xx_hal_crc.o [1]
HAL_CRC_MspInit         0x0801a71b    0x26  Code  Gb  crc.o [1]
HAL_DCMI_Init           0x0801a291    0xd2  Code  Gb  stm32l4xx_hal_dcmi.o [1]
HAL_DCMI_MspInit        0x0801a12b   0x13e  Code  Gb  dcmi.o [1]
HAL_DMA_Abort_IT        0x0800b7f9    0x52  Code  Gb  stm32l4xx_hal_dma.o [1]
HAL_DMA_IRQHandler      0x0800b84b    0xc6  Code  Gb  stm32l4xx_hal_dma.o [1]
HAL_DMA_Init            0x0800b679    0xe0  Code  Gb  stm32l4xx_hal_dma.o [1]
HAL_DMA_Start_IT        0x0800b775    0x84  Code  Gb  stm32l4xx_hal_dma.o [1]
HAL_FLASHEx_Erase       0x080123ad   0x12a  Code  Gb  stm32l4xx_hal_flash_ex.o [1]
HAL_FLASH_Lock          0x0801270b    0x10  Code  Gb  stm32l4xx_hal_flash.o [1]
HAL_FLASH_Program       0x0801261d    0xd2  Code  Gb  stm32l4xx_hal_flash.o [1]
HAL_FLASH_Unlock        0x080126ef    0x1c  Code  Gb  stm32l4xx_hal_flash.o [1]
HAL_GPIO_EXTI_Callback  0x0800f823     0xa  Code  Gb  hal_gpio_stm32l4.o [1]
HAL_GPIO_EXTI_IRQHandler
                        0x0800dd2d    0x1a  Code  Gb  stm32l4xx_hal_gpio.o [1]
HAL_GPIO_Init           0x0800db35   0x1e6  Code  Gb  stm32l4xx_hal_gpio.o [1]
HAL_GPIO_WritePin       0x0800dd1b    0x12  Code  Gb  stm32l4xx_hal_gpio.o [1]
HAL_GetTick             0x0800d77d     0xc  Code  Wk  stm32l4xx_hal.o [1]
HAL_I2C_GetState        0x080130c1     0x6  Code  Gb  stm32l4xx_hal_i2c.o [1]
HAL_I2C_Init            0x08012929    0xcc  Code  Gb  stm32l4xx_hal_i2c.o [1]
HAL_I2C_Master_Receive  0x08012b85   0x190  Code  Gb  stm32l4xx_hal_i2c.o [1]
HAL_I2C_Master_Transmit
                        0x080129f5   0x190  Code  Gb  stm32l4xx_hal_i2c.o [1]
HAL_I2C_Mem_Read        0x08012ef1   0x1d0  Code  Gb  stm32l4xx_hal_i2c.o [1]
HAL_I2C_Mem_Write       0x08012d19   0x1d0  Code  Gb  stm32l4xx_hal_i2c.o [1]
HAL_I2C_MspInit         0x08013475    0xc4  Code  Gb  i2c.o [1]
HAL_IncTick             0x0801a755    0x10  Code  Wk  stm32l4xx_hal.o [1]
HAL_Init                0x0801a515    0x16  Code  Gb  stm32l4xx_hal.o [1]
HAL_InitTick            0x0800e1d9    0x28  Code  Wk  stm32l4xx_hal.o [1]
HAL_MspInit             0x0801a765    0x98  Code  Gb  stm32l4xx_hal_msp.o [1]
HAL_NVIC_EnableIRQ      0x0800a767     0xa  Code  Gb  stm32l4xx_hal_cortex.o [1]
HAL_NVIC_SetPriority    0x0800a745    0x22  Code  Gb  stm32l4xx_hal_cortex.o [1]
HAL_NVIC_SetPriorityGrouping
                        0x0800a73d     0x8  Code  Gb  stm32l4xx_hal_cortex.o [1]
HAL_NVIC_SystemReset    0x0800a771     0x8  Code  Gb  stm32l4xx_hal_cortex.o [1]
HAL_PWREx_ControlVoltageScaling
                        0x0800e20d    0x86  Code  Gb  stm32l4xx_hal_pwr_ex.o [1]
HAL_PWREx_GetVoltageRange
                        0x0800e201     0xc  Code  Gb  stm32l4xx_hal_pwr_ex.o [1]
HAL_PWR_EnableBkUpAccess
                        0x0800e2a5     0xe  Code  Gb  stm32l4xx_hal_pwr.o [1]
HAL_RCCEx_EnableMSIPLLMode
                        0x0800eef1    0x12  Code  Gb  stm32l4xx_hal_rcc_ex.o [1]
HAL_RCCEx_GetPeriphCLKFreq
                        0x0800e73d   0x792  Code  Gb  stm32l4xx_hal_rcc_ex.o [1]
HAL_RCCEx_PeriphCLKConfig
                        0x0800e2b9   0x46e  Code  Gb  stm32l4xx_hal_rcc_ex.o [1]
HAL_RCC_ClockConfig     0x0800d35b   0x1ca  Code  Gb  stm32l4xx_hal_rcc.o [1]
HAL_RCC_GetHCLKFreq     0x0800d66f     0x6  Code  Gb  stm32l4xx_hal_rcc.o [1]
HAL_RCC_GetPCLK1Freq    0x0800d675    0x16  Code  Gb  stm32l4xx_hal_rcc.o [1]
HAL_RCC_GetPCLK2Freq    0x0800d68b    0x16  Code  Gb  stm32l4xx_hal_rcc.o [1]
HAL_RCC_GetSysClockFreq
                        0x0800d583    0xec  Code  Gb  stm32l4xx_hal_rcc.o [1]
HAL_RCC_MCOConfig       0x0800d525    0x5e  Code  Gb  stm32l4xx_hal_rcc.o [1]
HAL_RCC_OscConfig       0x0800ccc9   0x692  Code  Gb  stm32l4xx_hal_rcc.o [1]
HAL_SAI_Init            0x08018c31   0x1e6  Code  Gb  stm32l4xx_hal_sai.o [1]
HAL_SAI_InitProtocol    0x08018bf9    0x38  Code  Gb  stm32l4xx_hal_sai.o [1]
HAL_SAI_MspInit         0x08019067   0x100  Code  Gb  sai.o [1]
HAL_SAL_Close           0x080026a9   0x182  Code  Gb  bk7231.o [1]
HAL_SAL_Close::__func__
                        0x0801dc70    0x10  Data  Lc  bk7231.o [1]
HAL_SAL_Start           0x0800220d   0x41a  Code  Gb  bk7231.o [1]
HAL_SAL_Start::__func__
                        0x0801dc20    0x10  Data  Lc  bk7231.o [1]
HAL_SD_GetCardState     0x0801933f    0x2a  Code  Gb  stm32l4xx_hal_sd.o [1]
HAL_SD_IRQHandler       0x08019191   0x1ae  Code  Gb  stm32l4xx_hal_sd.o [1]
HAL_SPI_Init            0x0801a7fd    0xc8  Code  Gb  stm32l4xx_hal_spi.o [1]
HAL_SPI_MspInit         0x0801a687    0x46  Code  Gb  spi.o [1]
HAL_SYSTICK_CLKSourceConfig
                        0x0800a781    0x20  Code  Gb  stm32l4xx_hal_cortex.o [1]
HAL_SYSTICK_Config      0x0800a779     0x8  Code  Gb  stm32l4xx_hal_cortex.o [1]
HAL_TIMEx_ConfigBreakDeadTime
                        0x0800da91    0x9a  Code  Gb  stm32l4xx_hal_tim_ex.o [1]
HAL_TIMEx_MasterConfigSynchronization
                        0x0800da39    0x58  Code  Gb  stm32l4xx_hal_tim_ex.o [1]
HAL_TIM_Base_Init       0x0800994d    0x38  Code  Gb  stm32l4xx_hal_tim.o [1]
HAL_TIM_Base_MspInit    0x0800c443    0xba  Code  Gb  tim.o [1]
HAL_TIM_Base_Start_IT   0x08009985    0x1c  Code  Gb  stm32l4xx_hal_tim.o [1]
HAL_TIM_ConfigClockSource
                        0x08009cf5   0x11e  Code  Gb  stm32l4xx_hal_tim.o [1]
HAL_TIM_IC_ConfigChannel
                        0x08009abf    0xd4  Code  Gb  stm32l4xx_hal_tim.o [1]
HAL_TIM_IC_Init         0x08009a11    0x38  Code  Gb  stm32l4xx_hal_tim.o [1]
HAL_TIM_OC_ConfigChannel
                        0x08009a49    0x76  Code  Gb  stm32l4xx_hal_tim.o [1]
HAL_TIM_OC_Init         0x080099a1    0x38  Code  Gb  stm32l4xx_hal_tim.o [1]
HAL_TIM_PWM_ConfigChannel
                        0x08009b93   0x162  Code  Gb  stm32l4xx_hal_tim.o [1]
HAL_TIM_PWM_Init        0x080099d9    0x38  Code  Gb  stm32l4xx_hal_tim.o [1]
HAL_TIM_SlaveConfigSynchronization
                        0x08009e13    0x4a  Code  Gb  stm32l4xx_hal_tim.o [1]
HAL_UARTEx_WakeupCallback
                        0x0800ccc7     0x2  Code  Wk  stm32l4xx_hal_uart_ex.o [1]
HAL_UART_IRQHandler     0x0800ac79   0x17e  Code  Gb  stm32l4xx_hal_uart.o [1]
HAL_UART_IdleCallback   0x0800896d   0x12c  Code  Gb  hal_uart_stm32l4.o [1]
HAL_UART_Init           0x0800a96d    0x7e  Code  Gb  stm32l4xx_hal_uart.o [1]
HAL_UART_MspInit        0x0800ca4d   0x238  Code  Gb  usart.o [1]
HAL_UART_Receive_DMA    0x0800abbf    0x9e  Code  Gb  stm32l4xx_hal_uart.o [1]
HAL_UART_Receive_IT     0x0800aa5d    0xd6  Code  Gb  stm32l4xx_hal_uart.o [1]
HAL_UART_RxCpltCallback
                        0x080086b9    0x52  Code  Gb  hal_uart_stm32l4.o [1]
HAL_UART_Transmit_DMA   0x0800ab33    0x8c  Code  Gb  stm32l4xx_hal_uart.o [1]
HAL_UART_Transmit_IT    0x0800a9eb    0x72  Code  Gb  stm32l4xx_hal_uart.o [1]
HAL_UART_TxCpltCallback
                        0x0800869f    0x1a  Code  Gb  hal_uart_stm32l4.o [1]
HardFault_Handler       0x0801aaf9          Code  Gb  panic_iccarm.o [1]
I2C1_Init               0x080147ef    0x14  Code  Lc  hal_i2c_stm32l4.o [1]
I2C2_Init               0x08014803    0x44  Code  Lc  hal_i2c_stm32l4.o [1]
I2C3_Init               0x08014847    0x44  Code  Lc  hal_i2c_stm32l4.o [1]
I2C4_Init               0x0801488b    0x44  Code  Lc  hal_i2c_stm32l4.o [1]
I2C_Flush_TXDR          0x0801320d    0x24  Code  Lc  stm32l4xx_hal_i2c.o [1]
I2C_IsAcknowledgeFailed
                        0x080133c5    0x7e  Code  Lc  stm32l4xx_hal_i2c.o [1]
I2C_RequestMemoryRead   0x0801316d    0x9a  Code  Lc  stm32l4xx_hal_i2c.o [1]
I2C_RequestMemoryWrite  0x080130d1    0x9c  Code  Lc  stm32l4xx_hal_i2c.o [1]
I2C_TransferConfig      0x08013443    0x2a  Code  Lc  stm32l4xx_hal_i2c.o [1]
I2C_WaitOnFlagUntilTimeout
                        0x08013231    0x58  Code  Lc  stm32l4xx_hal_i2c.o [1]
I2C_WaitOnRXNEFlagUntilTimeout
                        0x08013333    0x92  Code  Lc  stm32l4xx_hal_i2c.o [1]
I2C_WaitOnSTOPFlagUntilTimeout
                        0x080132e1    0x52  Code  Lc  stm32l4xx_hal_i2c.o [1]
I2C_WaitOnTXISFlagUntilTimeout
                        0x08013289    0x58  Code  Lc  stm32l4xx_hal_i2c.o [1]
I2c1Handle              0x2000c270    0x4c  Data  Lc  hal_i2c_stm32l4.o [1]
I2c2Handle              0x2000c2bc    0x4c  Data  Lc  hal_i2c_stm32l4.o [1]
I2c3Handle              0x2000c308    0x4c  Data  Lc  hal_i2c_stm32l4.o [1]
I2c4Handle              0x2000c354    0x4c  Data  Lc  hal_i2c_stm32l4.o [1]
ITEM_MAGIC_NUM          0x08002c2b     0x1  Data  Lc  kvmgr.o [1]
InStream_Read           0x08019eed    0x26  Code  Lc  lz77_init.o [5]
InStream_StepRegion     0x08019ed9    0x14  Code  Lc  lz77_init.o [5]
LL_ADC_DisableDeepPowerDown
                        0x080165c1     0xc  Code  Lc  stm32l4xx_hal_adc.o [1]
LL_ADC_EnableInternalRegulator
                        0x080165d7    0x10  Code  Lc  stm32l4xx_hal_adc.o [1]
LL_ADC_GetCommonPathInternalCh
                        0x080164c5     0x8  Code  Lc  stm32l4xx_hal_adc.o [1]
LL_ADC_GetOffsetChannel
                        0x080164f1     0xe  Code  Lc  stm32l4xx_hal_adc.o [1]
LL_ADC_IsDeepPowerDownEnabled
                        0x080165cd     0xa  Code  Lc  stm32l4xx_hal_adc.o [1]
LL_ADC_IsInternalRegulatorEnabled
                        0x080165e7     0xa  Code  Lc  stm32l4xx_hal_adc.o [1]
LL_ADC_REG_IsConversionOngoing
                        0x080165f1     0xa  Code  Lc  stm32l4xx_hal_adc.o [1]
LL_ADC_REG_SetSequencerRanks
                        0x0801651d    0x38  Code  Lc  stm32l4xx_hal_adc.o [1]
LL_ADC_SetChannelSamplingTime
                        0x08016555    0x44  Code  Lc  stm32l4xx_hal_adc.o [1]
LL_ADC_SetChannelSingleDiff
                        0x08016599    0x28  Code  Lc  stm32l4xx_hal_adc.o [1]
LL_ADC_SetCommonClock   0x080164ad     0xc  Code  Lc  stm32l4xx_hal_adc.o [1]
LL_ADC_SetCommonPathInternalCh
                        0x080164b9     0xc  Code  Lc  stm32l4xx_hal_adc.o [1]
LL_ADC_SetOffset        0x080164cd    0x24  Code  Lc  stm32l4xx_hal_adc.o [1]
LL_ADC_SetOffsetState   0x080164ff    0x12  Code  Lc  stm32l4xx_hal_adc.o [1]
LL_ADC_SetSamplingTimeCommonConfig
                        0x08016511     0xc  Code  Lc  stm32l4xx_hal_adc.o [1]
LPUART1_IRQHandler      0x08007ca1    0x14  Code  Gb  hal_uart_stm32l4.o [1]
LoadInt                 0x08008c6f    0x7a  Code  Lc  xprintffull_nomb.o [3]
MSIRangeTable           0x0801c234    0x30  Data  Gb  system_stm32l4xx.o [1]
MX_ADC3_Init            0x08016e7d    0xa6  Code  Gb  adc.o [1]
MX_CRC_Init             0x0801a6e1    0x3a  Code  Gb  crc.o [1]
MX_DCMI_Init            0x0801a0cd    0x5e  Code  Gb  dcmi.o [1]
MX_DMA_Init             0x0801a575    0x94  Code  Gb  dma.o [1]
MX_IRTIM_Init           0x0801a751     0x2  Code  Gb  irtim.o [1]
MX_SAI2_Init            0x08019015    0x52  Code  Gb  sai.o [1]
MX_SPI1_Init            0x0801a615    0x72  Code  Gb  spi.o [1]
MX_TIM16_Init           0x0800c2c3    0xbe  Code  Gb  tim.o [1]
MX_TIM17_Init           0x0800c381    0xc2  Code  Gb  tim.o [1]
MX_TIM1_Init            0x0800c1ad   0x116  Code  Gb  tim.o [1]
MX_USB_OTG_FS_USB_Init  0x0801a6dd     0x2  Code  Gb  usb_otg.o [1]
MemManage_Handler       0x0801aaf9          Code  Gb  panic_iccarm.o [1]
NVIC_EnableIRQ          0x0800a67f    0x14  Code  Lc  stm32l4xx_hal_cortex.o [1]
NVIC_EncodePriority     0x0800a6b5    0x3e  Code  Lc  stm32l4xx_hal_cortex.o [1]
NVIC_GetPriorityGrouping
                        0x0800a675     0xa  Code  Lc  stm32l4xx_hal_cortex.o [1]
NVIC_SetPriority        0x0800a693    0x22  Code  Lc  stm32l4xx_hal_cortex.o [1]
NVIC_SetPriorityGrouping
                        0x0800a659    0x1c  Code  Lc  stm32l4xx_hal_cortex.o [1]
NVIC_SystemReset        0x0800a6f3    0x1c  Code  Lc  stm32l4xx_hal_cortex.o [1]
OutStream_Write         0x08019f13    0x42  Code  Lc  lz77_init.o [5]
PendSV_Handler          0x08005c57          Code  Gb  port_s.o [1]
RCCEx_PLLSAI1_Config    0x0800ef21   0x164  Code  Lc  stm32l4xx_hal_rcc_ex.o [1]
RCCEx_PLLSAI2_Config    0x0800f085   0x142  Code  Lc  stm32l4xx_hal_rcc_ex.o [1]
RCC_SetFlashLatencyFromMSIRange
                        0x0800d6ad    0x8c  Code  Lc  stm32l4xx_hal_rcc.o [1]
Region$$Table$$Base     0x0801cad8           --   Gb  - Linker created -
Region$$Table$$Limit    0x0801cb04           --   Gb  - Linker created -
SAI2_client             0x2000c8dc     0x4  Data  Lc  sai.o [1]
SAI_Disable             0x08018fd1    0x40  Code  Lc  stm32l4xx_hal_sai.o [1]
SAI_InitI2S             0x08018e3d    0xf2  Code  Lc  stm32l4xx_hal_sai.o [1]
SAI_InitPCM             0x08018f2f    0xa2  Code  Lc  stm32l4xx_hal_sai.o [1]
SDMMC1_IRQHandler       0x0801de31     0xa  Code  Gb  hal_sd_stm32l4.o [1]
SDMMC_CmdSendStatus     0x08019525    0x34  Code  Gb  stm32l4xx_ll_sdmmc.o [1]
SDMMC_CmdStopTransfer   0x080194ef    0x36  Code  Gb  stm32l4xx_ll_sdmmc.o [1]
SDMMC_GetCmdResp1       0x08019559   0x124  Code  Lc  stm32l4xx_ll_sdmmc.o [1]
SDMMC_GetCommandResponse
                        0x080194d5     0x6  Code  Gb  stm32l4xx_ll_sdmmc.o [1]
SDMMC_GetResponse       0x080194db    0x14  Code  Gb  stm32l4xx_ll_sdmmc.o [1]
SDMMC_ReadFIFO          0x080194a1     0x6  Code  Gb  stm32l4xx_ll_sdmmc.o [1]
SDMMC_SendCommand       0x080194b1    0x24  Code  Gb  stm32l4xx_ll_sdmmc.o [1]
SDMMC_WriteFIFO         0x080194a7     0xa  Code  Gb  stm32l4xx_ll_sdmmc.o [1]
SD_DMARxAbort           0x080193c9    0x5c  Code  Lc  stm32l4xx_hal_sd.o [1]
SD_DMATxAbort           0x0801936d    0x5c  Code  Lc  stm32l4xx_hal_sd.o [1]
SD_Read_IT              0x08019453    0x26  Code  Lc  stm32l4xx_hal_sd.o [1]
SD_SendStatus           0x08019425    0x2e  Code  Lc  stm32l4xx_hal_sd.o [1]
SD_Write_IT             0x08019479    0x26  Code  Lc  stm32l4xx_hal_sd.o [1]
SYSINFO_KERNEL_VERSION  0x200006cc     0x4  Data  Gb  aos_common.o [1]
SysTick_Config          0x0800a70f    0x2e  Code  Lc  stm32l4xx_hal_cortex.o [1]
SysTick_Handler         0x0801a4b9    0x14  Code  Gb  soc_init.o [1]
SystemClock_Config      0x0800d8f5   0x12e  Code  Gb  main.o [1]
SystemCoreClock         0x200006e8     0x4  Data  Gb  system_stm32l4xx.o [1]
SystemInit              0x0801af21    0x4e  Code  Gb  system_stm32l4xx.o [1]
TIM_Base_SetConfig      0x08009e5d    0xcc  Code  Gb  stm32l4xx_hal_tim.o [1]
TIM_ETR_SetConfig       0x0800a45f    0x18  Code  Gb  stm32l4xx_hal_tim.o [1]
TIM_ITRx_SetConfig      0x0800a44b    0x14  Code  Lc  stm32l4xx_hal_tim.o [1]
TIM_OC1_SetConfig       0x08009f29    0xa6  Code  Lc  stm32l4xx_hal_tim.o [1]
TIM_OC2_SetConfig       0x08009fcf    0x98  Code  Gb  stm32l4xx_hal_tim.o [1]
TIM_OC3_SetConfig       0x0800a067    0x86  Code  Lc  stm32l4xx_hal_tim.o [1]
TIM_OC4_SetConfig       0x0800a0ed    0x64  Code  Lc  stm32l4xx_hal_tim.o [1]
TIM_OC5_SetConfig       0x0800a151    0x5e  Code  Lc  stm32l4xx_hal_tim.o [1]
TIM_OC6_SetConfig       0x0800a1af    0x60  Code  Lc  stm32l4xx_hal_tim.o [1]
TIM_SlaveTimer_SetConfig
                        0x0800a20f    0x9a  Code  Lc  stm32l4xx_hal_tim.o [1]
TIM_TI1_ConfigInputStage
                        0x0800a34d    0x28  Code  Lc  stm32l4xx_hal_tim.o [1]
TIM_TI1_SetConfig       0x0800a2a9    0x74  Code  Gb  stm32l4xx_hal_tim.o [1]
TIM_TI2_ConfigInputStage
                        0x0800a3af    0x2a  Code  Lc  stm32l4xx_hal_tim.o [1]
TIM_TI2_SetConfig       0x0800a375    0x3a  Code  Lc  stm32l4xx_hal_tim.o [1]
TIM_TI3_SetConfig       0x0800a3d9    0x38  Code  Lc  stm32l4xx_hal_tim.o [1]
TIM_TI4_SetConfig       0x0800a411    0x3a  Code  Lc  stm32l4xx_hal_tim.o [1]
Tim2Handle              0x2000c5dc    0x40  Data  Gb  soc_impl.o [1]
UART4_IRQHandler        0x08007c79    0x14  Code  Gb  hal_uart_stm32l4.o [1]
UART5_IRQHandler        0x08007c8d    0x14  Code  Gb  hal_uart_stm32l4.o [1]
UART_AdvFeatureConfig   0x0800b229    0xda  Code  Gb  stm32l4xx_hal_uart.o [1]
UART_CheckIdleState     0x0800b303    0x6e  Code  Gb  stm32l4xx_hal_uart.o [1]
UART_DMAAbortOnError    0x0800b4f1    0x16  Code  Lc  stm32l4xx_hal_uart.o [1]
UART_DMAError           0x0800b4a3    0x4c  Code  Lc  stm32l4xx_hal_uart.o [1]
UART_DMAReceiveCplt     0x0800b455    0x44  Code  Lc  stm32l4xx_hal_uart.o [1]
UART_DMARxHalfCplt      0x0800b499     0xa  Code  Lc  stm32l4xx_hal_uart.o [1]
UART_DMATransmitCplt    0x0800b417    0x34  Code  Lc  stm32l4xx_hal_uart.o [1]
UART_DMATxHalfCplt      0x0800b44b     0xa  Code  Lc  stm32l4xx_hal_uart.o [1]
UART_DMA_RxCpltCallback
                        0x080087ad   0x1b0  Code  Lc  hal_uart_stm32l4.o [1]
UART_EndRxTransfer      0x0800b3f3    0x24  Code  Lc  stm32l4xx_hal_uart.o [1]
UART_EndTransmit_IT     0x0800b593    0x1e  Code  Lc  stm32l4xx_hal_uart.o [1]
UART_EndTxTransfer      0x0800b3df    0x14  Code  Lc  stm32l4xx_hal_uart.o [1]
UART_IT_RxCpltCallback  0x08008711    0x80  Code  Lc  hal_uart_stm32l4.o [1]
UART_MAPPING_TABLE      0x2000037c    0x48  Data  Gb  soc_init.o [1]
UART_RxISR_16BIT        0x0800b613    0x64  Code  Lc  stm32l4xx_hal_uart.o [1]
UART_RxISR_8BIT         0x0800b5b1    0x62  Code  Lc  stm32l4xx_hal_uart.o [1]
UART_SetConfig          0x0800adf7   0x3f4  Code  Gb  stm32l4xx_hal_uart.o [1]
UART_TxISR_16BIT        0x0800b54b    0x48  Code  Lc  stm32l4xx_hal_uart.o [1]
UART_TxISR_8BIT         0x0800b509    0x42  Code  Lc  stm32l4xx_hal_uart.o [1]
UART_WaitOnFlagUntilTimeout
                        0x0800b371    0x6e  Code  Gb  stm32l4xx_hal_uart.o [1]
USART1_IRQHandler       0x08007c3d    0x14  Code  Gb  hal_uart_stm32l4.o [1]
USART2_IRQHandler       0x08007c51    0x14  Code  Gb  hal_uart_stm32l4.o [1]
USART3_IRQHandler       0x08007c65    0x14  Code  Gb  hal_uart_stm32l4.o [1]
USART_DMA_RX_IRQHandler
                        0x08007b83    0x22  Code  Gb  hal_uart_stm32l4.o [1]
USART_DMA_TX_IRQHandler
                        0x08007ba5    0x22  Code  Gb  hal_uart_stm32l4.o [1]
UartIRQProcessor        0x08007b29    0x5a  Code  Lc  hal_uart_stm32l4.o [1]
UartIdleHandler         0x08008a99    0x30  Code  Lc  hal_uart_stm32l4.o [1]
UsageFault_Handler      0x0801aaf9          Code  Gb  panic_iccarm.o [1]
_Error_Handler          0x0800da35     0x2  Code  Gb  main.o [1]
_Files                  0x20000544    0x20  Data  Gb  xfiles.o [3]
_GenldFullNoMb          0x080095db   0x250  Code  Lc  xprintffull_nomb.o [3]
_GetN                   0x08016f7d    0x22  Code  Lc  xscanflarge_nomb.o [3]
_GetintLargeNoMb        0x080173c3   0x204  Code  Lc  xscanflarge_nomb.o [3]
_GetstrLargeNoMb        0x08017229   0x194  Code  Lc  xscanflarge_nomb.o [3]
_LdtobFullNoMb          0x080091b1   0x3fe  Code  Lc  xprintffull_nomb.o [3]
_LitobFullNoMb          0x08009059   0x112  Code  Lc  xprintffull_nomb.o [3]
_LocaleC_isspace        0x0800c165    0x14  Code  Gb  xlocale_c.o [3]
_LocaleC_isupper        0x0800c159     0x2  Code  Gb  xlocale_c.o [3]
_LocaleC_tolower        0x0800c179     0xc  Code  Gb  xlocale_c.o [3]
_Locale_lconv           0x200004e4    0x38  Data  Lc  xlocale_c.o [3]
_PrintfFullNoMb         0x08008ad5   0x18c  Code  Gb  xprintffull_nomb.o [3]
_Prout                  0x0801d97d    0x16  Code  Gb  xprout.o [3]
_PutcharsFullNoMb       0x0800982b    0x2e  Code  Lc  xprintffull_nomb.o [3]
_PutfldFullNoMb         0x08008ce9   0x264  Code  Lc  xprintffull_nomb.o [3]
_PuttxtFullNoMb         0x08008f4d   0x10c  Code  Lc  xprintffull_nomb.o [3]
_Rand_idx               0x2000bef0     0x4  Data  Lc  rand.o [3]
_Rand_rv                0x2000be70    0x80  Data  Lc  rand.o [3]
_Randinit               0x200006c4     0x1  Data  Gb  rand.o [3]
_Randseed               0x200006c8     0x4  Data  Gb  rand.o [3]
_SNProut                0x0800218b    0x1a  Code  Gb  xsnprout.o [3]
_SProut                 0x080021ab     0xa  Code  Gb  xsprout.o [3]
_SScin                  0x08001ff3    0x1e  Code  Gb  xsscin.o [3]
_ScanfLargeNoMb         0x08016fb9   0x224  Code  Gb  xscanflarge_nomb.o [3]
_UngetN                 0x08016f9f    0x1a  Code  Lc  xscanflarge_nomb.o [3]
__aeabi_assert          0x0800a479    0x24  Code  Gb  ABIassert.o [6]
__aeabi_cdcmple         0x0800bbed          Code  Gb  DblCmpLe.o [4]
__aeabi_cdrcmple        0x0800bc1d          Code  Gb  DblCmpGe.o [4]
__aeabi_d2iz            0x0800bd89          Code  Gb  DblToS32.o [4]
__aeabi_d2uiz           0x0800c115          Code  Gb  DblToU32.o [4]
__aeabi_ddiv            0x0800becd          Code  Gb  DblDiv.o [4]
__aeabi_dmul            0x0800b9d9          Code  Gb  DblMul.o [4]
__aeabi_dsub            0x0800bde9          Code  Gb  DblSub.o [4]
__aeabi_errno_addr      0x0800a643     0xc  Code  Gb  errno.o [3]
__aeabi_i2d             0x0800bdc5          Code  Gb  S32ToDbl.o [4]
__aeabi_ldiv0           0x0800a49d          Code  Gb  I64DivZer.o [5]
__aeabi_memclr4         0x080021a5          Code  Gb  ABImemclr4.o [5]
__aeabi_memcpy          0x08002b85          Code  Gb  ABImemcpy.o [5]
__aeabi_memcpy4         0x08002ba5          Code  Gb  ABImemcpy.o [5]
__aeabi_memcpy8         0x08002ba5          Code  Gb  ABImemcpy.o [5]
__aeabi_memset          0x08002125          Code  Gb  ABImemset.o [5]
__aeabi_ui2d            0x0800c13d          Code  Gb  U32ToDbl.o [4]
__aeabi_uldivmod        0x0800661d          Code  Gb  I64DivMod.o [5]
__bss_end__ {Abs}       0x2001efff          Data  Gb  command line/config [2]
__bss_start__ {Abs}     0x20000830          Data  Gb  command line/config [2]
__builtin_popcount      0x080181bd    0x12  Code  Lc  panic_c.o [1]
__cmain                 0x0801d085          Code  Gb  cmain.o [5]
__dlist_add             0x08019691     0xa  Code  Lc  device.o [1]
__dlist_add             0x0800a891     0xa  Code  Lc  local_event.o [1]
__dlist_add             0x0800a7c5     0xa  Code  Lc  wifi.o [1]
__dlist_add             0x0800c699     0xa  Code  Lc  yloop.o [1]
__exit                  0x0800dd81    0x14  Code  Gb  exit.o [6]
__firewall_ROM_start {Abs}
                        0x08066d00          Data  Gb  command line/config [2]
__iar_Errno             0x2000c910     0x4  Tls   Gb  errno.o [3]
__iar_Fail_s            0x0800b93d    0x1e  Code  Gb  xfail_s.o [3]
__iar_Memchr            0x0800b981          Code  Gb  memchr.o [5]
__iar_Memset            0x08002125          Code  Gb  ABImemset.o [5]
__iar_Memset4_word      0x08005b75          Code  Gb  ABImemset48.o [5]
__iar_Memset8_word      0x08005b75          Code  Gb  ABImemset48.o [5]
__iar_Memset_word       0x0800212d          Code  Gb  ABImemset.o [5]
__iar_Stderr            0x20000454    0x48  Data  Gb  xfiles.o [3]
__iar_Stdin             0x200003c4    0x48  Data  Gb  xfiles.o [3]
__iar_Stdout            0x2000040c    0x48  Data  Gb  xfiles.o [3]
__iar_Stolx             0x08007639    0x82  Code  Gb  iar_Stolx.o [3]
__iar_Stoulx            0x0800a4b5   0x116  Code  Gb  iar_Stoulx.o [3]
__iar_Strchr            0x080075b1          Code  Gb  strchr.o [5]
__iar_dadd              0x0800bdf9          Code  Gb  DblSub.o [4]
__iar_data_init3        0x0801c751    0x28  Code  Gb  data_init.o [5]
__iar_dsub              0x0800d78d          Code  Gb  DblAdd.o [4]
__iar_dsubStart         0x0800d79f          Code  Gb  DblAdd.o [4]
__iar_errno_set_ERANGE  0x0800a631     0xc  Code  Gb  errno.o [3]
__iar_frexp             0x0800bb89          Code  Gb  frexp.o [4]
__iar_frexpl            0x0800bb89          Code  Gb  frexp.o [4]
__iar_globLocale        0x2000049c    0x48  Data  Lc  xlocale_c.o [3]
__iar_global_Locale     0x0800c185     0x4  Code  Gb  xlocale_c.o [3]
__iar_init_vfp          0x0801cab5          Code  Gb  fpinit_M.o [4]
__iar_ldexp64           0x0800bc4d          Code  Gb  ldexp.o [4]
__iar_lz77_init3        0x08019f55   0x176  Code  Gb  lz77_init.o [5]
__iar_nothread_read_tp  0x0800c541     0x4  Code  Gb  tp_nothreads.o [3]
__iar_program_start     0x0801e271          Code  Gb  cstartup_M.o [5]
__iar_scalbln64         0x0800bc4d          Code  Gb  ldexp.o [4]
__iar_scalbn64          0x0800bc4d          Code  Gb  ldexp.o [4]
__iar_softfp___iar_frexp64
                        0x0800bb7d          Code  Gb  frexp.o [4]
__iar_softfp_frexp      0x0800bb7d          Code  Gb  frexp.o [4]
__iar_softfp_frexpl     0x0800bb7d          Code  Gb  frexp.o [4]
__iar_systems$$module {Abs}
                        0x00000001          Data  Gb  command line/config [2]
__iar_zero_init3        0x0801b899    0x40  Code  Gb  zero_init3.o [5]
__item_find_cb          0x0801131d    0x64  Code  Lc  kvmgr.o [1]
__item_gc_cb            0x08011381    0x96  Code  Lc  kvmgr.o [1]
__item_print_cb         0x08011bbd    0x8a  Code  Lc  kvmgr.o [1]
__item_recovery_cb      0x080112af    0x6e  Code  Lc  kvmgr.o [1]
__low_level_init        0x0801d0a3     0x4  Code  Gb  low_level_init.o [3]
__vector_table          0x08000000          Data  Gb  startup_stm32l496xx_iar.o [1]
__write                 0x080098e9    0x64  Code  Wk  iar_libc.o [1]
_call_main              0x0801d091          Code  Gb  cmain.o [5]
_edata {Abs}            0x20000830          Data  Gb  command line/config [2]
_event_write            0x08019751    0xba  Code  Lc  device.o [1]
_exit                   0x0801d0ad          Code  Gb  cexit.o [5]
_first_task_restore     0x08005c9d          Code  Gb  port_s.o [1]
_get_context            0x0800c6e9     0xe  Code  Lc  yloop.o [1]
_main                   0x0801d09f          Code  Gb  cmain.o [5]
_ready_list_add_head    0x08005ff5    0x3a  Code  Lc  k_sched.o [1]
_ready_list_add_tail    0x08005fc7    0x2e  Code  Lc  k_sched.o [1]
_sdata {Abs}            0x20000000          Data  Gb  command line/config [2]
_set_context            0x0800c6d9    0x10  Code  Lc  yloop.o [1]
abort                   0x0800c527     0x6  Code  Gb  abort.o [3]
addsize                 0x0800417f    0x48  Code  Lc  k_mm.o [1]
alloc_socket            0x080016ed    0xca  Code  Lc  sal_sockets.o [1]
aos_cli_init            0x0800583d    0x88  Code  Gb  cli.o [1]
aos_cli_printf          0x080058c5    0x5c  Code  Gb  cli.o [1]
aos_cli_register_command
                        0x08005775    0x70  Code  Gb  cli.o [1]
aos_cli_register_commands
                        0x080057e5    0x2e  Code  Gb  cli.o [1]
aos_cli_task_create     0x08005823    0x1a  Code  Gb  cli.o [1]
aos_cli_task_get        0x0800581d     0x6  Code  Gb  cli.o [1]
aos_event_service_init  0x0800a8fd    0x2c  Code  Gb  local_event.o [1]
aos_fcntl               0x0800e1bb    0x1a  Code  Gb  select.o [1]
aos_framework_init      0x08019db5    0x34  Code  Gb  middleware_common_main.o [1]
aos_free                0x08001fb7     0xc  Code  Gb  aos_rhino.o [1]
aos_get_log_level       0x08002011     0x6  Code  Lc  log.o [1]
aos_heap_set            0x0800657f     0x2  Code  Gb  soc_impl.o [1]
aos_init                0x08001fe3     0x8  Code  Gb  aos_rhino.o [1]
aos_kernel_init         0x08019d6f    0x36  Code  Gb  aos_init.o [1]
aos_kv_del              0x08011a39    0x54  Code  Gb  kvmgr.o [1]
aos_kv_get              0x08011b31    0x86  Code  Gb  kvmgr.o [1]
aos_kv_init             0x08011db1    0x7e  Code  Gb  kvmgr.o [1]
aos_kv_set              0x08011a8d    0xa4  Code  Gb  kvmgr.o [1]
aos_log_get_level       0x0800f82d     0x8  Code  Lc  atparser.o [1]
aos_log_get_level       0x08002201     0x8  Code  Lc  bk7231.o [1]
aos_log_get_level       0x080028c5     0x6  Code  Lc  ip4_addr.o [1]
aos_log_get_level       0x080001ad     0x8  Code  Lc  sal_sockets.o [1]
aos_log_get_level       0x08018719     0x8  Code  Lc  wifi_atcmd_bk7231.o [1]
aos_log_get_level       0x0800c6d1     0x8  Code  Lc  yloop.o [1]
aos_log_level           0x200006dc     0x4  Data  Gb  log.o [1]
aos_loop_init           0x0800c721    0x7c  Code  Gb  yloop.o [1]
aos_loop_run            0x0800c8ff   0x12e  Code  Gb  yloop.o [1]
aos_loop_set_eventfd    0x0800c715     0xc  Code  Gb  yloop.o [1]
aos_malloc              0x08001f97    0x20  Code  Gb  aos_rhino.o [1]
aos_msleep              0x08001fd5     0xe  Code  Gb  aos_rhino.o [1]
aos_mutex_free          0x08001cf1    0x1a  Code  Gb  aos_rhino.o [1]
aos_mutex_is_valid      0x08001d87    0x16  Code  Gb  aos_rhino.o [1]
aos_mutex_lock          0x08001d0b    0x50  Code  Gb  aos_rhino.o [1]
aos_mutex_new           0x08001caf    0x42  Code  Gb  aos_rhino.o [1]
aos_mutex_unlock        0x08001d5b    0x2c  Code  Gb  aos_rhino.o [1]
aos_now_ms              0x08001fc3     0x8  Code  Gb  aos_rhino.o [1]
aos_open                0x0800c579    0xc6  Code  Gb  vfs.o [1]
aos_poll                0x0800e117    0xa4  Code  Gb  select.o [1]
aos_poll_read_fd        0x0800c79d    0xea  Code  Gb  yloop.o [1]
aos_post_delayed_action
                        0x0800c88d    0x72  Code  Gb  yloop.o [1]
aos_queue_buf_ptr       0x08001f47    0x18  Code  Gb  aos_rhino.o [1]
aos_queue_free          0x08001ec5    0x1a  Code  Gb  aos_rhino.o [1]
aos_queue_is_valid      0x08001f31    0x16  Code  Gb  aos_rhino.o [1]
aos_queue_new           0x08001e65    0x58  Code  Gb  aos_rhino.o [1]
aos_queue_recv          0x08001eff    0x32  Code  Gb  aos_rhino.o [1]
aos_queue_send          0x08001edf    0x20  Code  Gb  aos_rhino.o [1]
aos_read                0x0800c63f    0x4e  Code  Gb  vfs.o [1]
aos_register_driver     0x080148f1    0x6a  Code  Gb  vfs_register.o [1]
aos_register_event_filter
                        0x0800a929    0x34  Code  Gb  local_event.o [1]
aos_sem_free            0x08001de3    0x1a  Code  Gb  aos_rhino.o [1]
aos_sem_is_valid        0x08001e4f    0x16  Code  Gb  aos_rhino.o [1]
aos_sem_new             0x08001d9d    0x46  Code  Gb  aos_rhino.o [1]
aos_sem_signal          0x08001e41     0xe  Code  Gb  aos_rhino.o [1]
aos_sem_wait            0x08001dfd    0x44  Code  Gb  aos_rhino.o [1]
aos_set_log_level       0x08002017    0x38  Code  Gb  log.o [1]
aos_start               0x08001feb     0x8  Code  Gb  aos_rhino.o [1]
aos_task_exit           0x08001c33     0xa  Code  Gb  aos_rhino.o [1]
aos_task_getspecific    0x08001c97    0x18  Code  Gb  aos_rhino.o [1]
aos_task_key_create     0x08001c47    0x34  Code  Gb  aos_rhino.o [1]
aos_task_name           0x08001c3d     0xa  Code  Gb  aos_rhino.o [1]
aos_task_new            0x08001bd1    0x30  Code  Gb  aos_rhino.o [1]
aos_task_new_ext        0x08001c01    0x32  Code  Gb  aos_rhino.o [1]
aos_task_setspecific    0x08001c7b    0x1c  Code  Gb  aos_rhino.o [1]
aos_version_get         0x08001bc9     0x8  Code  Gb  aos_rhino.o [1]
aos_wifi_module_bk7231  0x200002ec    0x90  Data  Gb  wifi_atcmd_bk7231.o [1]
aos_zalloc              0x08001f5f    0x38  Code  Gb  aos_rhino.o [1]
app_delayed_action      0x08019de9    0x42  Code  Lc  helloworld.o [1]
app_delayed_action::__func__
                        0x0801dab8    0x14  Data  Lc  helloworld.o [1]
application_start       0x08019e2b    0x34  Code  Gb  helloworld.o [1]
at                      0x20000000   0x114  Data  Gb  atparser.o [1]
at_getc                 0x0800fd41    0xb0  Code  Lc  atparser.o [1]
at_init                 0x0800fa43   0x21c  Code  Lc  atparser.o [1]
at_init::__func__       0x0801e27c     0x8  Data  Lc  atparser.o [1]
at_init_at_mutex        0x0800f98b    0x44  Code  Lc  atparser.o [1]
at_init_task_mutex      0x0800f92f    0x44  Code  Lc  atparser.o [1]
at_init_uart            0x0800f89b    0x2a  Code  Lc  atparser.o [1]
at_oob                  0x08010919   0x19e  Code  Lc  atparser.o [1]
at_oob::__func__        0x0801e28c     0x8  Data  Lc  atparser.o [1]
at_putc                 0x0800fc95    0xac  Code  Lc  atparser.o [1]
at_read                 0x0800fe6b    0xc6  Code  Lc  atparser.o [1]
at_send_data_2stage     0x08010641   0x2c6  Code  Lc  atparser.o [1]
at_send_data_2stage::__FUNCTION__
                        0x0801d9f0    0x14  Data  Lc  atparser.o [1]
at_send_data_3stage_no_rsp
                        0x08010361   0x202  Code  Lc  atparser.o [1]
at_send_raw             0x080102b9    0x82  Code  Lc  atparser.o [1]
at_send_raw_no_rsp      0x08010589    0x82  Code  Lc  atparser.o [1]
at_send_raw_self_define_respone_formate
                        0x0801026b    0x4e  Code  Lc  atparser.o [1]
at_send_raw_self_define_respone_formate_internal
                        0x08010015   0x256  Code  Lc  atparser.o [1]
at_send_raw_self_define_respone_formate_internal::__FUNCTION__
                        0x0801be58    0x34  Data  Lc  atparser.o [1]
at_set_mode             0x0800fc5f    0x32  Code  Lc  atparser.o [1]
at_set_recv_delimiter   0x0800f8df    0x3c  Code  Lc  atparser.o [1]
at_set_send_delimiter   0x0800f91b    0x14  Code  Lc  atparser.o [1]
at_set_timeout          0x0800f8d7     0x8  Code  Lc  atparser.o [1]
at_set_worker_priority  0x0800f8cf     0x8  Code  Lc  atparser.o [1]
at_set_worker_stack_size
                        0x0800f8c5     0xa  Code  Lc  atparser.o [1]
at_uart                 0x2000c7fc    0x14  Data  Lc  atparser.o [1]
at_uart_configure       0x0800f87b    0x20  Code  Lc  atparser.o [1]
at_uinit_at_mutex       0x0800f9cf    0x18  Code  Lc  atparser.o [1]
at_uinit_task_mutex     0x0800f973    0x18  Code  Lc  atparser.o [1]
at_worker               0x08010ae1   0x474  Code  Lc  atparser.o [1]
at_worker_priority      0x2000c884     0x4  Data  Lc  atparser.o [1]
at_worker_stacksize     0x200006d0     0x4  Data  Lc  atparser.o [1]
at_worker_task_add      0x0800ff35    0x60  Code  Lc  atparser.o [1]
at_worker_task_add::__func__
                        0x0801d9a0    0x14  Data  Lc  atparser.o [1]
at_worker_task_del      0x0800ff95    0x7a  Code  Lc  atparser.o [1]
at_worker_task_del::__func__
                        0x0801d9c8    0x14  Data  Lc  atparser.o [1]
at_worker_uart_send_mutex_init
                        0x0800f9e7    0x44  Code  Lc  atparser.o [1]
at_worker_uart_send_mutex_uinit
                        0x0800fa2b    0x18  Code  Lc  atparser.o [1]
at_write                0x0800fdf1    0x7a  Code  Lc  atparser.o [1]
atoi                    0x0800a5d1     0x2  Code  Gb  iar_Stoulx.o [3]
backtraceFindLROffset   0x080181cf    0x94  Code  Lc  panic_c.o [1]
backtraceFromLR         0x080183b5   0x112  Code  Gb  panic_c.o [1]
backtraceFromStack      0x08018263   0x152  Code  Gb  panic_c.o [1]
bmp280_ctx              0x200005e4    0x14  Data  Gb  drv_baro_bosch_bmp280.o [1]
board_cli_init          0x080079f9    0x34  Code  Gb  board_cli.o [1]
board_init              0x0801aaed     0xc  Code  Gb  board.o [1]
board_partition_init    0x0801a9b1   0x104  Code  Lc  board.o [1]
brd_gpio_table          0x20000214    0xd8  Data  Gb  soc_init.o [1]
brd_i2c2_dev            0x20000620    0x14  Data  Gb  soc_init.o [1]
brd_i2c3_dev            0x20000634    0x14  Data  Gb  soc_init.o [1]
brd_i2c4_dev            0x20000648    0x14  Data  Gb  soc_init.o [1]
brd_peri_init           0x0801a48d    0x2c  Code  Lc  soc_init.o [1]
buf_queue_create        0x08003ce3    0x96  Code  Lc  k_buf_queue.o [1]
buf_queue_send          0x08003e29    0xcc  Code  Lc  k_buf_queue.o [1]
built_ins               0x0801aea8    0x78  Data  Lc  cli.o [1]
calc_crc8               0x08011025    0x38  Code  Lc  kvmgr.o [1]
calloc                  0x080098b9    0x26  Code  Gb  iar_libc.o [1]
cli                     0x2000c88c     0x4  Data  Lc  cli.o [1]
cli_down_history        0x08005009    0xb0  Code  Lc  cli.o [1]
cli_getchar             0x08005a01    0x46  Code  Gb  cli.o [1]
cli_history_input       0x08004e27    0xfc  Code  Lc  cli.o [1]
cli_main                0x08005399    0x9c  Code  Lc  cli.o [1]
cli_putstr              0x080059c9    0x38  Code  Gb  cli.o [1]
cli_service_init        0x08019d55    0x1a  Code  Gb  aos_init.o [1]
cli_task                0x2000c894     0x4  Data  Lc  cli.o [1]
cli_up_history          0x08004f23    0xdc  Code  Lc  cli.o [1]
cliexit                 0x2000c890     0x4  Data  Lc  cli.o [1]
cmd_proc                0x08007343   0x118  Code  Lc  k_timer.o [1]
core_sched              0x08005edd    0x78  Code  Gb  k_sched.o [1]
cpu_cur_get             0x08017641     0x4  Code  Lc  dumpsys.o [1]
cpu_cur_get             0x08003cdf     0x4  Code  Lc  k_buf_queue.o [1]
cpu_cur_get             0x0801b595     0x4  Code  Lc  k_idle.o [1]
cpu_cur_get             0x080186e9     0x4  Code  Lc  k_infoget.o [1]
cpu_cur_get             0x0800358b     0x4  Code  Lc  k_mutex.o [1]
cpu_cur_get             0x0801992d     0x4  Code  Lc  k_panic.o [1]
cpu_cur_get             0x08005d8b     0x4  Code  Lc  k_sched.o [1]
cpu_cur_get             0x08003a4f     0x4  Code  Lc  k_sem.o [1]
cpu_cur_get             0x08006ee7     0x4  Code  Lc  k_stats.o [1]
cpu_cur_get             0x080047af     0x4  Code  Lc  k_sys.o [1]
cpu_cur_get             0x08002c7d     0x4  Code  Lc  k_task.o [1]
cpu_first_task_start    0x08005c3b          Code  Gb  port_s.o [1]
cpu_intrpt_restore      0x08005c25          Code  Gb  port_s.o [1]
cpu_intrpt_save         0x08005c1d          Code  Gb  port_s.o [1]
cpu_intrpt_switch       0x08005c33          Code  Gb  port_s.o [1]
cpu_task_stack_init     0x08005cc5    0x8c  Code  Gb  port_c.o [1]
cpu_task_switch         0x08005c2b          Code  Gb  port_s.o [1]
csp_printf              0x080020e9    0x3c  Code  Wk  log.o [1]
cur_acc_factor          0x2000c89c     0x4  Data  Lc  drv_acc_gyro_st_lsm6dsl.o [1]
cur_gyro_factor         0x2000c8a0     0x4  Data  Lc  drv_acc_gyro_st_lsm6dsl.o [1]
deinit_parg             0x0800dfa5     0xa  Code  Lc  select.o [1]
del_file                0x0800df21    0x10  Code  Gb  vfs_file.o [1]
demo_task_buf           0x20007ef0  0x1800  Data  Gb  aos.o [1]
demo_task_obj           0x2000bae8    0xa0  Data  Lc  aos.o [1]
devname_cmd             0x08005541    0x10  Code  Lc  cli.o [1]
digits                  0x0800a5e0    0x28  Data  Lc  iar_Stoulx.o [3]
dlist_add               0x0801969b     0xa  Code  Lc  device.o [1]
dlist_add_tail          0x080196a5     0xc  Code  Lc  device.o [1]
dlist_add_tail          0x0800a89b     0xc  Code  Lc  local_event.o [1]
dlist_add_tail          0x0800a7cf     0xc  Code  Lc  wifi.o [1]
dlist_add_tail          0x0800c6a3     0xc  Code  Lc  yloop.o [1]
dlist_del               0x080196b1     0xa  Code  Lc  device.o [1]
dlist_del               0x0800c6af     0xa  Code  Lc  yloop.o [1]
dlist_empty             0x080196c3    0x10  Code  Lc  device.o [1]
dlist_empty             0x0800a7db    0x10  Code  Lc  wifi.o [1]
dlist_empty             0x0800c6c1    0x10  Code  Lc  yloop.o [1]
dlist_init              0x080196bb     0x8  Code  Lc  device.o [1]
dlist_init              0x0800c6b9     0x8  Code  Lc  yloop.o [1]
drv_acc_gyro_st_lsm6dsl_soft_reset
                        0x08013559    0x4e  Code  Lc  drv_acc_gyro_st_lsm6dsl.o [1]
drv_acc_gyro_st_lsm6dsl_validate_id
                        0x080135a7    0x3e  Code  Lc  drv_acc_gyro_st_lsm6dsl.o [1]
drv_acc_st_lsm6dsl_close
                        0x08013809    0x1c  Code  Lc  drv_acc_gyro_st_lsm6dsl.o [1]
drv_acc_st_lsm6dsl_hz2odr
                        0x0801368d    0x64  Code  Lc  drv_acc_gyro_st_lsm6dsl.o [1]
drv_acc_st_lsm6dsl_init
                        0x080139cd   0x10e  Code  Gb  drv_acc_gyro_st_lsm6dsl.o [1]
drv_acc_st_lsm6dsl_init::__func__
                        0x0801d664    0x18  Data  Lc  drv_acc_gyro_st_lsm6dsl.o [1]
drv_acc_st_lsm6dsl_ioctl
                        0x08013961    0x6c  Code  Lc  drv_acc_gyro_st_lsm6dsl.o [1]
drv_acc_st_lsm6dsl_irq_handle
                        0x080137c3     0x2  Code  Lc  drv_acc_gyro_st_lsm6dsl.o [1]
drv_acc_st_lsm6dsl_open
                        0x080137c5    0x44  Code  Lc  drv_acc_gyro_st_lsm6dsl.o [1]
drv_acc_st_lsm6dsl_read
                        0x08013825   0x13c  Code  Lc  drv_acc_gyro_st_lsm6dsl.o [1]
drv_acc_st_lsm6dsl_set_odr
                        0x080136f1    0x54  Code  Lc  drv_acc_gyro_st_lsm6dsl.o [1]
drv_acc_st_lsm6dsl_set_power_mode
                        0x080135e5    0xa8  Code  Lc  drv_acc_gyro_st_lsm6dsl.o [1]
drv_acc_st_lsm6dsl_set_range
                        0x08013745    0x7e  Code  Lc  drv_acc_gyro_st_lsm6dsl.o [1]
drv_als_liteon_ltr553_close
                        0x08015395    0x4e  Code  Lc  drv_als_ps_liteon_ltr553.o [1]
drv_als_liteon_ltr553_close::__func__
                        0x0801d278    0x1c  Data  Lc  drv_als_ps_liteon_ltr553.o [1]
drv_als_liteon_ltr553_init
                        0x08015691    0xb4  Code  Gb  drv_als_ps_liteon_ltr553.o [1]
drv_als_liteon_ltr553_init::__func__
                        0x0801d304    0x1c  Data  Lc  drv_als_ps_liteon_ltr553.o [1]
drv_als_liteon_ltr553_ioctl
                        0x080154cf    0x68  Code  Lc  drv_als_ps_liteon_ltr553.o [1]
drv_als_liteon_ltr553_ioctl::__func__
                        0x0801d294    0x1c  Data  Lc  drv_als_ps_liteon_ltr553.o [1]
drv_als_liteon_ltr553_irq_handle
                        0x08015345     0x2  Code  Lc  drv_als_ps_liteon_ltr553.o [1]
drv_als_liteon_ltr553_open
                        0x08015347    0x4e  Code  Lc  drv_als_ps_liteon_ltr553.o [1]
drv_als_liteon_ltr553_open::__func__
                        0x0801d25c    0x1c  Data  Lc  drv_als_ps_liteon_ltr553.o [1]
drv_als_liteon_ltr553_read
                        0x080153e3    0xe8  Code  Lc  drv_als_ps_liteon_ltr553.o [1]
drv_als_liteon_ltr553_set_default_config
                        0x08015215    0x7a  Code  Lc  drv_als_ps_liteon_ltr553.o [1]
drv_als_liteon_ltr553_set_power_mode
                        0x08015129    0x76  Code  Lc  drv_als_ps_liteon_ltr553.o [1]
drv_als_liteon_ltr553_write
                        0x080154cb     0x4  Code  Lc  drv_als_ps_liteon_ltr553.o [1]
drv_als_ps_liteon_ltr553_validate_id
                        0x080150bd    0x6c  Code  Lc  drv_als_ps_liteon_ltr553.o [1]
drv_baro_bosch_bmp280_cali_temp
                        0x08014e15    0x48  Code  Lc  drv_baro_bosch_bmp280.o [1]
drv_baro_bosch_bmp280_close
                        0x08014eaf    0x3e  Code  Lc  drv_baro_bosch_bmp280.o [1]
drv_baro_bosch_bmp280_close::__func__
                        0x0801d358    0x1c  Data  Lc  drv_baro_bosch_bmp280.o [1]
drv_baro_bosch_bmp280_comp_temp
                        0x08014dbd    0x58  Code  Lc  drv_baro_bosch_bmp280.o [1]
drv_baro_bosch_bmp280_compensate_baro
                        0x08014ca5    0xfa  Code  Lc  drv_baro_bosch_bmp280.o [1]
drv_baro_bosch_bmp280_get_calib_param
                        0x08014961   0x118  Code  Lc  drv_baro_bosch_bmp280.o [1]
drv_baro_bosch_bmp280_hz2odr
                        0x08014bb9    0x24  Code  Lc  drv_baro_bosch_bmp280.o [1]
drv_baro_bosch_bmp280_init
                        0x08014fbd    0xb6  Code  Gb  drv_baro_bosch_bmp280.o [1]
drv_baro_bosch_bmp280_init::__func__
                        0x0801d390    0x1c  Data  Lc  drv_baro_bosch_bmp280.o [1]
drv_baro_bosch_bmp280_ioctl
                        0x08014f3d    0x80  Code  Lc  drv_baro_bosch_bmp280.o [1]
drv_baro_bosch_bmp280_ioctl::__func__
                        0x0801d374    0x1c  Data  Lc  drv_baro_bosch_bmp280.o [1]
drv_baro_bosch_bmp280_irq_handle
                        0x08014e5d     0x2  Code  Lc  drv_baro_bosch_bmp280.o [1]
drv_baro_bosch_bmp280_open
                        0x08014e5f    0x50  Code  Lc  drv_baro_bosch_bmp280.o [1]
drv_baro_bosch_bmp280_open::__func__
                        0x0801d33c    0x1c  Data  Lc  drv_baro_bosch_bmp280.o [1]
drv_baro_bosch_bmp280_read
                        0x08014eed    0x4c  Code  Lc  drv_baro_bosch_bmp280.o [1]
drv_baro_bosch_bmp280_read_baro
                        0x08014d9f    0x1e  Code  Lc  drv_baro_bosch_bmp280.o [1]
drv_baro_bosch_bmp280_read_uncomp_baro
                        0x08014c6b    0x3a  Code  Lc  drv_baro_bosch_bmp280.o [1]
drv_baro_bosch_bmp280_set_default_config
                        0x08014c49    0x22  Code  Lc  drv_baro_bosch_bmp280.o [1]
drv_baro_bosch_bmp280_set_odr
                        0x08014bdd    0x4c  Code  Lc  drv_baro_bosch_bmp280.o [1]
drv_baro_bosch_bmp280_set_power_mode
                        0x08014b55    0x64  Code  Lc  drv_baro_bosch_bmp280.o [1]
drv_baro_bosch_bmp280_set_work_mode
                        0x08014ab7    0x9e  Code  Lc  drv_baro_bosch_bmp280.o [1]
drv_baro_bosch_bmp280_soft_reset
                        0x08014c29    0x20  Code  Lc  drv_baro_bosch_bmp280.o [1]
drv_baro_bosch_bmp280_validate_id
                        0x08014a79    0x3e  Code  Lc  drv_baro_bosch_bmp280.o [1]
drv_baro_bosch_bmp280_write
                        0x08014f39     0x4  Code  Lc  drv_baro_bosch_bmp280.o [1]
drv_gyro_st_lsm6dsl_close
                        0x08013cf5    0x1a  Code  Lc  drv_acc_gyro_st_lsm6dsl.o [1]
drv_gyro_st_lsm6dsl_hz2odr
                        0x08013b83    0x5c  Code  Lc  drv_acc_gyro_st_lsm6dsl.o [1]
drv_gyro_st_lsm6dsl_init
                        0x08013e9d    0xdc  Code  Gb  drv_acc_gyro_st_lsm6dsl.o [1]
drv_gyro_st_lsm6dsl_init::__func__
                        0x0801d240    0x1c  Data  Lc  drv_acc_gyro_st_lsm6dsl.o [1]
drv_gyro_st_lsm6dsl_ioctl
                        0x08013e37    0x66  Code  Lc  drv_acc_gyro_st_lsm6dsl.o [1]
drv_gyro_st_lsm6dsl_irq_handle
                        0x08013cb5     0x2  Code  Lc  drv_acc_gyro_st_lsm6dsl.o [1]
drv_gyro_st_lsm6dsl_open
                        0x08013cb7    0x3e  Code  Lc  drv_acc_gyro_st_lsm6dsl.o [1]
drv_gyro_st_lsm6dsl_read
                        0x08013d15   0x122  Code  Lc  drv_acc_gyro_st_lsm6dsl.o [1]
drv_gyro_st_lsm6dsl_set_odr
                        0x08013bdf    0x54  Code  Lc  drv_acc_gyro_st_lsm6dsl.o [1]
drv_gyro_st_lsm6dsl_set_power_mode
                        0x08013adb    0xa8  Code  Lc  drv_acc_gyro_st_lsm6dsl.o [1]
drv_gyro_st_lsm6dsl_set_range
                        0x08013c33    0x82  Code  Lc  drv_acc_gyro_st_lsm6dsl.o [1]
drv_humi_sensirion_shtc1_close
                        0x08015b3b    0x2a  Code  Lc  drv_temp_humi_sensirion_shtc1.o [1]
drv_humi_sensirion_shtc1_close::__func__
                        0x0801ce44    0x20  Data  Lc  drv_temp_humi_sensirion_shtc1.o [1]
drv_humi_sensirion_shtc1_init
                        0x08015c91    0xa4  Code  Gb  drv_temp_humi_sensirion_shtc1.o [1]
drv_humi_sensirion_shtc1_init::__func__
                        0x0801cea4    0x20  Data  Lc  drv_temp_humi_sensirion_shtc1.o [1]
drv_humi_sensirion_shtc1_ioctl
                        0x08015bad    0x3c  Code  Lc  drv_temp_humi_sensirion_shtc1.o [1]
drv_humi_sensirion_shtc1_ioctl::__func__
                        0x0801ce64    0x20  Data  Lc  drv_temp_humi_sensirion_shtc1.o [1]
drv_humi_sensirion_shtc1_irq_handle
                        0x08015b0f     0x2  Code  Lc  drv_temp_humi_sensirion_shtc1.o [1]
drv_humi_sensirion_shtc1_open
                        0x08015b11    0x2a  Code  Lc  drv_temp_humi_sensirion_shtc1.o [1]
drv_humi_sensirion_shtc1_open::__func__
                        0x0801ce24    0x20  Data  Lc  drv_temp_humi_sensirion_shtc1.o [1]
drv_humi_sensirion_shtc1_read
                        0x08015b65    0x44  Code  Lc  drv_temp_humi_sensirion_shtc1.o [1]
drv_humi_sensirion_shtc1_write
                        0x08015ba9     0x4  Code  Lc  drv_temp_humi_sensirion_shtc1.o [1]
drv_mag_memsic_mmc3680kj_close
                        0x080161d3    0x38  Code  Lc  drv_mag_temp_memsic_mmc3680kj.o [1]
drv_mag_memsic_mmc3680kj_close::__func__
                        0x0801cd64    0x20  Data  Lc  drv_mag_temp_memsic_mmc3680kj.o [1]
drv_mag_memsic_mmc3680kj_init
                        0x08016373    0xe4  Code  Gb  drv_mag_temp_memsic_mmc3680kj.o [1]
drv_mag_memsic_mmc3680kj_init::__func__
                        0x0801cda4    0x20  Data  Lc  drv_mag_temp_memsic_mmc3680kj.o [1]
drv_mag_memsic_mmc3680kj_ioctl
                        0x08016335    0x3e  Code  Lc  drv_mag_temp_memsic_mmc3680kj.o [1]
drv_mag_memsic_mmc3680kj_ioctl::__func__
                        0x0801cd84    0x20  Data  Lc  drv_mag_temp_memsic_mmc3680kj.o [1]
drv_mag_memsic_mmc3680kj_irq_handle
                        0x0801618b     0x2  Code  Lc  drv_mag_temp_memsic_mmc3680kj.o [1]
drv_mag_memsic_mmc3680kj_open
                        0x0801618d    0x46  Code  Lc  drv_mag_temp_memsic_mmc3680kj.o [1]
drv_mag_memsic_mmc3680kj_open::__func__
                        0x0801cd44    0x20  Data  Lc  drv_mag_temp_memsic_mmc3680kj.o [1]
drv_mag_memsic_mmc3680kj_read
                        0x0801620b   0x126  Code  Lc  drv_mag_temp_memsic_mmc3680kj.o [1]
drv_mag_memsic_mmc3680kj_write
                        0x08016331     0x4  Code  Lc  drv_mag_temp_memsic_mmc3680kj.o [1]
drv_ps_liteon_ltr553_close
                        0x08015577    0x3e  Code  Lc  drv_als_ps_liteon_ltr553.o [1]
drv_ps_liteon_ltr553_close::__func__
                        0x0801d2cc    0x1c  Data  Lc  drv_als_ps_liteon_ltr553.o [1]
drv_ps_liteon_ltr553_init
                        0x08015745    0xb4  Code  Gb  drv_als_ps_liteon_ltr553.o [1]
drv_ps_liteon_ltr553_init::__func__
                        0x0801d320    0x1c  Data  Lc  drv_als_ps_liteon_ltr553.o [1]
drv_ps_liteon_ltr553_ioctl
                        0x08015635    0x56  Code  Lc  drv_als_ps_liteon_ltr553.o [1]
drv_ps_liteon_ltr553_ioctl::__func__
                        0x0801d2e8    0x1c  Data  Lc  drv_als_ps_liteon_ltr553.o [1]
drv_ps_liteon_ltr553_irq_handle
                        0x08015537     0x2  Code  Lc  drv_als_ps_liteon_ltr553.o [1]
drv_ps_liteon_ltr553_open
                        0x08015539    0x3e  Code  Lc  drv_als_ps_liteon_ltr553.o [1]
drv_ps_liteon_ltr553_open::__func__
                        0x0801d2b0    0x1c  Data  Lc  drv_als_ps_liteon_ltr553.o [1]
drv_ps_liteon_ltr553_read
                        0x080155b5    0x76  Code  Lc  drv_als_ps_liteon_ltr553.o [1]
drv_ps_liteon_ltr553_set_default_config
                        0x0801528f    0xb6  Code  Lc  drv_als_ps_liteon_ltr553.o [1]
drv_ps_liteon_ltr553_set_power_mode
                        0x0801519f    0x76  Code  Lc  drv_als_ps_liteon_ltr553.o [1]
drv_ps_liteon_ltr553_write
                        0x08015631     0x4  Code  Lc  drv_als_ps_liteon_ltr553.o [1]
drv_shtc1_cmd_write     0x0801586d    0x28  Code  Lc  drv_temp_humi_sensirion_shtc1.o [1]
drv_shtc1_read_raw_data
                        0x080158bb    0x76  Code  Lc  drv_temp_humi_sensirion_shtc1.o [1]
drv_shtc1_read_temp_and_humi
                        0x08015931    0x6c  Code  Lc  drv_temp_humi_sensirion_shtc1.o [1]
drv_shtc1_result_read   0x08015895    0x26  Code  Lc  drv_temp_humi_sensirion_shtc1.o [1]
drv_shtc1_update_data   0x0801599d    0x36  Code  Lc  drv_temp_humi_sensirion_shtc1.o [1]
drv_shtc1_update_data::prev_update_tick
                        0x2000c8a8     0x4  Data  Lc  drv_temp_humi_sensirion_shtc1.o [1]
drv_temp_humi_sensirion_shtc1_validate_id
                        0x080159d3    0x4c  Code  Lc  drv_temp_humi_sensirion_shtc1.o [1]
drv_temp_sensirion_shtc1_close
                        0x08015a59    0x32  Code  Lc  drv_temp_humi_sensirion_shtc1.o [1]
drv_temp_sensirion_shtc1_close::__func__
                        0x0801cde4    0x20  Data  Lc  drv_temp_humi_sensirion_shtc1.o [1]
drv_temp_sensirion_shtc1_init
                        0x08015be9    0xa4  Code  Gb  drv_temp_humi_sensirion_shtc1.o [1]
drv_temp_sensirion_shtc1_init::__func__
                        0x0801ce84    0x20  Data  Lc  drv_temp_humi_sensirion_shtc1.o [1]
drv_temp_sensirion_shtc1_ioctl
                        0x08015ad3    0x3c  Code  Lc  drv_temp_humi_sensirion_shtc1.o [1]
drv_temp_sensirion_shtc1_ioctl::__func__
                        0x0801ce04    0x20  Data  Lc  drv_temp_humi_sensirion_shtc1.o [1]
drv_temp_sensirion_shtc1_irq_handle
                        0x08015a1f     0x2  Code  Lc  drv_temp_humi_sensirion_shtc1.o [1]
drv_temp_sensirion_shtc1_open
                        0x08015a21    0x38  Code  Lc  drv_temp_humi_sensirion_shtc1.o [1]
drv_temp_sensirion_shtc1_open::__func__
                        0x0801cdc4    0x20  Data  Lc  drv_temp_humi_sensirion_shtc1.o [1]
drv_temp_sensirion_shtc1_read
                        0x08015a8b    0x44  Code  Lc  drv_temp_humi_sensirion_shtc1.o [1]
drv_temp_sensirion_shtc1_write
                        0x08015acf     0x4  Code  Lc  drv_temp_humi_sensirion_shtc1.o [1]
dump_kmm_free_map       0x08006d0d    0x36  Code  Gb  k_mm_debug.o [1]
dump_kmm_map            0x08006d43    0x4a  Code  Gb  k_mm_debug.o [1]
dump_kmm_statistic_info
                        0x08006d8d    0x86  Code  Gb  k_mm_debug.o [1]
dump_task_stack         0x080179e5    0xd2  Code  Gb  dumpsys.o [1]
dump_task_stack_byname  0x08017ab7    0x52  Code  Gb  dumpsys.o [1]
dumpsys_cli_cmd         0x2000057c    0x18  Data  Gb  dumpsys.o [1]
dumpsys_cli_init        0x08017b1f     0xc  Code  Gb  dumpsys.o [1]
dumpsys_cmd             0x08017b17     0x8  Code  Lc  dumpsys.o [1]
dumpsys_func            0x080178f1    0xf4  Code  Gb  dumpsys.o [1]
dumpsys_info_func       0x08017871    0x80  Code  Lc  dumpsys.o [1]
dumpsys_mm_info_func    0x08006e13    0x60  Code  Gb  k_mm_debug.o [1]
dumpsys_task_func       0x08017645   0x22c  Code  Gb  dumpsys.o [1]
dyn_mem_proc_task       0x08006fb3    0x74  Code  Gb  k_dyn_mem_proc.o [1]
dyn_mem_proc_task_start
                        0x08007027    0x2e  Code  Gb  k_dyn_mem_proc.o [1]
ebuf                    0x2000c1d0    0x50  Data  Lc  xfiles.o [3]
echo_cmd                0x080054d5    0x62  Code  Lc  cli.o [1]
err_to_errno            0x08002c2d    0x24  Code  Gb  sal_err.o [1]
err_to_errno_table      0x0801b550    0x44  Data  Lc  sal_err.o [1]
errno                   0x2000c8ac     0x4  Data  Gb  iar_libc.o [1]
esc_tag                 0x2000c59c    0x40  Data  Gb  cli.o [1]
esc_tag_len             0x2000c919     0x1  Data  Lc  cli.o [1]
event_close             0x08019705    0x4c  Code  Lc  device.o [1]
event_fops              0x0801d64c    0x18  Data  Lc  device.o [1]
event_ioctl             0x08019815    0x30  Code  Lc  device.o [1]
event_open              0x080196d3    0x32  Code  Lc  device.o [1]
event_poll              0x080198ad    0x4c  Code  Lc  device.o [1]
event_read              0x08019845    0x68  Code  Lc  device.o [1]
event_read_cb           0x0800a8e5    0x18  Code  Lc  local_event.o [1]
event_write             0x0801980b     0xa  Code  Lc  device.o [1]
events                  0x2000bf70    0x78  Data  Lc  sal_sockets.o [1]
exit                    0x0801d0a7     0x4  Code  Gb  exit.o [3]
exit_cmd                0x08005537     0xa  Code  Lc  cli.o [1]
fd_to_linkid            0x08002629    0x6e  Code  Lc  bk7231.o [1]
fd_to_linkid::__func__  0x0801dc60    0x10  Data  Lc  bk7231.o [1]
fflush                  0x08005b3d    0x34  Code  Gb  fflush.o [3]
fflushOne               0x08005ac9    0x74  Code  Lc  fflush.o [3]
files                   0x2000aec0   0x258  Data  Lc  vfs_file.o [1]
find_selected_sensor    0x08014149    0x46  Code  Lc  sensor_hal.o [1]
find_up_level           0x08004453    0x28  Code  Lc  k_mm.o [1]
fota_event_handler      0x08007965    0x40  Code  Gb  board_cli.o [1]
fota_status             0x2000c830     0x8  Data  Lc  board_cli.o [1]
fputc                   0x0801a4cd    0x28  Code  Gb  soc_init.o [1]
free                    0x080098df     0x8  Code  Gb  iar_libc.o [1]
free_socket             0x08001879    0x1e  Code  Lc  sal_sockets.o [1]
gGpioSlop               0x20000114   0x100  Data  Lc  hal_gpio_stm32l4.o [1]
g_active_task           0x2000c8c0     0x4  Data  Gb  k_obj.o [1]
g_bmp280_calib_table    0x2000c7e0    0x1c  Data  Lc  drv_baro_bosch_bmp280.o [1]
g_crash_steps           0x2000c8c8     0x4  Data  Gb  k_panic.o [1]
g_data_new              0x2000c840     0x8  Data  Gb  drv_temp_humi_sensirion_shtc1.o [1]
g_dyn_task              0x2000bcc8    0xa0  Data  Gb  k_obj.o [1]
g_dyn_task_stack        0x2000a7a0   0x400  Data  Gb  k_obj.o [1]
g_err_proc              0x200006e4     0x4  Data  Gb  soc_impl.o [1]
g_heap_buf              0x200006f0  0x7800  Data  Gb  soc_impl.o [1]
g_idle_count            0x2000c848     0x8  Data  Gb  k_obj.o [1]
g_idle_task             0x2000bb88    0xa0  Data  Gb  k_obj.o [1]
g_idle_task_spawned     0x2000c91d     0x1  Data  Gb  k_obj.o [1]
g_idle_task_stack       0x2000aba0   0x320  Data  Gb  k_obj.o [1]
g_init_bitwise          0x2000c91a     0x1  Data  Lc  drv_als_ps_liteon_ltr553.o [1]
g_init_bitwise          0x2000c91b     0x1  Data  Lc  drv_mag_temp_memsic_mmc3680kj.o [1]
g_init_bitwise          0x2000c91c     0x1  Data  Lc  drv_temp_humi_sensirion_shtc1.o [1]
g_intrpt_nested_level   0x2000c91f     0x1  Data  Gb  k_obj.o [1]
g_is_blocking_io        0x200006d4     0x4  Data  Lc  drv_temp_humi_sensirion_shtc1.o [1]
g_is_high_precision     0x200006d8     0x4  Data  Lc  drv_temp_humi_sensirion_shtc1.o [1]
g_kmm_head              0x2000c8c4     0x4  Data  Gb  k_obj.o [1]
g_kobj_list             0x2000c718    0x38  Data  Gb  k_obj.o [1]
g_kv_mgr                0x2000c11c    0x5c  Data  Lc  kvmgr.o [1]
g_link                  0x2000c6dc    0x3c  Data  Lc  bk7231.o [1]
g_link_mutex            0x2000c888     0x4  Data  Lc  bk7231.o [1]
g_local_event_list      0x200006ac     0x8  Data  Lc  local_event.o [1]
g_loop_key              0x2000c908     0x4  Data  Lc  yloop.o [1]
g_lsm6dslflag           0x2000c8a4     0x4  Data  Lc  drv_acc_gyro_st_lsm6dsl.o [1]
g_main_ctx              0x2000c904     0x4  Data  Gb  yloop.o [1]
g_mm_region             0x200006b4     0x8  Data  Gb  soc_impl.o [1]
g_otp_matrix            0x20000674     0xc  Data  Lc  drv_mag_temp_memsic_mmc3680kj.o [1]
g_preferred_ready_task  0x2000c8bc     0x4  Data  Gb  k_obj.o [1]
g_ready_queue           0x2000b804   0x104  Data  Gb  k_obj.o [1]
g_region_num            0x200006e0     0x4  Data  Gb  soc_impl.o [1]
g_res_list              0x2000c870     0x8  Data  Gb  k_obj.o [1]
g_res_sem               0x2000c79c    0x24  Data  Gb  k_obj.o [1]
g_sched_lock            0x2000c91e     0x1  Data  Gb  k_obj.o [1]
g_sensor_cnt            0x2000c8fc     0x4  Data  Lc  sensor_hal.o [1]
g_sensor_irq_cb         0x2000c8f8     0x4  Data  Lc  sensor_hal.o [1]
g_sensor_obj            0x2000bef4    0x7c  Data  Lc  sensor_hal.o [1]
g_sys_stat              0x2000c914     0x2  Data  Gb  k_obj.o [1]
g_tick_count            0x2000c850     0x8  Data  Gb  k_obj.o [1]
g_tick_head             0x2000c858     0x8  Data  Gb  k_obj.o [1]
g_timer_count           0x2000c868     0x8  Data  Gb  k_obj.o [1]
g_timer_head            0x2000c860     0x8  Data  Gb  k_obj.o [1]
g_timer_queue           0x2000c3a0    0x4c  Data  Gb  k_obj.o [1]
g_timer_task            0x2000bc28    0xa0  Data  Gb  k_obj.o [1]
g_timer_task_stack      0x2000a2f0   0x4b0  Data  Gb  k_obj.o [1]
g_vfs_dev_nodes         0x2000b118   0x1f4  Data  Lc  vfs_inode.o [1]
g_vfs_init              0x2000c921     0x1  Data  Lc  vfs.o [1]
g_vfs_mutex             0x2000c750    0x28  Data  Gb  vfs.o [1]
g_wifi_module           0x200006bc     0x8  Data  Lc  wifi.o [1]
g_workqueue_default     0x2000ba08    0xe0  Data  Gb  k_obj.o [1]
g_workqueue_list_head   0x2000c878     0x8  Data  Gb  k_obj.o [1]
g_workqueue_stack       0x200096f0   0xc00  Data  Gb  k_obj.o [1]
get_context             0x0800c6f7    0x1e  Code  Lc  yloop.o [1]
get_fd                  0x0800df31    0x10  Code  Gb  vfs_file.o [1]
get_file                0x0800df41    0x26  Code  Gb  vfs_file.o [1]
get_gpio_group          0x0800f6d9    0x6e  Code  Lc  hal_gpio_stm32l4.o [1]
get_gpio_pin            0x0800f779    0x16  Code  Lc  hal_gpio_stm32l4.o [1]
get_input               0x080050bd   0x2c4  Code  Lc  cli.o [1]
get_ip_stat             0x08018b99     0xc  Code  Lc  wifi_atcmd_bk7231.o [1]
get_ip_stat_helper      0x08018a55    0xdc  Code  Lc  wifi_atcmd_bk7231.o [1]
get_link_stat           0x08018ba5     0x4  Code  Lc  wifi_atcmd_bk7231.o [1]
get_mac_helper          0x08018959    0xfc  Code  Lc  wifi_atcmd_bk7231.o [1]
get_priv                0x080146cd    0x2a  Code  Lc  hal_i2c_stm32l4.o [1]
get_socket              0x080004a3    0x30  Code  Lc  sal_sockets.o [1]
gpio_get_int_num        0x0800f541    0x74  Code  Gb  hal_gpio_stm32l4.o [1]
gpio_has_priv           0x0800f5b5    0x74  Code  Gb  hal_gpio_stm32l4.o [1]
gpio_irq_mode_init      0x0800f78f    0x3a  Code  Lc  hal_gpio_stm32l4.o [1]
gpio_para_transform     0x0800f629    0xb0  Code  Lc  hal_gpio_stm32l4.o [1]
gpio_reset              0x2000c920     0x1  Data  Lc  soc_init.o [1]
gpio_set                0x200006ed     0x1  Data  Lc  soc_init.o [1]
gpio_slop_get           0x0800f1e5    0x2a  Code  Lc  hal_gpio_stm32l4.o [1]
gpio_slop_irq           0x0800f20f    0x4e  Code  Lc  hal_gpio_stm32l4.o [1]
hadc3                   0x2000bfe8    0x6c  Data  Gb  adc.o [1]
hal_flash_erase         0x080122eb    0x8a  Code  Gb  hal_flash_stm32l4.o [1]
hal_flash_get_info      0x080121db     0xe  Code  Gb  hal_flash_stm32l4.o [1]
hal_flash_read          0x0801225f    0x8c  Code  Gb  hal_flash_stm32l4.o [1]
hal_flash_write         0x080121e9    0x76  Code  Gb  hal_flash_stm32l4.o [1]
hal_gpio_enable_irq     0x0800f7c9    0x5a  Code  Gb  hal_gpio_stm32l4.o [1]
hal_gpio_init           0x0800f321   0x1ac  Code  Gb  hal_gpio_stm32l4.o [1]
hal_gpio_output_high    0x0800f4cd    0x3a  Code  Gb  hal_gpio_stm32l4.o [1]
hal_gpio_output_low     0x0800f507    0x3a  Code  Gb  hal_gpio_stm32l4.o [1]
hal_i2c_init            0x0801466d    0x60  Code  Gb  hal_i2c_stm32l4.o [1]
hal_i2c_master_recv     0x0801472b    0x34  Code  Gb  hal_i2c_stm32l4.o [1]
hal_i2c_master_send     0x080146f7    0x34  Code  Gb  hal_i2c_stm32l4.o [1]
hal_i2c_mem_read        0x080147a7    0x48  Code  Gb  hal_i2c_stm32l4.o [1]
hal_i2c_mem_write       0x0801475f    0x48  Code  Gb  hal_i2c_stm32l4.o [1]
hal_partitions          0x2000b6d8   0x12c  Data  Gb  board.o [1]
hal_reboot              0x080076c1     0x8  Code  Gb  hw.o [1]
hal_uart_init           0x08007cb5   0x278  Code  Gb  hal_uart_stm32l4.o [1]
hal_uart_recv_II        0x08008133    0xb4  Code  Gb  hal_uart_stm32l4.o [1]
hal_uart_send           0x08007fcb    0x7c  Code  Gb  hal_uart_stm32l4.o [1]
hal_wifi_cli_init       0x08019d2d     0xc  Code  Gb  aos_init.o [1]
hal_wifi_get_default_module
                        0x0800a7eb    0x18  Code  Gb  wifi.o [1]
hal_wifi_get_mac_addr   0x0800a82d    0x26  Code  Gb  wifi.o [1]
hal_wifi_init           0x0800a80d    0x1c  Code  Gb  wifi.o [1]
hal_wifi_register_module
                        0x0800a803     0xa  Code  Gb  wifi.o [1]
hal_wifi_set_mac_addr   0x0800a853    0x26  Code  Gb  wifi.o [1]
hal_wifi_start_debug_mode
                        0x0800a879    0x16  Code  Gb  wifi.o [1]
handle_events           0x0800a8a7    0x3e  Code  Lc  local_event.o [1]
handle_input            0x08004a8d   0x27e  Code  Lc  cli.o [1]
handle_input::argvall   0x2000b908   0x100  Data  Lc  cli.o [1]
handle_kv_cmd           0x08011c55   0x15c  Code  Lc  kvmgr.o [1]
handle_module_fota_cmd  0x080078bb    0xaa  Code  Lc  board_cli.o [1]
hcrc                    0x2000c778    0x24  Data  Gb  crc.o [1]
hdcmi                   0x2000c178    0x58  Data  Gb  dcmi.o [1]
hdma_dcmi               0x2000c3ec    0x48  Data  Gb  dcmi.o [1]
hdma_sai2_a             0x2000c434    0x48  Data  Gb  sai.o [1]
hdma_usart2_rx          0x2000c47c    0x48  Data  Gb  usart.o [1]
hdma_usart2_tx          0x2000c4c4    0x48  Data  Gb  usart.o [1]
hdma_usart3_rx          0x2000c50c    0x48  Data  Gb  usart.o [1]
hdma_usart3_tx          0x2000c554    0x48  Data  Gb  usart.o [1]
heap2_end {Abs}         0x10007fff          Data  Gb  command line/config [2]
heap2_len {Abs}         0x00008000          Data  Gb  command line/config [2]
heap2_start {Abs}       0x10000000          Data  Gb  command line/config [2]
heap_end {Abs}          0x2001efff          Data  Gb  command line/config [2]
heap_len {Abs}          0x00010c00          Data  Gb  command line/config [2]
heap_start {Abs}        0x2000e400          Data  Gb  command line/config [2]
help_cmd                0x08005435    0x88  Code  Lc  cli.o [1]
hex                     0x08019c45    0x34  Code  Lc  aos_init.o [1]
hexstr2bin              0x08019c79    0x38  Code  Lc  aos_init.o [1]
hsai_BlockA2            0x2000bdec    0x84  Data  Gb  sai.o [1]
hspi1                   0x2000c0b8    0x64  Data  Gb  spi.o [1]
htim1                   0x2000c61c    0x40  Data  Gb  tim.o [1]
htim16                  0x2000c65c    0x40  Data  Gb  tim.o [1]
htim17                  0x2000c69c    0x40  Data  Gb  tim.o [1]
hw_start_hal            0x080076c9    0x14  Code  Gb  hw.o [1]
idle_task               0x0801b599    0x3a  Code  Gb  k_idle.o [1]
init_mm_region          0x08004111    0x4e  Code  Lc  k_mm.o [1]
init_parg               0x0800df89    0x1c  Code  Lc  select.o [1]
inited                  0x2000c918     0x1  Data  Lc  atparser.o [1]
inited                  0x2000c898     0x4  Data  Lc  device.o [1]
inode_alloc             0x0800dda9    0x22  Code  Gb  vfs_inode.o [1]
inode_init              0x0800dd95    0x14  Code  Gb  vfs_inode.o [1]
inode_open              0x0800ddcb    0x62  Code  Gb  vfs_inode.o [1]
inode_ptr_get           0x0800de2d    0x1a  Code  Gb  vfs_inode.o [1]
inode_ref               0x0800de47     0x8  Code  Gb  vfs_inode.o [1]
inode_reserve           0x0800de9b    0x50  Code  Gb  vfs_inode.o [1]
inode_set_name          0x0800de61    0x3a  Code  Lc  vfs_inode.o [1]
inode_unref             0x0800de4f     0xe  Code  Gb  vfs_inode.o [1]
ip4_sockaddr_to_ipstr_port
                        0x08002aab    0x48  Code  Gb  ip4_addr.o [1]
ip4addr_aton            0x080028cb   0x1ca  Code  Gb  ip4_addr.o [1]
ipaddr_addr             0x08002a95    0x16  Code  Gb  ip4_addr.o [1]
ipstr_to_u32            0x08002b09    0x7a  Code  Gb  ip4_addr.o [1]
is_klist_empty          0x08003cb3    0x10  Code  Lc  k_buf_queue.o [1]
is_klist_empty          0x08006f95    0x10  Code  Lc  k_dyn_mem_proc.o [1]
is_klist_empty          0x0800355f    0x10  Code  Lc  k_mutex.o [1]
is_klist_empty          0x08017c85    0x10  Code  Lc  k_overview.o [1]
is_klist_empty          0x08003a23    0x10  Code  Lc  k_sem.o [1]
is_klist_empty          0x08002c51    0x10  Code  Lc  k_task.o [1]
is_klist_empty          0x0800724b    0x10  Code  Lc  k_timer.o [1]
is_ready_list_empty     0x08005fb1    0x16  Code  Lc  k_sched.o [1]
isspace                 0x0800a49f    0x14  Code  Gb  isspace.o [3]
k_err_proc_debug        0x08006605    0x18  Code  Gb  k_err.o [1]
k_int2str               0x08017c95    0x7a  Code  Gb  k_overview.o [1]
k_mm_alloc              0x0800447b   0x12a  Code  Gb  k_mm.o [1]
k_mm_free               0x080045a5   0x164  Code  Gb  k_mm.o [1]
k_mm_freelist_delete    0x080043ef    0x64  Code  Lc  k_mm.o [1]
k_mm_freelist_insert    0x080043a5    0x4a  Code  Lc  k_mm.o [1]
k_mm_init               0x080040cb    0x46  Code  Gb  k_mm.o [1]
k_mm_smallblk_alloc     0x08004347    0x2c  Code  Lc  k_mm.o [1]
k_mm_smallblk_free      0x08004373    0x32  Code  Lc  k_mm.o [1]
kinit                   0x2000c824     0xc  Data  Lc  aos.o [1]
klist_init              0x08003cad     0x6  Code  Lc  k_buf_queue.o [1]
klist_init              0x08003559     0x6  Code  Lc  k_mutex.o [1]
klist_init              0x08005d69     0x6  Code  Lc  k_sched.o [1]
klist_init              0x08003a1d     0x6  Code  Lc  k_sem.o [1]
klist_init              0x08006ee1     0x6  Code  Lc  k_stats.o [1]
klist_init              0x080047a9     0x6  Code  Lc  k_sys.o [1]
klist_init              0x080061b5     0x6  Code  Lc  k_tick.o [1]
klist_init              0x08007245     0x6  Code  Lc  k_timer.o [1]
klist_init              0x08007071     0x6  Code  Lc  k_workqueue.o [1]
klist_insert            0x08003cc3     0xe  Code  Lc  k_buf_queue.o [1]
klist_insert            0x08006b05     0xe  Code  Lc  k_mm_blk.o [1]
klist_insert            0x0800356f     0xe  Code  Lc  k_mutex.o [1]
klist_insert            0x08006371     0xe  Code  Lc  k_pend.o [1]
klist_insert            0x08005d6f     0xe  Code  Lc  k_sched.o [1]
klist_insert            0x08003a33     0xe  Code  Lc  k_sem.o [1]
klist_insert            0x08002c61     0xe  Code  Lc  k_task.o [1]
klist_insert            0x080061bb     0xe  Code  Lc  k_tick.o [1]
klist_insert            0x0800725b     0xe  Code  Lc  k_timer.o [1]
klist_insert            0x08007077     0xe  Code  Lc  k_workqueue.o [1]
klist_rm                0x08003cd1     0xe  Code  Lc  k_buf_queue.o [1]
klist_rm                0x08006fa5     0xe  Code  Lc  k_dyn_mem_proc.o [1]
klist_rm                0x0800357d     0xe  Code  Lc  k_mutex.o [1]
klist_rm                0x0800637f     0xe  Code  Lc  k_pend.o [1]
klist_rm                0x08005d7d     0xe  Code  Lc  k_sched.o [1]
klist_rm                0x08003a41     0xe  Code  Lc  k_sem.o [1]
klist_rm                0x08002c6f     0xe  Code  Lc  k_task.o [1]
klist_rm                0x080061c9     0xe  Code  Lc  k_tick.o [1]
klist_rm                0x08007269     0xe  Code  Lc  k_timer.o [1]
klist_rm_init           0x08007085    0x14  Code  Lc  k_workqueue.o [1]
kobj_list_init          0x08006eeb    0x2e  Code  Gb  k_stats.o [1]
krhino_add_mm_region    0x080042bf    0x88  Code  Gb  k_mm.o [1]
krhino_bitmap_clear     0x08005db1    0x22  Code  Lc  k_sched.o [1]
krhino_bitmap_set       0x08005d8f    0x22  Code  Lc  k_sched.o [1]
krhino_buf_queue_create
                        0x08003d79    0x14  Code  Gb  k_buf_queue.o [1]
krhino_buf_queue_del    0x08003da3    0x86  Code  Gb  k_buf_queue.o [1]
krhino_buf_queue_overview
                        0x08017f0f    0xca  Code  Gb  k_overview.o [1]
krhino_buf_queue_recv   0x08003f0d   0x132  Code  Gb  k_buf_queue.o [1]
krhino_buf_queue_send   0x08003ef5    0x18  Code  Gb  k_buf_queue.o [1]
krhino_clz32            0x08004051    0x40  Code  Lc  k_mm.o [1]
krhino_ctz32            0x08004091    0x3a  Code  Lc  k_mm.o [1]
krhino_cur_task_get     0x08003025    0x1e  Code  Gb  k_task.o [1]
krhino_find_first_bit   0x08005dd3    0x46  Code  Lc  k_sched.o [1]
krhino_fix_buf_queue_create
                        0x08003d8d    0x16  Code  Gb  k_buf_queue.o [1]
krhino_idle_hook        0x08005d51     0x2  Code  Gb  hook_impl.o [1]
krhino_idle_pre_hook    0x08005d67     0x2  Code  Gb  hook_impl.o [1]
krhino_init             0x080047b5    0x6a  Code  Gb  k_sys.o [1]
krhino_init_hook        0x08005d53     0x2  Code  Gb  hook_impl.o [1]
krhino_init_mm_head     0x080041e1    0xde  Code  Gb  k_mm.o [1]
krhino_intrpt_enter     0x08004851    0x24  Code  Gb  k_sys.o [1]
krhino_intrpt_exit      0x08004875    0x72  Code  Gb  k_sys.o [1]
krhino_mblk_alloc       0x08006bb1    0x4e  Code  Gb  k_mm_blk.o [1]
krhino_mblk_free        0x08006bff    0x3a  Code  Gb  k_mm_blk.o [1]
krhino_mblk_pool_init   0x08006b13    0x9a  Code  Gb  k_mm_blk.o [1]
krhino_mm_alloc         0x08004709    0x60  Code  Gb  k_mm.o [1]
krhino_mm_alloc_hook    0x08005d65     0x2  Code  Gb  hook_impl.o [1]
krhino_mm_alloc{2}{3}::dumped
                        0x2000c8b8     0x4  Data  Lc  k_mm.o [1]
krhino_mm_free          0x08004769     0xe  Code  Gb  k_mm.o [1]
krhino_mm_overview      0x08017d0f    0xec  Code  Gb  k_overview.o [1]
krhino_ms_to_ticks      0x080039bf    0x5c  Code  Gb  k_time.o [1]
krhino_mutex_create     0x080035df     0xa  Code  Gb  k_mutex.o [1]
krhino_mutex_del        0x0800360b    0x94  Code  Gb  k_mutex.o [1]
krhino_mutex_lock       0x08003713   0x16e  Code  Gb  k_mutex.o [1]
krhino_mutex_unlock     0x08003881    0xce  Code  Gb  k_mutex.o [1]
krhino_queue_overview   0x08017fd9    0xbc  Code  Gb  k_overview.o [1]
krhino_sched_disable    0x08005e19    0x58  Code  Gb  k_sched.o [1]
krhino_sched_enable     0x08005e71    0x6c  Code  Gb  k_sched.o [1]
krhino_sem_create       0x08003aa1     0xa  Code  Gb  k_sem.o [1]
krhino_sem_del          0x08003aab    0x7e  Code  Gb  k_sem.o [1]
krhino_sem_give         0x08003bb3    0x12  Code  Gb  k_sem.o [1]
krhino_sem_give_all     0x08003bc5    0x12  Code  Gb  k_sem.o [1]
krhino_sem_overview     0x08018095    0xb2  Code  Gb  k_overview.o [1]
krhino_sem_take         0x08003bd7    0xc6  Code  Gb  k_sem.o [1]
krhino_stack_ovf_check  0x08006f19    0x54  Code  Gb  k_stats.o [1]
krhino_start            0x0800481f    0x32  Code  Gb  k_sys.o [1]
krhino_start_hook       0x08005d55     0x8  Code  Gb  hook_impl.o [1]
krhino_sys_tick_get     0x0800397d    0x16  Code  Gb  k_time.o [1]
krhino_sys_time_get     0x08003999    0x26  Code  Gb  k_time.o [1]
krhino_task_cpu_usage_get
                        0x08017bf3    0x28  Code  Gb  k_cpuusage.o [1]
krhino_task_cpu_usage_stats
                        0x08017ba9    0x4a  Code  Gb  k_cpuusage.o [1]
krhino_task_cpu_usage_stats::stats_start
                        0x2000c8b4     0x4  Data  Lc  k_cpuusage.o [1]
krhino_task_create      0x08002e2f    0x4c  Code  Gb  k_task.o [1]
krhino_task_create_hook
                        0x08005d5d     0x2  Code  Gb  hook_impl.o [1]
krhino_task_deathbed    0x0800353b    0x1e  Code  Gb  k_task.o [1]
krhino_task_del         0x0800322b   0x118  Code  Gb  k_task.o [1]
krhino_task_del_hook    0x08005d5f     0x2  Code  Gb  hook_impl.o [1]
krhino_task_dyn_create  0x08002f3f    0x30  Code  Gb  k_task.o [1]
krhino_task_dyn_del     0x08003343   0x17c  Code  Gb  k_task.o [1]
krhino_task_info_get    0x08003517    0x24  Code  Gb  k_task.o [1]
krhino_task_info_set    0x080034ed    0x2a  Code  Gb  k_task.o [1]
krhino_task_overview    0x08017dfb   0x114  Code  Gb  k_overview.o [1]
krhino_task_sleep       0x08002f6f    0xb6  Code  Gb  k_task.o [1]
krhino_task_stack_bottom
                        0x080186ed    0x26  Code  Gb  k_infoget.o [1]
krhino_task_stack_cur_free
                        0x0800307b    0x92  Code  Gb  k_task.o [1]
krhino_task_stack_min_free
                        0x08003043    0x38  Code  Gb  k_task.o [1]
krhino_task_switch_hook
                        0x08005d61     0x2  Code  Gb  hook_impl.o [1]
krhino_tick_hook        0x08005d63     0x2  Code  Gb  hook_impl.o [1]
krhino_tick_proc        0x08003969    0x14  Code  Gb  k_time.o [1]
krhino_total_cpu_usage_get
                        0x08017c1b    0x18  Code  Gb  k_cpuusage.o [1]
krhino_version_get      0x0800491d     0x6  Code  Gb  k_sys.o [1]
krhino_workqueue_create
                        0x08007123    0xea  Code  Gb  k_workqueue.o [1]
ktimer_init             0x08007543    0x44  Code  Gb  k_timer.o [1]
kv_block_format         0x080110b9    0x84  Code  Lc  kvmgr.o [1]
kv_calc_position        0x0801113d    0x4c  Code  Lc  kvmgr.o [1]
kv_gc_task              0x08011945    0xf4  Code  Lc  kvmgr.o [1]
kv_init                 0x08011779   0x1ca  Code  Lc  kvmgr.o [1]
kv_item_del             0x08011189   0x126  Code  Lc  kvmgr.o [1]
kv_item_free            0x0801108d    0x1c  Code  Lc  kvmgr.o [1]
kv_item_get             0x080115cb    0x3c  Code  Lc  kvmgr.o [1]
kv_item_store           0x08011607   0x132  Code  Lc  kvmgr.o [1]
kv_item_traverse        0x08011417   0x1b4  Code  Lc  kvmgr.o [1]
kv_item_update          0x08011739    0x40  Code  Lc  kvmgr.o [1]
kv_os_partition_erase   0x08011eb1     0xe  Code  Gb  kv_osal.o [1]
kv_os_partition_read    0x08011e91    0x10  Code  Gb  kv_osal.o [1]
kv_os_partition_write   0x08011ea1    0x10  Code  Gb  kv_osal.o [1]
kv_os_task_del          0x08011ee7     0xa  Code  Gb  kv_osal.o [1]
kv_os_task_start        0x08011ebf    0x28  Code  Gb  kv_osal.o [1]
kv_state_set            0x080110a9    0x10  Code  Lc  kvmgr.o [1]
kv_trigger_gc           0x0801105d    0x30  Code  Lc  kvmgr.o [1]
ldexp                   0x0800bc4d          Code  Gb  ldexp.o [4]
ldexpl                  0x0800bc4d          Code  Gb  ldexp.o [4]
local_event             0x200006a4     0x8  Data  Lc  local_event.o [1]
localeconv              0x0800c189     0x4  Code  Gb  xlocale_c.o [3]
lock_sal_core           0x2000c8f4     0x4  Data  Gb  sal_sockets.o [1]
log_cli_cmd             0x2000068c     0xc  Data  Gb  log.o [1]
log_cli_init            0x080020b5    0x18  Code  Gb  log.o [1]
log_cmd                 0x0800204f    0x66  Code  Lc  log.o [1]
log_mutex               0x2000c8d8     0x4  Data  Gb  log.o [1]
lookup_command          0x08004925    0x8e  Code  Lc  cli.o [1]
lsm6dsl_acc_factor      0x2000051c    0x28  Data  Lc  drv_acc_gyro_st_lsm6dsl.o [1]
lsm6dsl_ctx             0x200005bc    0x14  Data  Gb  drv_acc_gyro_st_lsm6dsl.o [1]
lsm6dsl_gyro_factor     0x200005a8    0x14  Data  Lc  drv_acc_gyro_st_lsm6dsl.o [1]
ltr553_ctx              0x200005d0    0x14  Data  Gb  drv_als_ps_liteon_ltr553.o [1]
mac_cmd                 0x08019cb1    0x7c  Code  Gb  aos_init.o [1]
mac_str_to_hex          0x08018753    0x78  Code  Lc  wifi_atcmd_bk7231.o [1]
main                    0x0801ae15     0xa  Code  Gb  aos.o [1]
memchr                  0x0800b981          Code  Gb  memchr.o [5]
memcmp                  0x08010fbd          Code  Gb  memcmp.o [5]
memset                  0x0800c199    0x14  Code  Gb  memset.o [5]
mmc3680kj_check_otp     0x08015e03    0x3a  Code  Lc  drv_mag_temp_memsic_mmc3680kj.o [1]
mmc3680kj_ctx           0x200005f8    0x14  Data  Gb  drv_mag_temp_memsic_mmc3680kj.o [1]
mmc3680kj_enable        0x08016093    0xc0  Code  Lc  drv_mag_temp_memsic_mmc3680kj.o [1]
mmc3680kj_get_comp_matrix
                        0x08015e3d   0x166  Code  Lc  drv_mag_temp_memsic_mmc3680kj.o [1]
mmc3680kj_need_set      0x08016153    0x38  Code  Lc  drv_mag_temp_memsic_mmc3680kj.o [1]
mmc3680kj_need_set::last_time
                        0x2000c838     0x8  Data  Lc  drv_mag_temp_memsic_mmc3680kj.o [1]
mmc3680kj_set           0x0801602d    0x3e  Code  Lc  drv_mag_temp_memsic_mmc3680kj.o [1]
mmc3680kj_set_output_resolution
                        0x0801606b    0x28  Code  Lc  drv_mag_temp_memsic_mmc3680kj.o [1]
mmc3680kj_set_pulse_width
                        0x08015fa3    0x8a  Code  Lc  drv_mag_temp_memsic_mmc3680kj.o [1]
mmc3680kj_validate_id   0x08015dc5    0x3e  Code  Lc  drv_mag_temp_memsic_mmc3680kj.o [1]
mmem_cmd                0x080056ad    0x78  Code  Lc  cli.o [1]
mode_rising             0x200006ec     0x1  Data  Lc  soc_init.o [1]
module_fota_firmware_md5_check
                        0x08007755    0x74  Code  Lc  board_cli.o [1]
module_fota_firmware_size_check
                        0x080076e5    0x70  Code  Lc  board_cli.o [1]
module_ota_cli_cmd      0x20000668     0xc  Data  Gb  board_cli.o [1]
mutex_create            0x0800358f    0x50  Code  Gb  k_mutex.o [1]
mutex_pri_look          0x0800369f    0x50  Code  Gb  k_mutex.o [1]
mutex_release           0x080035e9    0x22  Code  Lc  k_mutex.o [1]
mutex_task_pri_reset    0x080036ef    0x24  Code  Gb  k_mutex.o [1]
ncmd                    0x20000680     0xc  Data  Lc  kvmgr.o [1]
ndigs                   0x0800a608    0x28  Data  Lc  iar_Stoulx.o [3]
new_file                0x0800deed    0x34  Code  Gb  vfs_file.o [1]
obuf                    0x2000c220    0x50  Data  Lc  xfiles.o [3]
ota_cmd                 0x0800575b    0x12  Code  Lc  cli.o [1]
pFlash                  0x2000c7c0    0x20  Data  Gb  stm32l4xx_hal_flash.o [1]
panicBacktraceCallee    0x0801863b    0x68  Code  Gb  panic_c.o [1]
panicBacktraceCaller    0x080185bd    0x7e  Code  Gb  panic_c.o [1]
panicGetCtx             0x080184c7    0x12  Code  Gb  panic_c.o [1]
panicHandler            0x0801996f   0x1ee  Code  Gb  k_panic.o [1]
panicHandler::LR        0x2000c8d4     0x4  Data  Lc  k_panic.o [1]
panicHandler::PC        0x2000c8d0     0x4  Data  Lc  k_panic.o [1]
panicHandler::SP        0x2000c8cc     0x4  Data  Lc  k_panic.o [1]
panicRestoreCheck       0x08019931    0x3e  Code  Gb  k_panic.o [1]
panicShowRegs           0x080184d9    0xe4  Code  Gb  panic_c.o [1]
pend_list_add           0x0800638d    0x22  Code  Lc  k_pend.o [1]
pend_list_reorder       0x080064a3    0x1e  Code  Gb  k_pend.o [1]
pend_state_end_proc     0x080064c1    0x40  Code  Gb  k_pend.o [1]
pend_task_rm            0x0800644d    0x56  Code  Gb  k_pend.o [1]
pend_task_wakeup        0x080063af    0x56  Code  Gb  k_pend.o [1]
pend_to_blk_obj         0x08006405    0x48  Code  Gb  k_pend.o [1]
pmem_cmd                0x08005569   0x13e  Code  Lc  cli.o [1]
post_poll               0x0800e0b5    0x62  Code  Lc  select.o [1]
power_off               0x08018bad     0x4  Code  Lc  wifi_atcmd_bk7231.o [1]
power_on                0x08018bb1     0x4  Code  Lc  wifi_atcmd_bk7231.o [1]
pre_poll                0x0800e00f    0xa6  Code  Lc  select.o [1]
preferred_cpu_ready_task_get
                        0x08006103     0xc  Code  Gb  k_sched.o [1]
print_bad_command       0x08005381    0x12  Code  Lc  cli.o [1]
print_block             0x08006c61    0xac  Code  Gb  k_mm_debug.o [1]
printf                  0x08006c39    0x28  Code  Gb  printf.o [3]
proc_onecmd             0x080049b3    0xd6  Code  Gb  cli.o [1]
putchar                 0x0801d995     0xc  Code  Gb  putchar.o [3]
rand                    0x08001b21    0x96  Code  Gb  rand.o [3]
ranmatch                0x080171e7    0x42  Code  Lc  xscanflarge_nomb.o [3]
ready_list_add          0x0800603f    0x32  Code  Gb  k_sched.o [1]
ready_list_add_head     0x0800602f     0x8  Code  Gb  k_sched.o [1]
ready_list_add_tail     0x08006037     0x8  Code  Gb  k_sched.o [1]
ready_list_head_to_tail
                        0x080060ef    0x14  Code  Gb  k_sched.o [1]
ready_list_init         0x08005f71    0x40  Code  Lc  k_sched.o [1]
ready_list_rm           0x08006071    0x7e  Code  Gb  k_sched.o [1]
reboot_cmd              0x08005725    0x10  Code  Lc  cli.o [1]
register_monitor_cb     0x08018bc9     0x2  Code  Lc  wifi_atcmd_bk7231.o [1]
register_wlan_mgnt_monitor_cb
                        0x08018bcb     0x2  Code  Lc  wifi_atcmd_bk7231.o [1]
removesize              0x080041c7    0x1a  Code  Lc  k_mm.o [1]
rhino_stack_check_init  0x080047b3     0x2  Code  Lc  k_sys.o [1]
ringbuf_init            0x0800684b    0x16  Code  Gb  k_ringbuf.o [1]
ringbuf_is_empty        0x08006adb    0x14  Code  Gb  k_ringbuf.o [1]
ringbuf_pop             0x080069a3   0x138  Code  Gb  k_ringbuf.o [1]
ringbuf_push            0x08006861   0x142  Code  Gb  k_ringbuf.o [1]
ringbuf_reset           0x08006aef    0x14  Code  Gb  k_ringbuf.o [1]
runqueue_init           0x08005f55    0x1c  Code  Gb  k_sched.o [1]
sal_arch_mbox_tryfetch  0x08001ac5    0x24  Code  Gb  sal_arch_aos.o [1]
sal_arch_mutex          0x2000c8e0     0x4  Data  Lc  sal_arch_aos.o [1]
sal_arch_protect        0x08001b05     0xc  Code  Gb  sal_arch_aos.o [1]
sal_arch_sem_wait       0x080019e5    0x52  Code  Gb  sal_arch_aos.o [1]
sal_arch_unprotect      0x08001b11     0xa  Code  Gb  sal_arch_aos.o [1]
sal_close               0x08001897    0xe0  Code  Gb  sal_sockets.o [1]
sal_close::__func__     0x0801e1ec     0xc  Data  Lc  sal_sockets.o [1]
sal_deal_event          0x08001579   0x174  Code  Gb  sal_sockets.o [1]
sal_device_init         0x08002835    0x26  Code  Gb  bk7231.o [1]
sal_eventfd             0x080003c1    0x8a  Code  Gb  sal_sockets.o [1]
sal_free                0x080019a9     0x8  Code  Gb  sal_arch_aos.o [1]
sal_malloc              0x080019a1     0x8  Code  Gb  sal_arch_aos.o [1]
sal_mbox_free           0x08001a79    0x1e  Code  Gb  sal_arch_aos.o [1]
sal_mbox_new            0x08001a37    0x42  Code  Gb  sal_arch_aos.o [1]
sal_mbox_trypost        0x08001a97    0x18  Code  Gb  sal_arch_aos.o [1]
sal_mbox_valid          0x08001aaf    0x16  Code  Gb  sal_arch_aos.o [1]
sal_msleep              0x080019b1     0x8  Code  Gb  sal_arch_aos.o [1]
sal_mutex_lock          0x08001ae9     0xc  Code  Gb  sal_arch_aos.o [1]
sal_mutex_unlock        0x08001af5     0x8  Code  Gb  sal_arch_aos.o [1]
sal_now                 0x08001afd     0x8  Code  Gb  sal_arch_aos.o [1]
sal_select              0x08000b59   0x3e4  Code  Gb  sal_sockets.o [1]
sal_selscan             0x08000f51   0x280  Code  Lc  sal_sockets.o [1]
sal_sem_free            0x080019d1     0xc  Code  Gb  sal_arch_aos.o [1]
sal_sem_new             0x080019b9    0x18  Code  Gb  sal_arch_aos.o [1]
sal_sem_signal          0x080019dd     0x8  Code  Gb  sal_arch_aos.o [1]
sal_send                0x080014f1    0x10  Code  Gb  sal_sockets.o [1]
sal_sendto              0x08001205   0x2dc  Code  Gb  sal_sockets.o [1]
sal_sendto::__FUNCTION__
                        0x0801e1e0     0xc  Data  Lc  sal_sockets.o [1]
sal_socket              0x080017bd    0x8a  Code  Gb  sal_sockets.o [1]
sal_tcp_pcbs            0x2000c8f0     0x4  Data  Gb  sal_sockets.o [1]
sal_tcp_remove          0x080001b5    0x40  Code  Lc  sal_sockets.o [1]
sal_udp_bind            0x08000269    0xf8  Code  Lc  sal_sockets.o [1]
sal_udp_new_port        0x080001f5    0x74  Code  Lc  sal_sockets.o [1]
sal_udp_new_port::udp_port
                        0x2000c916     0x2  Data  Lc  sal_sockets.o [1]
sal_udp_pcbs            0x2000c8ec     0x4  Data  Gb  sal_sockets.o [1]
sal_udp_remove          0x08000361    0x40  Code  Lc  sal_sockets.o [1]
sal_write               0x08001501    0x6e  Code  Gb  sal_sockets.o [1]
salnetconn_connect      0x0800082d   0x300  Code  Lc  sal_sockets.o [1]
salnetconn_delete       0x0800079d    0x8a  Code  Lc  sal_sockets.o [1]
salnetconn_drain        0x080005a3    0xba  Code  Lc  sal_sockets.o [1]
salnetconn_new          0x0800065d   0x140  Code  Lc  sal_sockets.o [1]
salpcb_new              0x080004d3    0xd0  Code  Lc  sal_sockets.o [1]
scalbln                 0x0800bc4d          Code  Gb  ldexp.o [4]
scalblnl                0x0800bc4d          Code  Gb  ldexp.o [4]
scalbn                  0x0800bc4d          Code  Gb  ldexp.o [4]
scalbnl                 0x0800bc4d          Code  Gb  ldexp.o [4]
scale                   0x0800916b    0x46  Code  Lc  xprintffull_nomb.o [3]
sd_handle               0x2000bd68    0x84  Data  Lc  hal_sd_stm32l4.o [1]
sec_hand                0x2000c90c     0x4  Data  Lc  xfail_s.o [3]
select_cb_ctr           0x2000c8e8     0x4  Data  Lc  sal_sockets.o [1]
select_cb_list          0x2000c8e4     0x4  Data  Lc  sal_sockets.o [1]
sem_create              0x08003a53    0x4e  Code  Lc  k_sem.o [1]
sem_give                0x08003b29    0x8a  Code  Lc  k_sem.o [1]
sensor_close            0x08014471    0x8a  Code  Lc  sensor_hal.o [1]
sensor_create_obj       0x080141f1   0x1ba  Code  Gb  sensor_hal.o [1]
sensor_fops             0x0801d88c    0x18  Data  Gb  sensor_hal.o [1]
sensor_get_sensor_mode_config
                        0x08014059    0x42  Code  Lc  sensor_hal.o [1]
sensor_hal_get_dev_list
                        0x080143ab    0x42  Code  Lc  sensor_hal.o [1]
sensor_hal_register     0x080145fd    0x1c  Code  Lc  sensor_hal.o [1]
sensor_i2c_read         0x08013fe5    0x28  Code  Gb  sensor_drv_api.o [1]
sensor_i2c_write        0x0801400d    0x28  Code  Gb  sensor_drv_api.o [1]
sensor_init             0x08014619    0x3c  Code  Gb  sensor_hal.o [1]
sensor_ioctl            0x0801454f    0xae  Code  Lc  sensor_hal.o [1]
sensor_irq_handle       0x0801409b    0x6a  Code  Lc  sensor_hal.o [1]
sensor_obj_register     0x0801418f    0x62  Code  Lc  sensor_hal.o [1]
sensor_open             0x080143ed    0x84  Code  Lc  sensor_hal.o [1]
sensor_read             0x080144fb    0x50  Code  Lc  sensor_hal.o [1]
sensor_register_irq     0x08014105    0x44  Code  Lc  sensor_hal.o [1]
sensor_set_sensor_service
                        0x08014035    0x24  Code  Lc  sensor_hal.o [1]
sensor_write            0x0801454b     0x4  Code  Lc  sensor_hal.o [1]
set_channel             0x08018bc1     0x4  Code  Lc  wifi_atcmd_bk7231.o [1]
setup_fd                0x0800df85     0x2  Code  Lc  select.o [1]
show_version            0x08019e79    0x1c  Code  Lc  version.o [1]
shtc1_cmd_list          0x0801e0cc     0xc  Data  Lc  drv_temp_humi_sensirion_shtc1.o [1]
shtc1_ctx               0x2000060c    0x14  Data  Gb  drv_temp_humi_sensirion_shtc1.o [1]
size_to_level           0x0800415f    0x20  Code  Lc  k_mm.o [1]
slist_add               0x0800f835     0x8  Code  Lc  atparser.o [1]
slist_add_tail          0x0800f83d    0x12  Code  Lc  atparser.o [1]
slist_del               0x0800f84f    0x16  Code  Lc  atparser.o [1]
slist_empty             0x0800f865    0x10  Code  Lc  atparser.o [1]
slist_init              0x0800f875     0x6  Code  Lc  atparser.o [1]
snprintf                0x08005ba9    0x44  Code  Gb  snprintf.o [3]
soc_err_proc            0x080065d1    0x16  Code  Gb  soc_impl.o [1]
soc_get_cur_sp          0x08006581     0x4  Code  Gb  soc_impl.o [1]
soc_hw_timer_init       0x08006509    0x6e  Code  Gb  soc_impl.o [1]
soc_lr_hw_cnt_get       0x08006577     0x8  Code  Gb  soc_impl.o [1]
soc_print_stack         0x08006585    0x4c  Code  Lc  soc_impl.o [1]
sockaddr_to_ipaddr_port
                        0x080003a9    0x18  Code  Lc  sal_sockets.o [1]
sockets                 0x2000c054    0x64  Data  Lc  sal_sockets.o [1]
sprintf                 0x08017c45    0x40  Code  Gb  sprintf.o [3]
sscanf                  0x08018bd1    0x28  Code  Gb  sscanf.o [3]
start_cmd_type_str      0x20000594    0x14  Data  Lc  bk7231.o [1]
start_monitor           0x08018bc5     0x2  Code  Lc  wifi_atcmd_bk7231.o [1]
start_scan              0x08018ba9     0x2  Code  Lc  wifi_atcmd_bk7231.o [1]
start_scan_adv          0x08018bab     0x2  Code  Lc  wifi_atcmd_bk7231.o [1]
stduart_init            0x0801a457    0x36  Code  Lc  soc_init.o [1]
stm32_soc_init          0x0801a369    0xd6  Code  Gb  soc_init.o [1]
stm32_soc_peripheral_init
                        0x0801a43f    0x18  Code  Gb  soc_init.o [1]
stm32_uart              0x2000b30c   0x1ec  Data  Lc  hal_uart_stm32l4.o [1]
stop_monitor            0x08018bc7     0x2  Code  Lc  wifi_atcmd_bk7231.o [1]
strchr                  0x080075b1          Code  Gb  strchr.o [5]
strcmp                  0x080021b5          Code  Gb  strcmp.o [5]
strcpy                  0x08007aa1          Code  Gb  strcpy.o [5]
strlen                  0x08005a49          Code  Gb  strlen.o [5]
strncmp                 0x08005a7f    0x28  Code  Gb  strncmp.o [3]
strncpy                 0x080075c9          Code  Gb  strncpy.o [5]
strstr                  0x08005bed    0x30  Code  Gb  strstr.o [3]
strtol                  0x080076bb     0x4  Code  Gb  iar_Stolx.o [3]
strtoul                 0x0800a5db     0x2  Code  Gb  iar_Stoulx.o [3]
suspend                 0x08018bb5     0x4  Code  Lc  wifi_atcmd_bk7231.o [1]
suspend_soft_ap         0x08018bbd     0x4  Code  Lc  wifi_atcmd_bk7231.o [1]
suspend_station         0x08018bb9     0x4  Code  Lc  wifi_atcmd_bk7231.o [1]
sys_init                0x0801ada9    0x1a  Code  Lc  aos.o [1]
sys_start               0x0801adc3    0x3e  Code  Lc  aos.o [1]
tab_complete            0x08004d11   0x116  Code  Lc  cli.o [1]
task_cmd                0x08017b09     0xe  Code  Lc  dumpsys.o [1]
task_cpu_usage_period   0x2000c8b0     0x4  Data  Lc  k_cpuusage.o [1]
task_create             0x08002c81   0x1ae  Code  Lc  k_task.o [1]
task_dyn_create         0x08002e7b    0xc4  Code  Gb  k_task.o [1]
task_mutex_free         0x080031f5    0x36  Code  Lc  k_task.o [1]
task_pri_change         0x0800310d    0xe8  Code  Gb  k_task.o [1]
tcpip_cli_cmd           0x2000065c     0xc  Data  Gb  aos_init.o [1]
tcpip_cli_init          0x08019c2f     0xc  Code  Gb  aos_init.o [1]
teardown_fd             0x0800df87     0x2  Code  Lc  select.o [1]
tftp_ota_thread         0x08005751     0xa  Code  Gb  cli.o [1]
tick_list_init          0x080061d7     0xa  Code  Gb  k_tick.o [1]
tick_list_insert        0x0800621f    0x30  Code  Gb  k_tick.o [1]
tick_list_pri_insert    0x080061e1    0x3e  Code  Lc  k_tick.o [1]
tick_list_rm            0x0800624f    0x18  Code  Gb  k_tick.o [1]
tick_list_update        0x08006267    0xf8  Code  Gb  k_tick.o [1]
time_slice_update       0x0800610f    0x8e  Code  Gb  k_sched.o [1]
timer_cb_proc           0x080072c7    0x7c  Code  Lc  k_timer.o [1]
timer_cmd_proc          0x0800745b    0x2e  Code  Lc  k_timer.o [1]
timer_list_pri_insert   0x08007277    0x3a  Code  Lc  k_timer.o [1]
timer_list_rm           0x080072b1    0x16  Code  Lc  k_timer.o [1]
timer_queue_cb          0x2000b4f8   0x1e0  Data  Gb  k_obj.o [1]
timer_task              0x08007489    0xba  Code  Lc  k_timer.o [1]
tolower                 0x0800c52d    0x14  Code  Gb  tolower.o [3]
trace_start             0x08019da5    0x10  Code  Gb  trace_impl.o [1]
tryget_event            0x0800044b    0x2e  Code  Lc  sal_sockets.o [1]
tryget_socket           0x08000479    0x2a  Code  Lc  sal_sockets.o [1]
uart_0                  0x2000c810    0x14  Data  Gb  soc_init.o [1]
uart_dataWidth_transform
                        0x08008585    0x34  Code  Lc  hal_uart_stm32l4.o [1]
uart_flow_control_transform
                        0x08008615    0x40  Code  Lc  hal_uart_stm32l4.o [1]
uart_get_handle         0x08008685    0x1a  Code  Lc  hal_uart_stm32l4.o [1]
uart_mode_transform     0x08008655    0x30  Code  Lc  hal_uart_stm32l4.o [1]
uart_parity_transform   0x080085b9    0x34  Code  Lc  hal_uart_stm32l4.o [1]
uart_receive_dma        0x0800837d   0x208  Code  Lc  hal_uart_stm32l4.o [1]
uart_receive_it         0x080081e7   0x196  Code  Lc  hal_uart_stm32l4.o [1]
uart_receive_start_dma  0x08007f69    0x62  Code  Lc  hal_uart_stm32l4.o [1]
uart_receive_start_it   0x08007f2d    0x3c  Code  Lc  hal_uart_stm32l4.o [1]
uart_send_dma           0x080080bd    0x76  Code  Lc  hal_uart_stm32l4.o [1]
uart_send_it            0x08008047    0x76  Code  Lc  hal_uart_stm32l4.o [1]
uart_stop_bits_transform
                        0x080085ed    0x28  Code  Lc  hal_uart_stm32l4.o [1]
udp_cmd                 0x08019ba9    0x86  Code  Lc  aos_init.o [1]
uptime_cmd              0x08005735    0x16  Code  Lc  cli.o [1]
used_bitmap             0x2000c880     0x4  Data  Lc  aos_rhino.o [1]
uwTick                  0x2000c900     0x4  Data  Gb  stm32l4xx_hal.o [1]
var_init                0x0801ad95    0x14  Code  Lc  aos.o [1]
version_cmd             0x080054bd    0x12  Code  Lc  cli.o [1]
version_init            0x08019e95    0x22  Code  Gb  version.o [1]
versioncmd              0x20000698     0xc  Data  Lc  version.o [1]
vfs_device_init         0x080198f9    0x26  Code  Gb  device.o [1]
vfs_init                0x0800c545    0x34  Code  Gb  vfs.o [1]
vfs_poll_notify         0x0800df6d    0x18  Code  Lc  select.o [1]
vprintf                 0x08005aa9    0x20  Code  Gb  vprintf.o [3]
vsnprintf               0x08007aed    0x3c  Code  Gb  vsnprint.o [3]
wait_io                 0x0800dfaf    0x60  Code  Lc  select.o [1]
wifi_cli_cmd            0x20000564    0x18  Data  Gb  aos_init.o [1]
wifi_debug_cmd          0x08019c3b     0xa  Code  Gb  aos_init.o [1]
wifi_event_handler      0x080079a5    0x54  Code  Lc  board_cli.o [1]
wifi_get_mac_addr       0x080187cb    0x74  Code  Lc  wifi_atcmd_bk7231.o [1]
wifi_init               0x08018721    0x32  Code  Lc  wifi_atcmd_bk7231.o [1]
wifi_module_fota        0x080077c9    0xf2  Code  Lc  board_cli.o [1]
wifi_module_fota::__func__
                        0x0801da2c    0x14  Data  Lc  board_cli.o [1]
wifi_start              0x0801883f   0x10e  Code  Lc  wifi_atcmd_bk7231.o [1]
wifi_start_adv          0x08018955     0x4  Code  Lc  wifi_atcmd_bk7231.o [1]
wlan_send_80211_raw_frame
                        0x08018bcd     0x4  Code  Lc  wifi_atcmd_bk7231.o [1]
worker_task             0x080070cb    0x58  Code  Lc  k_workqueue.o [1]
workqueue_init          0x0800720d    0x1c  Code  Gb  k_workqueue.o [1]
workqueue_is_exist      0x08007099    0x32  Code  Lc  k_workqueue.o [1]


[1] = D:\work\IOT\code\internal_code\projects\autogen\helloworld@developerkit\iar_project\Debug\Obj
[2] = command line
[3] = dl7M_tlf.a
[4] = m7M_tls.a
[5] = rt7M_tl.a
[6] = shb_l.a

  110 380 bytes of readonly  code memory
   14 716 bytes of readonly  data memory
   59 680 bytes of readwrite data memory

Errors: none
Warnings: none
