Archive member included because of file (symbol)

..\..\..\..\..\lib\libdriver.a(eq.o)
                              ..\obj\sys_vol.o (EqStyleConfigure)
..\..\..\..\..\lib\libdriver.a(gpio.o)
                              ..\obj\main.o (GpioFuartRxIoConfig)
..\..\..\..\..\lib\libdriver.a(beep.o)
                              ..\obj\key.o (BeepStart)
..\..\..\..\..\lib\libdriver.a(otg_detect_usb1.o)
                              ..\obj\dev_detect_driver.o (UsbDevice1IsLink)
..\..\..\..\..\lib\libdriver.a(timer_api.o)
                              ..\obj\rtc_control.o (DeinitTimer)
..\..\..\..\..\lib\libdriver.a(host_stor.o)
                              ..\obj\partition.o (HostStorGetBlockSize)
..\..\..\..\..\lib\libdriver.a(host_hcd.o)
                              ..\..\..\..\..\lib\libdriver.a(host_stor.o) (UsbHostPortReset)
..\..\..\..\..\lib\libdriver.a(rst.o)
                              ..\obj\sys_vol.o (RstMclk)
..\..\..\..\..\lib\libdriver.a(wakeup.o)
                              ..\obj\power_management.o (PowerKeyDetect)
..\..\..\..\..\lib\libdriver.a(nvm.o)
                              ..\obj\breakpoint.o (NvmRead)
..\..\..\..\..\lib\libdriver.a(rtc_lunar.o)
                              ..\obj\rtc_control.o (GetHeavenlyStem)
..\..\..\..\..\lib\libdriver.a(pcm_transfer.o)
                              ..\obj\sys_vol.o (PcmTxSetPcmDataMode)
..\..\..\..\..\lib\libdriver.a(watchdog.o)
                              ..\obj\main.o (WdgDis)
..\..\..\..\..\lib\libdriver.a(device_audio.o)
                              ..\obj\sys_vol.o (AudioLeftVolume)
..\..\..\..\..\lib\libdriver.a(audio_adc.o)
                              ..\obj\sys_vol.o (AdcPmemWriteEn)
..\..\..\..\..\lib\libdriver.a(mixer.o)
                              ..\obj\sys_vol.o (MixerConfigVolume)
..\..\..\..\..\lib\libdriver.a(rtc.o)
                              ..\..\..\..\..\lib\libdriver.a(rtc_lunar.o) (RtcIsLeapYear)
..\..\..\..\..\lib\libdriver.a(i2s.o)
                              ..\obj\sys_vol.o (I2sSetMasterMode)
..\..\..\..\..\lib\libdriver.a(sd_card.o)
                              ..\obj\diskio.o (SdWriteBlock)
..\..\..\..\..\lib\libdriver.a(sdio.o)
                              ..\..\..\..\..\lib\libdriver.a(sd_card.o) (SdioEnableClk)
..\..\..\..\..\lib\libdriver.a(random.o)
                              ..\obj\player_control.o (GetRandomNum)
..\..\..\..\..\lib\libdriver.a(sample_rate_convert.o)
                              ..\..\..\..\..\lib\libdriver.a(mixer.o) (SampleRateConvertInit)
..\..\..\..\..\lib\libdriver.a(device_stor_audio_request.o)
                              ..\..\..\..\..\lib\libdriver.a(device_audio.o) (Setup)
..\..\..\..\..\lib\libdriver.a(timeout.o)
                              ..\..\..\..\..\lib\libdriver.a(timer_api.o) (GetSysTick1MsCnt)
..\..\..\..\..\lib\libdriver.a(device_hcd.o)
                              ..\obj\main.o (schedule_timeout)
..\..\..\..\..\lib\libdriver.a(ir.o)
                              ..\obj\ir_key.o (IrGpioSel)
..\..\..\..\..\lib\libdriver.a(otg_detect.o)
                              ..\..\..\..\..\lib\libdriver.a(gpio.o) (UsbSetCurrentPort)
..\..\..\..\..\lib\libdriver.a(dac.o)
                              ..\obj\sys_vol.o (DacAdcSampleRateGet)
..\..\..\..\..\lib\libdriver.a(spi_flash.o)
                              ..\obj\sys_app.o (SpiFlashIOCtl)
..\..\..\..\..\lib\libdriver.a(audio_path.o)
                              ..\obj\sys_vol.o (PhubPathSel)
..\..\..\..\..\lib\libdriver.a(timer.o)
                              ..\obj\main.o (Timer1IntClr)
..\..\..\..\..\lib\libdriver.a(clk.o)
                              ..\obj\main.o (ClkModuleEn)
..\..\..\..\..\lib\libdriver.a(otg_hal.o)
                              ..\..\..\..\..\lib\libdriver.a(host_hcd.o) (LoadFIFOData)
..\..\..\..\..\lib\libdriver.a(adc.o)
                              ..\..\..\..\..\lib\libdriver.a(wakeup.o) (SarAdcPowerDown)
..\..\..\..\..\lib\libdriver.a(lrc.o)
                              ..\obj\player_control.o (GetLrcEncodeType)
..\..\..\..\..\lib\libdriver.a(cache.o)
                              ..\obj\main.o (CacheInit)
..\..\..\..\..\lib\libdriver.a(pcm_fifo.o)
                              ..\..\..\..\..\lib\libdriver.a(pcm_transfer.o) (PcmFifoInitialize)
..\..\..\..\..\lib\libdriver.a(otg_detect_usb2.o)
                              ..\..\..\..\..\lib\libdriver.a(otg_detect.o) (Enable_DPPU_1K_USB2)
..\..\..\..\..\lib\libdriver.a(fuart.o)
                              ..\obj\print.o (FuartSend)
..\..\..\..\..\lib\libdriver.a(ldo_config.o)
                              ..\..\..\..\..\lib\libdriver.a(adc.o) (LdoGetOtpTrimValue)
..\..\..\..\..\lib\libdriver.a(buart.o)
                              ..\..\..\..\..\lib\libdriver.a(gpio.o) (GetBuartDevInfoId)
..\..\..\..\..\lib\libdriver.a(pmem.o)
                              ..\..\..\..\..\lib\libdriver.a(audio_adc.o) (PmemDataPathSel)
..\..\..\..\..\lib\libdriver.a(pcm_play.o)
                              ..\..\..\..\..\lib\libdriver.a(device_audio.o) (PcmPlay)
..\..\..\..\..\lib\libdriver.a(host_stor_request.o)
                              ..\..\..\..\..\lib\libdriver.a(host_stor.o) (UsbStartDevice)
..\..\..\..\..\lib\libdriver.a(otg_int.o)
                              ..\..\..\..\..\lib\libdriver.a(device_stor_audio_request.o) (UsbDeviceEnableInt)
..\..\..\..\..\lib\libdriver.a(device_stor.o)
                              ..\..\..\..\..\lib\libdriver.a(device_hcd.o) (SetSdReaderState)
..\..\..\..\..\lib\libos.a(init.o)
                              ..\obj\task_main.o (calibrate_delay)
..\..\..\..\..\lib\libos.a(mmm.o)
                              ..\..\..\..\..\lib\libos.a(init.o) (mmm_init)
..\..\..\..\..\lib\libos.a(setup.o)
                              ..\..\..\..\..\lib\libos.a(init.o) (arch_nvic_config)
..\..\..\..\..\lib\libos.a(semaphore.o)
                              ..\obj\main.o (__down_op)
..\..\..\..\..\lib\libos.a(msgq.o)
                              ..\..\..\..\..\lib\libos.a(init.o) (msgq_init)
..\..\..\..\..\lib\libos.a(shell.o)
                              ..\obj\debug_test.o (command_parse_spawn)
..\..\..\..\..\lib\libos.a(locks.o)
                              ..\obj\presearch.o (_atomic_set)
..\..\..\..\..\lib\libos.a(auxinfo.o)
                              ..\obj\dev_detect_driver.o (auxtmr_count_get)
..\..\..\..\..\lib\libos.a(tasks.o)
                              ..\obj\main.o (xTaskGenericCreate)
..\..\..\..\..\lib\libos.a(mach.o)
                              ..\..\..\..\..\lib\libos.a(setup.o) (NVIC_interrupt_prio_set)
..\..\..\..\..\lib\libos.a(list.o)
                              ..\..\..\..\..\lib\libos.a(tasks.o) (vListInitialise)
..\..\..\..\..\lib\libfs.a(dir.o)
                              ..\obj\recorder_control.o (DirSetStartEntry)
..\..\..\..\..\lib\libfs.a(fs_mount.o)
                              ..\obj\presearch.o (FsMount)
..\..\..\..\..\lib\libfs.a(fat.o)
                              ..\..\..\..\..\lib\libfs.a(dir.o) (GetSecNum)
..\..\..\..\..\lib\libfs.a(exfat.o)
                              ..\..\..\..\..\lib\libfs.a(fat.o) (SaveBitMapSec)
..\..\..\..\..\lib\libfs.a(fat_file.o)
                              ..\..\..\..\..\lib\libdriver.a(lrc.o) (FileEOF)
..\..\..\..\..\lib\libfs.a(dir_lookup.o)
                              ..\..\..\..\..\lib\libfs.a(fat_file.o) (DirSplit)
..\..\..\..\..\lib\libfs.a(utf.o)
                              ..\..\..\..\..\lib\libfs.a(fat_file.o) (utf16_to_utf8)
..\..\..\..\..\lib\libfs.a(fsinfo.o)
                              ..\obj\presearch.o (FSINFO_SaveFdi)
..\..\..\..\..\lib\libfs.a(folder.o)
                              ..\obj\player_control.o (FolderOpenByNum)
..\..\..\..\..\lib\libfs.a(fsmount_buffermanager.o)
                              ..\obj\presearch.o (gFSContextBufferManager)
d:/tkstudio/build/sourcery g++ lite/bin/../lib/gcc/arm-none-eabi/4.4.1/../../../../arm-none-eabi/lib/thumb2\libm.a(lib_a-s_cos.o)
                              ..\..\..\..\..\lib\libdriver.a(eq.o) (cos)
d:/tkstudio/build/sourcery g++ lite/bin/../lib/gcc/arm-none-eabi/4.4.1/../../../../arm-none-eabi/lib/thumb2\libm.a(lib_a-s_sin.o)
                              ..\..\..\..\..\lib\libdriver.a(eq.o) (sin)
d:/tkstudio/build/sourcery g++ lite/bin/../lib/gcc/arm-none-eabi/4.4.1/../../../../arm-none-eabi/lib/thumb2\libm.a(lib_a-w_log10.o)
                              ..\obj\eq_params.o (log10)
d:/tkstudio/build/sourcery g++ lite/bin/../lib/gcc/arm-none-eabi/4.4.1/../../../../arm-none-eabi/lib/thumb2\libm.a(lib_a-e_log10.o)
                              d:/tkstudio/build/sourcery g++ lite/bin/../lib/gcc/arm-none-eabi/4.4.1/../../../../arm-none-eabi/lib/thumb2\libm.a(lib_a-w_log10.o) (__ieee754_log10)
d:/tkstudio/build/sourcery g++ lite/bin/../lib/gcc/arm-none-eabi/4.4.1/../../../../arm-none-eabi/lib/thumb2\libm.a(lib_a-e_rem_pio2.o)
                              d:/tkstudio/build/sourcery g++ lite/bin/../lib/gcc/arm-none-eabi/4.4.1/../../../../arm-none-eabi/lib/thumb2\libm.a(lib_a-s_cos.o) (__ieee754_rem_pio2)
d:/tkstudio/build/sourcery g++ lite/bin/../lib/gcc/arm-none-eabi/4.4.1/../../../../arm-none-eabi/lib/thumb2\libm.a(lib_a-k_cos.o)
                              d:/tkstudio/build/sourcery g++ lite/bin/../lib/gcc/arm-none-eabi/4.4.1/../../../../arm-none-eabi/lib/thumb2\libm.a(lib_a-s_cos.o) (__kernel_cos)
d:/tkstudio/build/sourcery g++ lite/bin/../lib/gcc/arm-none-eabi/4.4.1/../../../../arm-none-eabi/lib/thumb2\libm.a(lib_a-k_rem_pio2.o)
                              d:/tkstudio/build/sourcery g++ lite/bin/../lib/gcc/arm-none-eabi/4.4.1/../../../../arm-none-eabi/lib/thumb2\libm.a(lib_a-e_rem_pio2.o) (__kernel_rem_pio2)
d:/tkstudio/build/sourcery g++ lite/bin/../lib/gcc/arm-none-eabi/4.4.1/../../../../arm-none-eabi/lib/thumb2\libm.a(lib_a-k_sin.o)
                              d:/tkstudio/build/sourcery g++ lite/bin/../lib/gcc/arm-none-eabi/4.4.1/../../../../arm-none-eabi/lib/thumb2\libm.a(lib_a-s_cos.o) (__kernel_sin)
d:/tkstudio/build/sourcery g++ lite/bin/../lib/gcc/arm-none-eabi/4.4.1/../../../../arm-none-eabi/lib/thumb2\libm.a(lib_a-s_fabs.o)
                              d:/tkstudio/build/sourcery g++ lite/bin/../lib/gcc/arm-none-eabi/4.4.1/../../../../arm-none-eabi/lib/thumb2\libm.a(lib_a-e_rem_pio2.o) (fabs)
d:/tkstudio/build/sourcery g++ lite/bin/../lib/gcc/arm-none-eabi/4.4.1/../../../../arm-none-eabi/lib/thumb2\libm.a(lib_a-s_floor.o)
                              d:/tkstudio/build/sourcery g++ lite/bin/../lib/gcc/arm-none-eabi/4.4.1/../../../../arm-none-eabi/lib/thumb2\libm.a(lib_a-k_rem_pio2.o) (floor)
d:/tkstudio/build/sourcery g++ lite/bin/../lib/gcc/arm-none-eabi/4.4.1/../../../../arm-none-eabi/lib/thumb2\libm.a(lib_a-s_isnand.o)
                              d:/tkstudio/build/sourcery g++ lite/bin/../lib/gcc/arm-none-eabi/4.4.1/../../../../arm-none-eabi/lib/thumb2\libm.a(lib_a-w_log10.o) (__isnand)
d:/tkstudio/build/sourcery g++ lite/bin/../lib/gcc/arm-none-eabi/4.4.1/../../../../arm-none-eabi/lib/thumb2\libm.a(lib_a-s_lib_ver.o)
                              d:/tkstudio/build/sourcery g++ lite/bin/../lib/gcc/arm-none-eabi/4.4.1/../../../../arm-none-eabi/lib/thumb2\libm.a(lib_a-w_log10.o) (__fdlib_version)
d:/tkstudio/build/sourcery g++ lite/bin/../lib/gcc/arm-none-eabi/4.4.1/../../../../arm-none-eabi/lib/thumb2\libm.a(lib_a-s_matherr.o)
                              d:/tkstudio/build/sourcery g++ lite/bin/../lib/gcc/arm-none-eabi/4.4.1/../../../../arm-none-eabi/lib/thumb2\libm.a(lib_a-w_log10.o) (matherr)
d:/tkstudio/build/sourcery g++ lite/bin/../lib/gcc/arm-none-eabi/4.4.1/../../../../arm-none-eabi/lib/thumb2\libm.a(lib_a-s_nan.o)
                              d:/tkstudio/build/sourcery g++ lite/bin/../lib/gcc/arm-none-eabi/4.4.1/../../../../arm-none-eabi/lib/thumb2\libm.a(lib_a-w_log10.o) (nan)
d:/tkstudio/build/sourcery g++ lite/bin/../lib/gcc/arm-none-eabi/4.4.1/../../../../arm-none-eabi/lib/thumb2\libm.a(lib_a-s_scalbn.o)
                              d:/tkstudio/build/sourcery g++ lite/bin/../lib/gcc/arm-none-eabi/4.4.1/../../../../arm-none-eabi/lib/thumb2\libm.a(lib_a-k_rem_pio2.o) (scalbn)
d:/tkstudio/build/sourcery g++ lite/bin/../lib/gcc/arm-none-eabi/4.4.1/../../../../arm-none-eabi/lib/thumb2\libm.a(lib_a-e_log.o)
                              d:/tkstudio/build/sourcery g++ lite/bin/../lib/gcc/arm-none-eabi/4.4.1/../../../../arm-none-eabi/lib/thumb2\libm.a(lib_a-e_log10.o) (__ieee754_log)
d:/tkstudio/build/sourcery g++ lite/bin/../lib/gcc/arm-none-eabi/4.4.1/../../../../arm-none-eabi/lib/thumb2\libm.a(lib_a-s_copysign.o)
                              d:/tkstudio/build/sourcery g++ lite/bin/../lib/gcc/arm-none-eabi/4.4.1/../../../../arm-none-eabi/lib/thumb2\libm.a(lib_a-s_scalbn.o) (copysign)
d:/tkstudio/build/sourcery g++ lite/bin/../lib/gcc/arm-none-eabi/4.4.1/thumb2\libgcc.a(_divsi3.o)
                              d:/tkstudio/build/sourcery g++ lite/bin/../lib/gcc/arm-none-eabi/4.4.1/../../../../arm-none-eabi/lib/thumb2\libm.a(lib_a-k_rem_pio2.o) (__aeabi_idiv)
d:/tkstudio/build/sourcery g++ lite/bin/../lib/gcc/arm-none-eabi/4.4.1/thumb2\libgcc.a(_dvmd_tls.o)
                              d:/tkstudio/build/sourcery g++ lite/bin/../lib/gcc/arm-none-eabi/4.4.1/thumb2\libgcc.a(_divsi3.o) (__aeabi_idiv0)
d:/tkstudio/build/sourcery g++ lite/bin/../lib/gcc/arm-none-eabi/4.4.1/thumb2\libgcc.a(_arm_addsubdf3.o)
                              ..\..\..\..\..\lib\libdriver.a(sample_rate_convert.o) (__aeabi_dsub)
d:/tkstudio/build/sourcery g++ lite/bin/../lib/gcc/arm-none-eabi/4.4.1/thumb2\libgcc.a(_arm_muldivdf3.o)
                              ..\obj\eq_params.o (__aeabi_dmul)
d:/tkstudio/build/sourcery g++ lite/bin/../lib/gcc/arm-none-eabi/4.4.1/thumb2\libgcc.a(_arm_cmpdf2.o)
                              d:/tkstudio/build/sourcery g++ lite/bin/../lib/gcc/arm-none-eabi/4.4.1/../../../../arm-none-eabi/lib/thumb2\libm.a(lib_a-w_log10.o) (__aeabi_dcmpeq)
d:/tkstudio/build/sourcery g++ lite/bin/../lib/gcc/arm-none-eabi/4.4.1/thumb2\libgcc.a(_arm_fixdfsi.o)
                              ..\obj\eq_params.o (__aeabi_d2iz)
d:/tkstudio/build/sourcery g++ lite/bin/../lib/gcc/arm-none-eabi/4.4.1/thumb2\libgcc.a(_arm_fixunsdfsi.o)
                              ..\obj\eq_params.o (__aeabi_d2uiz)
d:/tkstudio/build/sourcery g++ lite/bin/../lib/gcc/arm-none-eabi/4.4.1/thumb2\libgcc.a(_arm_truncdfsf2.o)
                              ..\..\..\..\..\lib\libdriver.a(eq.o) (__aeabi_d2f)
d:/tkstudio/build/sourcery g++ lite/bin/../lib/gcc/arm-none-eabi/4.4.1/thumb2\libgcc.a(_arm_addsubsf3.o)
                              ..\..\..\..\..\lib\libdriver.a(eq.o) (__aeabi_fsub)
d:/tkstudio/build/sourcery g++ lite/bin/../lib/gcc/arm-none-eabi/4.4.1/thumb2\libgcc.a(_arm_muldivsf3.o)
                              ..\..\..\..\..\lib\libdriver.a(eq.o) (__aeabi_fmul)
d:/tkstudio/build/sourcery g++ lite/bin/../lib/gcc/arm-none-eabi/4.4.1/thumb2\libgcc.a(_arm_cmpsf2.o)
                              ..\..\..\..\..\lib\libdriver.a(sample_rate_convert.o) (__aeabi_fcmpge)
d:/tkstudio/build/sourcery g++ lite/bin/../lib/gcc/arm-none-eabi/4.4.1/thumb2\libgcc.a(_arm_fixsfsi.o)
                              ..\..\..\..\..\lib\libdriver.a(eq.o) (__aeabi_f2iz)
d:/tkstudio/build/sourcery g++ lite/bin/../lib/gcc/arm-none-eabi/4.4.1/thumb2\libgcc.a(_aeabi_uldivmod.o)
                              ..\..\..\..\..\lib\libdriver.a(timer.o) (__aeabi_uldivmod)
d:/tkstudio/build/sourcery g++ lite/bin/../lib/gcc/arm-none-eabi/4.4.1/thumb2\libgcc.a(bpabi.o)
                              d:/tkstudio/build/sourcery g++ lite/bin/../lib/gcc/arm-none-eabi/4.4.1/thumb2\libgcc.a(_aeabi_uldivmod.o) (__gnu_uldivmod_helper)
d:/tkstudio/build/sourcery g++ lite/bin/../lib/gcc/arm-none-eabi/4.4.1/thumb2\libgcc.a(_divdi3.o)
                              d:/tkstudio/build/sourcery g++ lite/bin/../lib/gcc/arm-none-eabi/4.4.1/thumb2\libgcc.a(bpabi.o) (__divdi3)
d:/tkstudio/build/sourcery g++ lite/bin/../lib/gcc/arm-none-eabi/4.4.1/thumb2\libgcc.a(_udivdi3.o)
                              d:/tkstudio/build/sourcery g++ lite/bin/../lib/gcc/arm-none-eabi/4.4.1/thumb2\libgcc.a(bpabi.o) (__udivdi3)
d:/tkstudio/build/sourcery g++ lite/bin/../lib/gcc/arm-none-eabi/4.4.1/thumb2\libgcc.a(_udivsi3.o)
                              d:/tkstudio/build/sourcery g++ lite/bin/../lib/gcc/arm-none-eabi/4.4.1/thumb2\libgcc.a(_divdi3.o) (__aeabi_uidiv)
d:/tkstudio/build/sourcery g++ lite/bin/../lib/gcc/arm-none-eabi/4.4.1/../../../../arm-none-eabi/lib/thumb2\libc.a(lib_a-atoi.o)
                              ..\..\..\..\..\lib\libdriver.a(lrc.o) (atoi)
d:/tkstudio/build/sourcery g++ lite/bin/../lib/gcc/arm-none-eabi/4.4.1/../../../../arm-none-eabi/lib/thumb2\libc.a(lib_a-ctype_.o)
                              ..\..\..\..\..\lib\libos.a(shell.o) (__ctype_ptr__)
d:/tkstudio/build/sourcery g++ lite/bin/../lib/gcc/arm-none-eabi/4.4.1/../../../../arm-none-eabi/lib/thumb2\libc.a(lib_a-errno.o)
                              d:/tkstudio/build/sourcery g++ lite/bin/../lib/gcc/arm-none-eabi/4.4.1/../../../../arm-none-eabi/lib/thumb2\libm.a(lib_a-w_log10.o) (__errno)
d:/tkstudio/build/sourcery g++ lite/bin/../lib/gcc/arm-none-eabi/4.4.1/../../../../arm-none-eabi/lib/thumb2\libc.a(lib_a-impure.o)
                              d:/tkstudio/build/sourcery g++ lite/bin/../lib/gcc/arm-none-eabi/4.4.1/../../../../arm-none-eabi/lib/thumb2\libc.a(lib_a-errno.o) (_impure_ptr)
d:/tkstudio/build/sourcery g++ lite/bin/../lib/gcc/arm-none-eabi/4.4.1/../../../../arm-none-eabi/lib/thumb2\libc.a(lib_a-memcmp.o)
                              ..\obj\breakpoint.o (memcmp)
d:/tkstudio/build/sourcery g++ lite/bin/../lib/gcc/arm-none-eabi/4.4.1/../../../../arm-none-eabi/lib/thumb2\libc.a(lib_a-memcpy.o)
                              ..\obj\breakpoint.o (memcpy)
d:/tkstudio/build/sourcery g++ lite/bin/../lib/gcc/arm-none-eabi/4.4.1/../../../../arm-none-eabi/lib/thumb2\libc.a(lib_a-memmove.o)
                              ..\..\..\..\..\lib\libdriver.a(lrc.o) (memmove)
d:/tkstudio/build/sourcery g++ lite/bin/../lib/gcc/arm-none-eabi/4.4.1/../../../../arm-none-eabi/lib/thumb2\libc.a(lib_a-memset.o)
                              ..\obj\breakpoint.o (memset)
d:/tkstudio/build/sourcery g++ lite/bin/../lib/gcc/arm-none-eabi/4.4.1/../../../../arm-none-eabi/lib/thumb2\libc.a(lib_a-puts.o)
                              ..\..\..\..\..\lib\libfs.a(fat_file.o) (puts)
d:/tkstudio/build/sourcery g++ lite/bin/../lib/gcc/arm-none-eabi/4.4.1/../../../../arm-none-eabi/lib/thumb2\libc.a(lib_a-sscanf.o)
                              ..\..\..\..\..\lib\libos.a(mmm.o) (sscanf)
d:/tkstudio/build/sourcery g++ lite/bin/../lib/gcc/arm-none-eabi/4.4.1/../../../../arm-none-eabi/lib/thumb2\libc.a(lib_a-strcasecmp.o)
                              ..\..\..\..\..\lib\libos.a(shell.o) (strcasecmp)
d:/tkstudio/build/sourcery g++ lite/bin/../lib/gcc/arm-none-eabi/4.4.1/../../../../arm-none-eabi/lib/thumb2\libc.a(lib_a-strchr.o)
                              ..\..\..\..\..\lib\libfs.a(fat_file.o) (strchr)
d:/tkstudio/build/sourcery g++ lite/bin/../lib/gcc/arm-none-eabi/4.4.1/../../../../arm-none-eabi/lib/thumb2\libc.a(lib_a-strcmp.o)
                              ..\..\..\..\..\lib\libos.a(shell.o) (strcmp)
d:/tkstudio/build/sourcery g++ lite/bin/../lib/gcc/arm-none-eabi/4.4.1/../../../../arm-none-eabi/lib/thumb2\libc.a(lib_a-strlen.o)
                              ..\obj\player_control.o (strlen)
d:/tkstudio/build/sourcery g++ lite/bin/../lib/gcc/arm-none-eabi/4.4.1/../../../../arm-none-eabi/lib/thumb2\libc.a(lib_a-strncasecmp.o)
                              ..\..\..\..\..\lib\libos.a(shell.o) (strncasecmp)
d:/tkstudio/build/sourcery g++ lite/bin/../lib/gcc/arm-none-eabi/4.4.1/../../../../arm-none-eabi/lib/thumb2\libc.a(lib_a-strncpy.o)
                              ..\..\..\..\..\lib\libos.a(tasks.o) (strncpy)
d:/tkstudio/build/sourcery g++ lite/bin/../lib/gcc/arm-none-eabi/4.4.1/../../../../arm-none-eabi/lib/thumb2\libc.a(lib_a-strspn.o)
                              ..\..\..\..\..\lib\libfs.a(dir_lookup.o) (strspn)
d:/tkstudio/build/sourcery g++ lite/bin/../lib/gcc/arm-none-eabi/4.4.1/../../../../arm-none-eabi/lib/thumb2\libc.a(lib_a-strtol.o)
                              d:/tkstudio/build/sourcery g++ lite/bin/../lib/gcc/arm-none-eabi/4.4.1/../../../../arm-none-eabi/lib/thumb2\libc.a(lib_a-atoi.o) (_strtol_r)
d:/tkstudio/build/sourcery g++ lite/bin/../lib/gcc/arm-none-eabi/4.4.1/../../../../arm-none-eabi/lib/thumb2\libc.a(lib_a-svfscanf.o)
                              d:/tkstudio/build/sourcery g++ lite/bin/../lib/gcc/arm-none-eabi/4.4.1/../../../../arm-none-eabi/lib/thumb2\libc.a(lib_a-sscanf.o) (__ssvfscanf_r)
d:/tkstudio/build/sourcery g++ lite/bin/../lib/gcc/arm-none-eabi/4.4.1/../../../../arm-none-eabi/lib/thumb2\libc.a(lib_a-ungetc.o)
                              d:/tkstudio/build/sourcery g++ lite/bin/../lib/gcc/arm-none-eabi/4.4.1/../../../../arm-none-eabi/lib/thumb2\libc.a(lib_a-svfscanf.o) (__submore)
d:/tkstudio/build/sourcery g++ lite/bin/../lib/gcc/arm-none-eabi/4.4.1/../../../../arm-none-eabi/lib/thumb2\libc.a(lib_a-fflush.o)
                              d:/tkstudio/build/sourcery g++ lite/bin/../lib/gcc/arm-none-eabi/4.4.1/../../../../arm-none-eabi/lib/thumb2\libc.a(lib_a-ungetc.o) (_fflush_r)
d:/tkstudio/build/sourcery g++ lite/bin/../lib/gcc/arm-none-eabi/4.4.1/../../../../arm-none-eabi/lib/thumb2\libc.a(lib_a-findfp.o)
                              d:/tkstudio/build/sourcery g++ lite/bin/../lib/gcc/arm-none-eabi/4.4.1/../../../../arm-none-eabi/lib/thumb2\libc.a(lib_a-svfscanf.o) (__sfp_lock_acquire)
d:/tkstudio/build/sourcery g++ lite/bin/../lib/gcc/arm-none-eabi/4.4.1/../../../../arm-none-eabi/lib/thumb2\libc.a(lib_a-freer.o)
                              d:/tkstudio/build/sourcery g++ lite/bin/../lib/gcc/arm-none-eabi/4.4.1/../../../../arm-none-eabi/lib/thumb2\libc.a(lib_a-svfscanf.o) (_free_r)
d:/tkstudio/build/sourcery g++ lite/bin/../lib/gcc/arm-none-eabi/4.4.1/../../../../arm-none-eabi/lib/thumb2\libc.a(lib_a-fvwrite.o)
                              d:/tkstudio/build/sourcery g++ lite/bin/../lib/gcc/arm-none-eabi/4.4.1/../../../../arm-none-eabi/lib/thumb2\libc.a(lib_a-puts.o) (__sfvwrite_r)
d:/tkstudio/build/sourcery g++ lite/bin/../lib/gcc/arm-none-eabi/4.4.1/../../../../arm-none-eabi/lib/thumb2\libc.a(lib_a-fwalk.o)
                              d:/tkstudio/build/sourcery g++ lite/bin/../lib/gcc/arm-none-eabi/4.4.1/../../../../arm-none-eabi/lib/thumb2\libc.a(lib_a-fflush.o) (_fwalk_reent)
d:/tkstudio/build/sourcery g++ lite/bin/../lib/gcc/arm-none-eabi/4.4.1/../../../../arm-none-eabi/lib/thumb2\libc.a(lib_a-iswspace.o)
                              d:/tkstudio/build/sourcery g++ lite/bin/../lib/gcc/arm-none-eabi/4.4.1/../../../../arm-none-eabi/lib/thumb2\libc.a(lib_a-svfscanf.o) (iswspace)
d:/tkstudio/build/sourcery g++ lite/bin/../lib/gcc/arm-none-eabi/4.4.1/../../../../arm-none-eabi/lib/thumb2\libc.a(lib_a-locale.o)
                              d:/tkstudio/build/sourcery g++ lite/bin/../lib/gcc/arm-none-eabi/4.4.1/../../../../arm-none-eabi/lib/thumb2\libc.a(lib_a-svfscanf.o) (__mb_cur_max)
d:/tkstudio/build/sourcery g++ lite/bin/../lib/gcc/arm-none-eabi/4.4.1/../../../../arm-none-eabi/lib/thumb2\libc.a(lib_a-mallocr.o)
                              d:/tkstudio/build/sourcery g++ lite/bin/../lib/gcc/arm-none-eabi/4.4.1/../../../../arm-none-eabi/lib/thumb2\libc.a(lib_a-ungetc.o) (_malloc_r)
d:/tkstudio/build/sourcery g++ lite/bin/../lib/gcc/arm-none-eabi/4.4.1/../../../../arm-none-eabi/lib/thumb2\libc.a(lib_a-mbrtowc.o)
                              d:/tkstudio/build/sourcery g++ lite/bin/../lib/gcc/arm-none-eabi/4.4.1/../../../../arm-none-eabi/lib/thumb2\libc.a(lib_a-svfscanf.o) (_mbrtowc_r)
d:/tkstudio/build/sourcery g++ lite/bin/../lib/gcc/arm-none-eabi/4.4.1/../../../../arm-none-eabi/lib/thumb2\libc.a(lib_a-mbtowc_r.o)
                              d:/tkstudio/build/sourcery g++ lite/bin/../lib/gcc/arm-none-eabi/4.4.1/../../../../arm-none-eabi/lib/thumb2\libc.a(lib_a-mbrtowc.o) (_mbtowc_r)
d:/tkstudio/build/sourcery g++ lite/bin/../lib/gcc/arm-none-eabi/4.4.1/../../../../arm-none-eabi/lib/thumb2\libc.a(lib_a-memchr.o)
                              d:/tkstudio/build/sourcery g++ lite/bin/../lib/gcc/arm-none-eabi/4.4.1/../../../../arm-none-eabi/lib/thumb2\libc.a(lib_a-fvwrite.o) (memchr)
d:/tkstudio/build/sourcery g++ lite/bin/../lib/gcc/arm-none-eabi/4.4.1/../../../../arm-none-eabi/lib/thumb2\libc.a(lib_a-mlock.o)
                              d:/tkstudio/build/sourcery g++ lite/bin/../lib/gcc/arm-none-eabi/4.4.1/../../../../arm-none-eabi/lib/thumb2\libc.a(lib_a-freer.o) (__malloc_lock)
d:/tkstudio/build/sourcery g++ lite/bin/../lib/gcc/arm-none-eabi/4.4.1/../../../../arm-none-eabi/lib/thumb2\libc.a(lib_a-reallocr.o)
                              d:/tkstudio/build/sourcery g++ lite/bin/../lib/gcc/arm-none-eabi/4.4.1/../../../../arm-none-eabi/lib/thumb2\libc.a(lib_a-ungetc.o) (_realloc_r)
d:/tkstudio/build/sourcery g++ lite/bin/../lib/gcc/arm-none-eabi/4.4.1/../../../../arm-none-eabi/lib/thumb2\libc.a(lib_a-sccl.o)
                              d:/tkstudio/build/sourcery g++ lite/bin/../lib/gcc/arm-none-eabi/4.4.1/../../../../arm-none-eabi/lib/thumb2\libc.a(lib_a-svfscanf.o) (__sccl)
d:/tkstudio/build/sourcery g++ lite/bin/../lib/gcc/arm-none-eabi/4.4.1/../../../../arm-none-eabi/lib/thumb2\libc.a(lib_a-sf_nan.o)
                              d:/tkstudio/build/sourcery g++ lite/bin/../lib/gcc/arm-none-eabi/4.4.1/../../../../arm-none-eabi/lib/thumb2\libc.a(lib_a-svfscanf.o) (nanf)
d:/tkstudio/build/sourcery g++ lite/bin/../lib/gcc/arm-none-eabi/4.4.1/../../../../arm-none-eabi/lib/thumb2\libc.a(lib_a-sprintf.o)
                              d:/tkstudio/build/sourcery g++ lite/bin/../lib/gcc/arm-none-eabi/4.4.1/../../../../arm-none-eabi/lib/thumb2\libc.a(lib_a-svfscanf.o) (sprintf)
d:/tkstudio/build/sourcery g++ lite/bin/../lib/gcc/arm-none-eabi/4.4.1/../../../../arm-none-eabi/lib/thumb2\libc.a(lib_a-stdio.o)
                              d:/tkstudio/build/sourcery g++ lite/bin/../lib/gcc/arm-none-eabi/4.4.1/../../../../arm-none-eabi/lib/thumb2\libc.a(lib_a-findfp.o) (__sclose)
d:/tkstudio/build/sourcery g++ lite/bin/../lib/gcc/arm-none-eabi/4.4.1/../../../../arm-none-eabi/lib/thumb2\libc.a(lib_a-strtod.o)
                              d:/tkstudio/build/sourcery g++ lite/bin/../lib/gcc/arm-none-eabi/4.4.1/../../../../arm-none-eabi/lib/thumb2\libc.a(lib_a-svfscanf.o) (_strtod_r)
d:/tkstudio/build/sourcery g++ lite/bin/../lib/gcc/arm-none-eabi/4.4.1/../../../../arm-none-eabi/lib/thumb2\libc.a(lib_a-strtoll_r.o)
                              d:/tkstudio/build/sourcery g++ lite/bin/../lib/gcc/arm-none-eabi/4.4.1/../../../../arm-none-eabi/lib/thumb2\libc.a(lib_a-svfscanf.o) (_strtoll_r)
d:/tkstudio/build/sourcery g++ lite/bin/../lib/gcc/arm-none-eabi/4.4.1/../../../../arm-none-eabi/lib/thumb2\libc.a(lib_a-strtoul.o)
                              d:/tkstudio/build/sourcery g++ lite/bin/../lib/gcc/arm-none-eabi/4.4.1/../../../../arm-none-eabi/lib/thumb2\libc.a(lib_a-svfscanf.o) (_strtoul_r)
d:/tkstudio/build/sourcery g++ lite/bin/../lib/gcc/arm-none-eabi/4.4.1/../../../../arm-none-eabi/lib/thumb2\libc.a(lib_a-strtoull_r.o)
                              d:/tkstudio/build/sourcery g++ lite/bin/../lib/gcc/arm-none-eabi/4.4.1/../../../../arm-none-eabi/lib/thumb2\libc.a(lib_a-svfscanf.o) (_strtoull_r)
d:/tkstudio/build/sourcery g++ lite/bin/../lib/gcc/arm-none-eabi/4.4.1/../../../../arm-none-eabi/lib/thumb2\libc.a(lib_a-svfprintf.o)
                              d:/tkstudio/build/sourcery g++ lite/bin/../lib/gcc/arm-none-eabi/4.4.1/../../../../arm-none-eabi/lib/thumb2\libc.a(lib_a-sprintf.o) (_svfprintf_r)
d:/tkstudio/build/sourcery g++ lite/bin/../lib/gcc/arm-none-eabi/4.4.1/../../../../arm-none-eabi/lib/thumb2\libc.a(lib_a-wsetup.o)
                              d:/tkstudio/build/sourcery g++ lite/bin/../lib/gcc/arm-none-eabi/4.4.1/../../../../arm-none-eabi/lib/thumb2\libc.a(lib_a-fvwrite.o) (__swsetup_r)
d:/tkstudio/build/sourcery g++ lite/bin/../lib/gcc/arm-none-eabi/4.4.1/../../../../arm-none-eabi/lib/thumb2\libc.a(lib_a-dtoa.o)
                              d:/tkstudio/build/sourcery g++ lite/bin/../lib/gcc/arm-none-eabi/4.4.1/../../../../arm-none-eabi/lib/thumb2\libc.a(lib_a-svfprintf.o) (_dtoa_r)
d:/tkstudio/build/sourcery g++ lite/bin/../lib/gcc/arm-none-eabi/4.4.1/../../../../arm-none-eabi/lib/thumb2\libc.a(lib_a-fclose.o)
                              d:/tkstudio/build/sourcery g++ lite/bin/../lib/gcc/arm-none-eabi/4.4.1/../../../../arm-none-eabi/lib/thumb2\libc.a(lib_a-findfp.o) (fclose)
d:/tkstudio/build/sourcery g++ lite/bin/../lib/gcc/arm-none-eabi/4.4.1/../../../../arm-none-eabi/lib/thumb2\libc.a(lib_a-gdtoa-gethex.o)
                              d:/tkstudio/build/sourcery g++ lite/bin/../lib/gcc/arm-none-eabi/4.4.1/../../../../arm-none-eabi/lib/thumb2\libc.a(lib_a-strtod.o) (__gethex)
d:/tkstudio/build/sourcery g++ lite/bin/../lib/gcc/arm-none-eabi/4.4.1/../../../../arm-none-eabi/lib/thumb2\libc.a(lib_a-gdtoa-hexnan.o)
                              d:/tkstudio/build/sourcery g++ lite/bin/../lib/gcc/arm-none-eabi/4.4.1/../../../../arm-none-eabi/lib/thumb2\libc.a(lib_a-strtod.o) (__hexnan)
d:/tkstudio/build/sourcery g++ lite/bin/../lib/gcc/arm-none-eabi/4.4.1/../../../../arm-none-eabi/lib/thumb2\libc.a(lib_a-makebuf.o)
                              d:/tkstudio/build/sourcery g++ lite/bin/../lib/gcc/arm-none-eabi/4.4.1/../../../../arm-none-eabi/lib/thumb2\libc.a(lib_a-wsetup.o) (__smakebuf_r)
d:/tkstudio/build/sourcery g++ lite/bin/../lib/gcc/arm-none-eabi/4.4.1/../../../../arm-none-eabi/lib/thumb2\libc.a(lib_a-malloc.o)
                              d:/tkstudio/build/sourcery g++ lite/bin/../lib/gcc/arm-none-eabi/4.4.1/../../../../arm-none-eabi/lib/thumb2\libc.a(lib_a-dtoa.o) (malloc)
d:/tkstudio/build/sourcery g++ lite/bin/../lib/gcc/arm-none-eabi/4.4.1/../../../../arm-none-eabi/lib/thumb2\libc.a(lib_a-mprec.o)
                              d:/tkstudio/build/sourcery g++ lite/bin/../lib/gcc/arm-none-eabi/4.4.1/../../../../arm-none-eabi/lib/thumb2\libc.a(lib_a-dtoa.o) (__hi0bits)
d:/tkstudio/build/sourcery g++ lite/bin/../lib/gcc/arm-none-eabi/4.4.1/../../../../arm-none-eabi/lib/thumb2\libc.a(lib_a-s_isinfd.o)
                              d:/tkstudio/build/sourcery g++ lite/bin/../lib/gcc/arm-none-eabi/4.4.1/../../../../arm-none-eabi/lib/thumb2\libc.a(lib_a-svfprintf.o) (__isinfd)
d:/tkstudio/build/sourcery g++ lite/bin/../lib/gcc/arm-none-eabi/4.4.1/../../../../arm-none-eabi/lib/thumb2\libc.a(lib_a-callocr.o)
                              d:/tkstudio/build/sourcery g++ lite/bin/../lib/gcc/arm-none-eabi/4.4.1/../../../../arm-none-eabi/lib/thumb2\libc.a(lib_a-mprec.o) (_calloc_r)

Allocating common symbols
Common symbol       size              file

gBulkInPipe         0x4               ..\..\..\..\..\lib\libdriver.a(host_stor.o)
UsbLinkHoldTime_USB1
                    0x2               ..\..\..\..\..\lib\libdriver.a(otg_detect_usb1.o)
Mp3EncCon           0x3f98            ..\obj\recorder_control.o
sNvmRtcInfo         0x28              ..\obj\rtc_control.o
Request             0x8               ..\..\..\..\..\lib\libdriver.a(device_stor_audio_request.o)
gSys                0x228             ..\obj\sys_app.o
sRandomSeed         0x2               ..\..\..\..\..\lib\libdriver.a(random.o)
Moth                0x1               ..\..\..\..\..\lib\libdriver.a(rtc_lunar.o)
gFolderNoFatChain   0x4               ..\..\..\..\..\lib\libfs.a(exfat.o)
gDevicePID          0x2               ..\..\..\..\..\lib\libdriver.a(device_stor_audio_request.o)
pcTraceBuffer       0x4               ..\..\..\..\..\lib\libos.a(tasks.o)
DeviceStorStoppedFlag
                    0x1               ..\..\..\..\..\lib\libdriver.a(device_stor.o)
gLibUsbInfo         0x38              ..\..\..\..\..\lib\libdriver.a(host_stor_request.o)
CARD_BUF_A          0x200             ..\..\..\..\..\lib\libdriver.a(device_stor.o)
bootup_stack        0x4               ..\..\..\..\..\lib\libos.a(setup.o)
BitmapBuffer        0x4               ..\..\..\..\..\lib\libfs.a(exfat.o)
DeviceStorIsCardInitOK
                    0x1               ..\..\..\..\..\lib\libdriver.a(device_stor.o)
FpUsbIntProcess     0x18              ..\..\..\..\..\lib\libdriver.a(otg_int.o)
sMaxRandomNum       0x2               ..\..\..\..\..\lib\libdriver.a(random.o)
bootup_mem          0x4               ..\..\..\..\..\lib\libos.a(setup.o)
AdcKeyState         0x1               ..\obj\adc_key.o
AppFun              0x4               ..\obj\get_bootup_info.o
TypicalPoint        0x1c              ..\..\..\..\..\lib\libdriver.a(adc.o)
gDeviceString_Product
                    0x4               ..\..\..\..\..\lib\libdriver.a(device_stor_audio_request.o)
LunarMonthFlags     0x2               ..\..\..\..\..\lib\libdriver.a(rtc_lunar.o)
AdcKeyWaitTimer     0xc               ..\obj\adc_key.o
ChipVer             0x1               ..\obj\RDA5807.o
LunarLeapMonth      0x1               ..\..\..\..\..\lib\libdriver.a(rtc_lunar.o)
__hexdig            0x100             d:/tkstudio/build/sourcery g++ lite/bin/../lib/gcc/arm-none-eabi/4.4.1/../../../../arm-none-eabi/lib/thumb2\libc.a(lib_a-gdtoa-gethex.o)
StorBuf             0x28              ..\..\..\..\..\lib\libdriver.a(host_stor.o)
ExFatBuffer         0x300             ..\obj\partition.o
Date                0x1               ..\..\..\..\..\lib\libdriver.a(rtc_lunar.o)
DeviceStorCmdTimer  0xc               ..\..\..\..\..\lib\libdriver.a(device_stor.o)
sRandomIndex        0x2               ..\..\..\..\..\lib\libdriver.a(random.o)
gCBW                0x40              ..\..\..\..\..\lib\libdriver.a(device_stor.o)
gTimerSeconds       0x8               ..\..\..\..\..\lib\libdriver.a(rtc.o)
UsbLinkHoldTime_USB2
                    0x2               ..\..\..\..\..\lib\libdriver.a(otg_detect_usb2.o)
SdCardId            0x12              ..\..\..\..\..\lib\libdriver.a(sd_card.o)
gStor               0x8               ..\..\..\..\..\lib\libdriver.a(host_stor.o)
gControlPipe        0x4               ..\..\..\..\..\lib\libdriver.a(host_stor.o)
val                 0x4               ..\obj\main.o
__stdin             0x68              ..\obj\retarget.o
DeviceStorPreventTimer
                    0xc               ..\..\..\..\..\lib\libdriver.a(device_stor.o)
gConfigDescriptor   0x100             ..\..\..\..\..\lib\libdriver.a(device_stor_audio_request.o)
gWakeUpFlag         0x4               ..\..\..\..\..\lib\libdriver.a(wakeup.o)
RecordState         0x1               ..\obj\recorder_control.o
val2                0x4               ..\obj\main.o
gDeviceVID          0x2               ..\..\..\..\..\lib\libdriver.a(device_stor_audio_request.o)
OtpVersion          0x4               ..\obj\get_bootup_info.o
PowerMonitorTimer   0xc               ..\obj\power_management.o
AudioProcessHandle  0x4               ..\obj\main.o
DeviceStorPreventFlag
                    0x1               ..\..\..\..\..\lib\libdriver.a(device_stor.o)
CARD_BUF_B          0x200             ..\..\..\..\..\lib\libdriver.a(device_stor.o)
gDeviceString_Manu  0x4               ..\..\..\..\..\lib\libdriver.a(device_stor_audio_request.o)
DeviceStorCmdFlag   0x1               ..\..\..\..\..\lib\libdriver.a(device_stor.o)
pcTraceBufferEnd    0x4               ..\..\..\..\..\lib\libos.a(tasks.o)
Fat32Entry          0x20              ..\..\..\..\..\lib\libfs.a(exfat.o)
AdcKeyScanTimer     0xc               ..\obj\adc_key.o
TempBuf2            0x80              ..\obj\player_control.o
gDeviceString_SerialNumber
                    0x4               ..\..\..\..\..\lib\libdriver.a(device_stor_audio_request.o)
Setup               0x8               ..\..\..\..\..\lib\libdriver.a(device_stor_audio_request.o)
UsbDeviceDetectTime_USB2
                    0x2               ..\..\..\..\..\lib\libdriver.a(otg_detect_usb2.o)
pcTraceBufferStart  0x4               ..\..\..\..\..\lib\libos.a(tasks.o)
jiffies_tsktmr      0x4               ..\..\..\..\..\lib\libos.a(tasks.o)
TempBuf1            0x80              ..\obj\player_control.o
__stdout            0x68              ..\obj\retarget.o
I2cInfo             0x18              ..\obj\i2c.o
Sync                0x54              ..\obj\presearch.o
SdCard              0x14              ..\..\..\..\..\lib\libdriver.a(sd_card.o)
UsbDeviceDetectTime_USB1
                    0x2               ..\..\..\..\..\lib\libdriver.a(otg_detect_usb1.o)
gBulkOutPipe        0x4               ..\..\..\..\..\lib\libdriver.a(host_stor.o)
SrcInfo             0x194             ..\..\..\..\..\lib\libdriver.a(sample_rate_convert.o)
SecNumInBitmapBuf   0x4               ..\..\..\..\..\lib\libfs.a(exfat.o)
Mp3OutBuf           0x400             ..\obj\recorder_control.o

Memory Configuration

Name             Origin             Length             Attributes
rom              0x00000000         0x01000000         xr
ram              0x20000400         0x0000fc00         xrw
*default*        0x00000000         0xffffffff

Linker script and memory map

LOAD d:/tkstudio/build/sourcery g++ lite/bin/../lib/gcc/arm-none-eabi/4.4.1/thumb2/crti.o
LOAD d:/tkstudio/build/sourcery g++ lite/bin/../lib/gcc/arm-none-eabi/4.4.1/thumb2/crtbegin.o
                0x20010000                _eram = 0x20010000

.text           0x00000000    0x44668
 *(.isr_vector)
 .isr_vector    0x00000000       0x80 ..\obj\startup.o
                0x00000000                g_pfnVectors
 *(.stub_section)
 .stub_section  0x00000080       0x84 ..\obj\startup.o
                0x00000080                stub
 *(.shell0.cmd)
 .shell0.cmd    0x00000104       0x18 ..\..\..\..\..\lib\libos.a(shell.o)
                0x00000104                __cmdline_start
 *(.shell1.cmd)
 .shell1.cmd    0x0000011c       0x18 ..\obj\debug_test.o
                0x0000011c                __shell_cmd_sim_adc
 .shell1.cmd    0x00000134       0x18 ..\..\..\..\..\lib\libos.a(mmm.o)
                0x00000134                __shell_cmd_mmm
 .shell1.cmd    0x0000014c       0x30 ..\..\..\..\..\lib\libos.a(setup.o)
                0x0000014c                __shell_cmd_dsleep
                0x00000164                __shell_cmd_reboot
 .shell1.cmd    0x0000017c       0x18 ..\..\..\..\..\lib\libos.a(msgq.o)
                0x0000017c                __shell_cmd_qmsg
 .shell1.cmd    0x00000194       0x30 ..\..\..\..\..\lib\libos.a(shell.o)
                0x00000194                __shell_cmd_all
                0x000001ac                __shell_cmd_help
 .shell1.cmd    0x000001c4       0x30 ..\..\..\..\..\lib\libos.a(auxinfo.o)
                0x000001c4                __shell_cmd_free
                0x000001dc                __shell_cmd_top
 .shell1.cmd    0x000001f4       0x18 ..\..\..\..\..\lib\libos.a(tasks.o)
                0x000001f4                __shell_cmd_param
 *(.shell2.cmd)
 .shell2.cmd    0x0000020c       0x18 ..\..\..\..\..\lib\libos.a(shell.o)
                0x0000020c                __cmdline_end
 *(.text*)
 .text          0x00000224        0x0 d:/tkstudio/build/sourcery g++ lite/bin/../lib/gcc/arm-none-eabi/4.4.1/thumb2/crti.o
 .text          0x00000224       0x30 d:/tkstudio/build/sourcery g++ lite/bin/../lib/gcc/arm-none-eabi/4.4.1/thumb2/crtbegin.o
 .text          0x00000254        0x0 ..\obj\i2s_in_control.o
 .text          0x00000254      0xb90 ..\obj\breakpoint.o
                0x00000254                GetCrc8CheckSum
                0x0000043c                BP_GetInfo
                0x00000454                EraseFlashOfUserArea
                0x0000059c                BP_InfoLog
                0x00000af4                BP_SaveInfo
                0x00000bc0                BP_LoadInfo
 .text          0x00000de4      0x180 ..\obj\main.o
                0x00000de4                main
                0x00000f24                SendTask
                0x00000f3c                RecvTask
 .text          0x00000f64      0xfa4 ..\obj\sys_vol.o
                0x00000f64                GetBtHfVol
                0x00000f70                AudioAnaSetChannel
                0x00000f74                SpecTrumProc
                0x0000115c                AudioDRCPro
                0x0000117c                Audio3dPro
                0x0000119c                AudioVbPro
                0x000011c0                InitVb3dPcmPara
                0x000011d0                DealWithVb3dPcmPara
                0x00001260                TrebBassSet
                0x00001570                AudioPlayerSwitchEQ
                0x000015c0                SaveCurSendLast
                0x000017b8                AudioPlayerMute
                0x000017e8                AudioSampleRateSet
                0x000017f0                AudioAnaInit
                0x0000183c                AudioDacOutSetChannel
                0x000018a0                AudioOutputInit
                0x000018a4                AudioStaOutSetChannel
                0x0000196c                AudioI2sOutSetChannel
                0x000019d0                I2sPortSet
                0x000019e4                SetBtHfVol
                0x00001a20                SetSysVol
                0x00001af8                CommonMsgProccess
 .text          0x00001f08      0x614 ..\obj\dev_state_machine.o
                0x00001f08                IsModeEnvOk
                0x00001f6c                GetNextModeId
                0x000020cc                GetNextModeIdByProi
                0x000021a8                SysDeviceMsgCtrl
 .text          0x0000251c        0x0 ..\obj\mtk_fm_drv.o
 .text          0x0000251c      0x384 ..\obj\print.o
                0x0000251c                SetDebugFlag
                0x0000252c                trapfault_handler_dumpstack
                0x00002530                printchar
                0x0000256c                prints
                0x00002648                printi
                0x00002700                print
                0x00002840                mvsnprintf
                0x00002864                mvsprintf
                0x00002888                mvprintf
 .text          0x000028a0      0x15c ..\obj\debug_test.o
                0x000028a0                ShellCommand
                0x000028b8                DbgUuartRecv
                0x000028e8                DbgUartSend
                0x000028ec                sim_adc
 .text          0x000029fc      0x3c0 ..\obj\RDA5807.o
                0x000029fc                RDA5807Read
                0x00002a34                RDA5807SearchRead
                0x00002a88                RDA5807Write
                0x00002ab8                RDA5807VolSet
                0x00002ae0                RDA5807SetFreq
                0x00002afc                RDA5807SearchSet
                0x00002b14                RDA5807OutputHIZ
                0x00002b34                RDA5807Mute
                0x00002b5c                RDA5807PowerDown
                0x00002b68                RDA5807ReadID
                0x00002c14                RDA5807PowerOn
                0x00002c38                RDA5807Init
 .text          0x00002dbc      0x2f0 ..\obj\sys_app.o
                0x00002dbc                SetModeSwitchState
                0x00002dc8                GetModeSwitchState
                0x00002dd4                MsgClear
                0x00002ddc                MsgClearClass
                0x00002e04                MsgCheck
                0x00002e18                MsgSend
                0x00002ed8                MsgRecv
                0x00002f20                FlashLock
                0x00002f34                FlashUnlock
                0x00002f68                SysVarDeinit
                0x00002f70                AudioSysInfoSetBreakPoint
                0x00002ffc                SystemOn
                0x00003024                SysVarInit
 .text          0x000030ac     0x1ad8 ..\obj\player_control.o
                0x000030ac                GetPlayState
                0x000030c0                SetPlayState
                0x000030f0                AudioPlayerRepeatAB
                0x000031ac                AudioPlayerFastBackward
                0x000031f0                AudioPlayerFastForward
                0x00003234                AudioPlayerRecorder
                0x00003268                AudioPlayerControlPause
                0x00003290                AudioPlayerControlPlay
                0x000032b8                AudioPlayerFFFBEnd
                0x000032e8                AudioPlayerPower
                0x00003304                AudioPlayerChangeMode
                0x00003310                UpdatePlayingTime
                0x00003440                AudioPlayerPlayPause
                0x0000347c                AudioPlayerFolderMode
                0x00003554                AudioPlayerSwitchMode
                0x00003634                AudioPlayerRecBackPlay
                0x000037e8                AudioPlayerCloseSongFile
                0x00003838                AudioPlayerStop
                0x000038d4                AudioPlayerNumMsg
                0x00003970                AudioPlayerSetBreakPoint
                0x00003ab8                IsPlayerEnvironmentOk
                0x00003b00                SwitchPlayerDisk
                0x00003b48                PlayerTimerCB
                0x00003d9c                SearchAndOpenLrcFile
                0x00003ee4                AudioPlayerOpenSongFile
                0x00003f80                AudioPlayerSongOpen
                0x000040a0                AudioPlayerFolderPre
                0x00004134                AudioPlayerFolderNext
                0x000041d4                AudioPlayerPreSong
                0x00004280                AudioPlayerNextSong
                0x00004330                AudioPlayerEvent
                0x00004594                AudioPlayerInitialize
                0x00004874                NumKeyTimerCB
                0x000048e4                AudioPlayerDeinitialize
                0x000049a0                PlayerControl
 .text          0x00004b84      0x12c ..\obj\startup.o
                0x00004bfc                reset_handler
 .text          0x00004cb0     0x1080 ..\obj\recorder_control.o
                0x00004cb0                RecordNewFileNameGet
                0x00004d5c                GetRecordFileHandle
                0x00004d78                InitBtHfRecordBuffer
                0x00004d9c                PcmRxGetSamplesAvailable
                0x00004da0                PcmRxReceiveSamples
                0x00004da4                Mp3GetDataLen
                0x00004db0                ShowRecordingTime
                0x00004dec                LeaveRecPlayBack
                0x00004e4c                InitRecBackPlayHandle
                0x00004e64                IsRecorderEnvironmentOk
                0x00004e7c                CurrRecordDeviceIsRemoved
                0x00004eb4                RecordDevInit
                0x00004f24                EnterRecBackPlay
                0x00004f64                RecBackPlayControl
                0x00005288                FileRefreshTimerCB
                0x000052cc                Mp3EncoderFrame
                0x00005360                RecordResume
                0x0000538c                RecoderFileReflesh
                0x000053e8                RecordPause
                0x000053f0                RecordFileSearch
                0x00005524                RecoderMemAllocate
                0x00005554                UnLockRecProcess
                0x00005568                UnLockRecordPlayHandle
                0x0000557c                LockRecProcess
                0x00005590                Mp3OutBufManagement
                0x000055e0                MixerForRecoder
                0x0000566c                Mp3EncoderInit
                0x000056a0                AdpcmEncoderInit
                0x000056e0                EncodedDataToBuffer
                0x00005778                LockRecordPlayHandle
                0x0000578c                RecoderProc
                0x0000586c                Mp3OutBufWriteFile
                0x000058d4                EncodedDataBufferToFile
                0x00005970                RecoderMemFree
                0x000059a0                RecoderExit
                0x00005a34                RecorderInit
                0x00005af8                RecordStatusCtrl
                0x00005b6c                RecorderControl
 .text          0x00005d30       0xc4 ..\obj\micro_adjust.o
                0x00005d30                DacAdjust
 .text          0x00005df4      0x514 ..\obj\mass_test.o
                0x00005df4                Digital2Text
                0x00005e04                GetMassTestFlag
                0x00005e18                IsLegaleSignalToggle
                0x00005f08                SetGPIOAValue
                0x00005f34                SetGPIOATogleCfg
                0x00005f5c                SetMassTestCfg
                0x00005fc8                OtherMassTestFunc
                0x000060cc                DetectMassTestCondition
 .text          0x00006308      0x6a4 ..\obj\partition.o
                0x00006308                PartitionLoad
 .text          0x000069ac        0x0 ..\obj\asc16.o
 .text          0x000069ac      0x258 ..\obj\ir_key.o
                0x000069ac                IrKeyInit
                0x000069d8                IrKeyScan
 .text          0x00006c04        0x0 ..\obj\filesort.o
 .text          0x00006c04      0x114 ..\obj\upgrade_detect.o
                0x00006c04                BootUpgradeChk
 .text          0x00006d18      0x530 ..\obj\dev_detect_driver.o
                0x00006d18                CheckCardLinkFlag
                0x00006d24                CheckUSBLinkFlag
                0x00006d30                CheckAllDiskLinkFlag
                0x00006d4c                IsI2sInLink
                0x00006d50                LockSdClk
                0x00006d64                SetQuickResponseFlag
                0x00006da8                GetQuickResponseFlag
                0x00006dc4                UnLockSdClk
                0x00006dd8                IsRadioLink
                0x00006df4                IsMicInLink
                0x00006e68                IsLineInLink
                0x00006ec0                IsPcLink
                0x00006ec4                IsUDiskLink
                0x00006ec8                IsCardLink
                0x00006f24                InitDeviceDetect
                0x00006f80                DeviceDetect
 .text          0x00007248      0x2b4 ..\obj\get_bootup_info.o
                0x00007248                PorUpdateDisable
                0x00007258                ExCrystalConfig
                0x00007268                UpdateDevConfig
                0x00007278                GetRemapType
                0x00007288                GetChipType
                0x00007294                GetPatchVersion
                0x000072a0                GetBootVersion
                0x000072ac                GetBootVersionEx
                0x000072c4                GetWakeupSrcName
                0x00007434                GetCodeEncryptedInfo
                0x00007474                GetCodeSize
                0x00007488                GetSdkVer
                0x0000749c                Osc32kExtCapCalibrate
                0x000074bc                ClkGetFshcClkFreq
 .text          0x000074fc        0x0 ..\obj\QN8035.o
 .text          0x000074fc      0x1e8 ..\obj\adc_key.o
                0x000074fc                AdcKeyInit
                0x00007558                AdcKeyScan
 .text          0x000076e4      0x254 ..\obj\sound_remind.o
                0x000076e4                IsSoundRemindPlaying
                0x000076f0                ResetSoundRemindStopFlag
                0x00007700                IsMsgInQueue
                0x00007798                StopSoundRemind
                0x000077b4                SoundRemind
                0x0000785c                SoundRemindFillStream
                0x000078cc                SoundRemindFillStreamCallback
                0x00007914                SoundRemindInit
 .text          0x00007938      0x650 ..\obj\browser.o
                0x00007938                FileBrowseGetResult
                0x00007d60                FileBrowseOp
                0x00007f14                FileBrowseInit
 .text          0x00007f88       0x70 ..\obj\diskio.o
                0x00007f88                disk_initialize
                0x00007f8c                disk_status
                0x00007f90                disk_write
                0x00007fc4                disk_read
 .text          0x00007ff8      0xad4 ..\obj\rtc_control.o
                0x00007ff8                RtcSubStateDbg
                0x00008088                RtcSwitchNextSubState
                0x0000813c                RtcControlSetAlarm
                0x000081c4                RtcControlSetTime
                0x00008208                RtcTimeDown
                0x000082c4                RtcSetTimeDown
                0x000083b0                RtcTimeUp
                0x00008470                RtcSetTimeUp
                0x00008550                RtcDeinitialize
                0x00008580                RtcInitialize
                0x0000861c                RtcControl
                0x00008794                RtcTimerCB
 .text          0x00008acc        0x0 ..\obj\power_key.o
 .text          0x00008acc       0x98 ..\obj\coding_key.o
                0x00008acc                CodingKeyScan
                0x00008afc                CodingKeyInit
 .text          0x00008b64      0x268 ..\obj\string_convert.o
                0x00008c34                CharConvert
                0x00008c44                StringConvert
 .text          0x00008dcc      0x1ac ..\obj\line_in_control.o
                0x00008dcc                LineInLedCb
                0x00008de4                LineInControl
 .text          0x00008f78      0x18c ..\obj\radio.o
                0x00008f78                IsRadioWorking
                0x00008f8c                RadioIsStereo
                0x00008f90                RadioSetStereo
                0x00008f94                RadioLinkOutputHIZ
                0x00008fa8                RadioRSSIRead
                0x00008fc0                RadioMute
                0x00008fdc                RadioSearchSet
                0x00008ff0                RadioSetFreq
                0x0000900c                RadioPowerOff
                0x00009060                RadioPowerOn
                0x0000909c                RadioValidCheck
                0x000090bc                RadioInit
 .text          0x00009104      0x290 ..\obj\eq_params.o
                0x00009104                EqStyleConvert2I2CData
                0x00009374                EqStyleSelect
 .text          0x00009394      0x5ac ..\obj\i2c.o
                0x00009394                ValidateI2cHandle
                0x000093b0                I2cMasterCreate
                0x000094a0                GetSDA
                0x000094b8                SetInputSDA
                0x000094c4                ClrSDA
                0x000094dc                ClrSCL
                0x000094f4                SetSDA
                0x0000950c                SetOutputSDA
                0x00009518                SetSCL
                0x00009530                I2cReadByte
                0x00009620                I2cChkAck
                0x0000964c                I2cWriteByte
                0x0000976c                I2cWriteBytes
                0x000097a8                I2cSendNoAck
                0x000097c0                I2cSendAck
                0x000097d8                I2cReadBytes
                0x0000980c                SetOutputSCL
                0x00009818                I2cStop
                0x00009840                I2cStart
                0x00009868                I2cSendAddr
                0x000098d8                I2cReadNByte
                0x0000990c                I2cWriteNByte
 .text          0x00009940        0x0 ..\obj\font.o
 .text          0x00009940       0x6c ..\obj\idle_control.o
                0x00009940                IdleControl
 .text          0x000099ac        0x0 ..\obj\hzk16.o
 .text          0x000099ac      0xda4 ..\obj\radio_control.o
                0x000099ac                RadioLedCb
                0x000099d0                RadioPlay
                0x00009a68                RadioSeekEnd
                0x00009aec                RadioSeekStart
                0x00009ba4                RadioGetBreakPoint
                0x00009ca8                RadioSaveBreakPoint
                0x00009d50                RadioSwitchChannel
                0x00009e0c                RadioDeinitialize
                0x00009efc                RadioInitialize
                0x0000a09c                RadioControl
                0x0000a320                RadioChannelAdd
                0x0000a398                RadioTimerCB
                0x0000a504                RadioNumKeyTimerCB
                0x0000a614                RadioDelaySwithChlCB
 .text          0x0000a750      0x1b0 ..\obj\key.o
                0x0000a750                KeyScan
                0x0000a8d4                KeyInit
 .text          0x0000a900      0x1e8 ..\obj\task_main.o
                0x0000a900                SysClkDivison
                0x0000a940                GuiTaskEntrance
 .text          0x0000aae8      0x730 ..\obj\presearch.o
                0x0000aae8                FileGetType
                0x0000ab98                GetMatchPlayerBPRet
                0x0000aba4                SetMatchPlayerBPRet
                0x0000abb4                IsFsInited
                0x0000abb8                FsUnLock
                0x0000abd0                FindSpecialFileCallBack
                0x0000acf4                PreSearch
                0x0000afb0                FsLock
                0x0000afc8                FSDeInit
                0x0000b018                FSInit
                0x0000b1a8                FsSyncInit
 .text          0x0000b218      0x228 ..\obj\power_management.o
                0x0000b218                PowerMonitorDisp
                0x0000b21c                SystemPowerOffControl
                0x0000b250                SysGotoDeepSleepGpioCfg
                0x0000b2d0                SystemStandbyControl
                0x0000b324                SystemPowerOffDetect
                0x0000b368                PowerMonitorInit
                0x0000b38c                PowerMonitor
 .text          0x0000b440       0x90 ..\obj\retarget.o
                0x0000b440                _sbrk_r
                0x0000b444                _write_r
                0x0000b448                _close_r
                0x0000b44c                _read_r
                0x0000b450                _fstat_r
                0x0000b454                _isatty_r
                0x0000b458                _lseek_r
                0x0000b45c                _ttywrch
                0x0000b460                _exit
                0x0000b464                _sys_exit
                0x0000b468                OsSetDebugFlag
                0x0000b474                EnableSwUartAsFuart
                0x0000b480                SwUartSend
                0x0000b484                fgetc
                0x0000b488                fputc
 .text          0x0000b4d0     0x10a8 ..\..\..\..\..\lib\libdriver.a(eq.o)
                0x0000b4d0                EqPreGainSet
                0x0000b4dc                EqPreGainGet
                0x0000b4e8                EqEnable
                0x0000b504                EqDisable
                0x0000b518                EqIsUsed
                0x0000b528                EqRamClear
                0x0000b544                SwEqApply
                0x0000bbbc                SwEqPreGainSet
                0x0000bbc4                SwEqEnable
                0x0000bbcc                SwEqDisable
                0x0000bbd4                SwEqIsEnabled
                0x0000bbd8                MixedEqApply
                0x0000bbdc                MixedEqPreGainSet
                0x0000bbe4                MixedEqEnable
                0x0000bc04                MixedEqDisable
                0x0000bc1c                MixedEqIsEnabled
                0x0000bc3c                SwEqRamClear
                0x0000bc5c                MixedEqRamClear
                0x0000bc60                SwEqInit
                0x0000bc6c                MixedEqInit
                0x0000bc70                EqFilterCoefsCalculate
                0x0000c0c0                MixedEqStyleConfigure
                0x0000c334                SwEqStyleConfigure
                0x0000c428                EqStyleConfigure
 .text          0x0000c578     0x14a4 ..\..\..\..\..\lib\libdriver.a(gpio.o)
                0x0000c578                GpioDpllOutFreqTest
                0x0000c59c                GpioSpimIoConfig
                0x0000c5c0                GpioFuartRxIoConfig
                0x0000c634                GpioBuartRxIoConfig
                0x0000c658                GpioBuartTxIoConfig
                0x0000c67c                GpioBuartCtsIoConfig
                0x0000c6a0                GpioBuartRtsIoConfig
                0x0000c6c4                GpioSdIoConfig
                0x0000c964                GpioLcdIoConfig
                0x0000c980                GpioPwcIoConfig
                0x0000c9a4                GpioIrIoConfig
                0x0000c9c8                GpioFshcIoConfig
                0x0000c9ec                GpioSdramIoConfig
                0x0000ca60                GpioClk32kIoConfig
                0x0000ca84                GpioClk12m6mIoConfig
                0x0000caa8                GpioPcmSyncIoConfig
                0x0000cad4                GpioI2sIoConfig
                0x0000cb1c                GpioMclkIoConfig
                0x0000cb40                GpioSwIoConfig
                0x0000cb5c                GpioSwoIoConfig
                0x0000cb78                GpioSpisIoConfig
                0x0000cb94                GpioCtsCmpoutIoConfig
                0x0000cbb0                GpioAdcReuseSet
                0x0000cbc4                GpioSdSpiSel
                0x0000cbd0                GpioSetReg
                0x0000cbe0                GpioGetReg
                0x0000cbf0                GpioSetRegOneBit
                0x0000cfa0                GpioClrRegOneBit
                0x0000d350                GpioSetRegBits
                0x0000d36c                GpioClrRegBits
                0x0000d388                GpioIntEn
                0x0000d3bc                GpioIntDis
                0x0000d3c0                GpioIntFlagGet
                0x0000d3d4                GpioPorSysReset
                0x0000d3e0                GetLibVersionDriver
                0x0000d3ec                __IsFunction__
                0x0000d614                GetDeviceClassType
                0x0000d658                __IsFunction2__
                0x0000d674                GpioConfigGeneralPin
                0x0000d798                GpioConfigUsbPin
                0x0000d8c8                GpioA0SetMode
                0x0000d944                GpioFuartTxIoConfig
                0x0000d9d0                GpioA0SetIcs
                0x0000d9f4                GpioIntClr
 .text          0x0000da1c      0x124 ..\..\..\..\..\lib\libdriver.a(beep.o)
                0x0000da1c                BeepSingleModeSet
                0x0000daa0                BeepContinuousModeSet
                0x0000db04                BeepStart
                0x0000db24                BeepStop
 .text          0x0000db40      0x49c ..\..\..\..\..\lib\libdriver.a(otg_detect_usb1.o)
                0x0000db40                GetDP_USB1
                0x0000db50                GetDM_USB1
                0x0000db60                Enable_DPPU_1K_USB1
                0x0000db78                Disable_DPPU_1K_USB1
                0x0000db90                IsEnable_DPPU_1K_USB1
                0x0000dba4                Enable_PD_15K_USB1
                0x0000dbbc                Disable_PD_15K_USB1
                0x0000dbd4                IsEnable_PD_15K_USB1
                0x0000dbe4                Enable_PU_500K_USB1
                0x0000dbfc                Disable_PU_500K_USB1
                0x0000dc14                SetUsbSpeed_USB1
                0x0000dc2c                UsbHost1IsLink
                0x0000dc44                EnUsbSofTimeOut
                0x0000dc50                UsbDevice1IsLink
                0x0000dccc                Usb1SetDetectMode
                0x0000dcdc                OTGLinkCheck_USB1
 .text          0x0000dfdc      0x3ec ..\..\..\..\..\lib\libdriver.a(timer_api.o)
                0x0000dfdc                DeinitTimer
                0x0000dff0                ResetTimer
                0x0000e038                StopTimer
                0x0000e070                InitTimer
                0x0000e0e8                GetPassTime
                0x0000e1f0                StartTimer
                0x0000e2d8                ChangeTimerPeriod
                0x0000e31c                CheckTimer
 .text          0x0000e3c8      0x90c ..\..\..\..\..\lib\libdriver.a(host_stor.o)
                0x0000e3c8                HostStorGetBlockSize
                0x0000e3d4                HostStorGetLastLBA
                0x0000e3e0                SetDriverTerminateFuc
                0x0000e3ec                DiscardPackets
                0x0000e43c                StorBulkTransport
                0x0000e648                HostStorWriteBlock
                0x0000e6ec                StorTestUnitReady
                0x0000e720                StorRequestSense
                0x0000e76c                StorReadCapacity
                0x0000e7a4                StorReadFormatCapacity
                0x0000e7e0                StorInquiry
                0x0000e81c                StorGetMaxLUN
                0x0000e850                StorStartDevice
                0x0000eaa0                HostStorInit
                0x0000eb58                HostStorReadBlock
 .text          0x0000ecd4      0xa80 ..\..\..\..\..\lib\libdriver.a(host_hcd.o)
                0x0000ecd4                HostStopRcvPacket
                0x0000ecd8                HostStopSendPacket
                0x0000ecec                UsbHostIsSendOK
                0x0000ed00                UsbHostPortReset
                0x0000ed3c                UsbHostStartRcvPacket
                0x0000ef00                UsbHostStartSendPacket
                0x0000f0e0                UsbHostSendPacket
                0x0000f190                UsbHostRcvPacket
                0x0000f444                UsbHostControlInTransfer
                0x0000f51c                UsbHostGetDescriptor
                0x0000f560                UsbHostControlOutTransfer
                0x0000f604                UsbHostSetIpodChargeCurrent
                0x0000f634                UsbHostSetInterface
                0x0000f65c                UsbHostSetConfiguration
                0x0000f684                UsbHostSetAddress
                0x0000f6dc                UsbHostOpen
 .text          0x0000f754      0x344 ..\..\..\..\..\lib\libdriver.a(rst.o)
                0x0000f754                RstMclk
                0x0000f778                Rst12p288GeneratorModule
                0x0000f79c                RstDmacModule
                0x0000f7c0                RstDlutModule
                0x0000f7e4                RstLcdcModule
                0x0000f808                RstPmemModule
                0x0000f82c                RstPhubModule
                0x0000f850                RstSpisModule
                0x0000f874                RstI2sModule
                0x0000f898                RstSdramModule
                0x0000f8bc                RstSpimModule
                0x0000f8e0                RstTimer1Module
                0x0000f904                RstTimer0Module
                0x0000f928                RstFuartModule
                0x0000f94c                RstBuartModule
                0x0000f970                RstFshcModule
                0x0000f994                RstIrModule
                0x0000f9b8                RstCtsModule
                0x0000f9dc                RstSardcModule
                0x0000fa00                RstUsbModule
                0x0000fa24                RstDecModule
                0x0000fa48                RstSdModule
                0x0000fa74                RstCodecModule
 .text          0x0000fa98      0xe70 ..\..\..\..\..\lib\libdriver.a(wakeup.o)
                0x0000fa98                SysPowerDownOtp
                0x0000faac                SysGlobalWakeEn
                0x0000fac0                PowerKeyDetect
                0x0000fb10                SysGotoPowerDown
                0x0000fba8                BootGetWakeUpFlag
                0x0000fc80                PowerkeySetBypassMode
                0x0000fccc                PowerkeySetHwMode
                0x0000fd18                PowerkeySetSwMode
                0x0000fd64                PowerkeySetMcuOffSeq
                0x0000fda0                PowerkeyClrMcuOffSeq
                0x0000fddc                PowerkeyGetMcuOffSeq
                0x0000fdec                PowerkeyClrOnkeyTrg
                0x0000fe28                PowerkeyGetOnkeyReg
                0x0000fe38                PowerkeyGetSOnOff
                0x0000fe48                PowerkeyGetOnkeyTrg
                0x0000fe58                PowerkeyGetOsc32KReady
                0x0000fe68                PowerkeyGetRst8s
                0x0000fe78                SetLpMode
                0x0000ff14                LpSetWakeupDis
                0x0000ff48                LpWriteEn
                0x0000ff64                LpWriteDis
                0x0000ff74                LpChargePumpEn
                0x0000ff88                LpRegRead
                0x0000ffa8                LpRegWrite
                0x0000fffc                LpSetWakeupEn
                0x00010054                PowerkeySetOnkeyCnt
                0x000100bc                PowerkeyClrWakeCore
                0x000100fc                PowerkeyClrRst8s
                0x00010164                SysGetWakeUpFlag
                0x00010288                SysClrWakeUpSrc
                0x00010344                SysSetWakeUpSrcInPowerDown
                0x000103e0                SysSetWakeUpSrcInDeepSleep
                0x000104e4                SysPowerKeyInit
                0x0001084c                SysGotoDeepSleep
                0x000108b0                SysGotoDeepSleepCfg
 .text          0x00010908       0xe8 ..\..\..\..\..\lib\libdriver.a(nvm.o)
                0x00010908                NvmRead
                0x0001097c                NvmWrite
 .text          0x000109f0      0x190 ..\..\..\..\..\lib\libdriver.a(rtc_lunar.o)
                0x000109f0                LoadLunarInfo
                0x00010a58                GetHeavenlyStem
                0x00010a7c                GetEarthlyBranch
                0x00010aa0                SolarToLunar
 .text          0x00010b80       0xf4 ..\..\..\..\..\lib\libdriver.a(pcm_transfer.o)
                0x00010b80                PcmTxTransferData
                0x00010be8                PcmTxIsTransferDone
                0x00010bf8                PcmTxDoneSignalClear
                0x00010c08                PcmTxSetPcmDataMode
                0x00010c14                PcmTxGetPcmDataMode
                0x00010c24                PcmTxSetGain
                0x00010c30                PcmTxGetGain
                0x00010c3c                PcmTxInitWithDefaultPcmFifoSize
 .text          0x00010c74       0x84 ..\..\..\..\..\lib\libdriver.a(watchdog.o)
                0x00010c74                WdgEn
                0x00010cc0                WdgDis
                0x00010cdc                WdgFeed
 .text          0x00010cf8      0x2f0 ..\..\..\..\..\lib\libdriver.a(device_audio.o)
                0x00010cfc                OnDeviceAudioSendIsoPacket
                0x00010d00                DeviceAudioSendPcCmd
                0x00010d28                DeviceAudioInit
                0x00010d40                DeviceAudioProcess
                0x00010d44                DeviceAudioCmd
                0x00010fcc                OnDeviceAudioRcvIsoPacket
 .text          0x00010fe8      0xb58 ..\..\..\..\..\lib\libdriver.a(audio_adc.o)
                0x00010fe8                AdcTestModeSet
                0x00010fec                AdcDcBlockEn
                0x00011000                AdcDcBlockDis
                0x0001101c                AdcMixCurrWritePointGet
                0x0001102c                AdcChannelSwap
                0x00011050                AdcVolumeSet
                0x00011060                AdcPmemWriteEn
                0x00011070                AdcPmemWriteDis
                0x00011080                AdcClose
                0x0001109c                AdcSampleRateAdjust
                0x000110f4                AdcAlcGainSet
                0x00011110                AdcAlcNoiseGateSet
                0x00011138                AdcAlcTimeConfig
                0x00011160                AdcAlcTargetLevelConfig
                0x00011174                AdcAlcConfig
                0x000111ac                AdcAlcSel
                0x000111c0                AdcPmemPcmRemainLenGet
                0x00011208                CodecDacPgaMuteSet
                0x00011224                CodecAdcAnaInit
                0x000112a8                CodecAdcAnaDeInit
                0x0001130c                CodecAdcChannelDisconnect
                0x00011514                CodecAdcFmGainConfig
                0x00011530                CodecAdcLineInGainConfig
                0x0001154c                CodecAdcMicGainConfig
                0x00011568                CodecPgaSrcSelect
                0x00011614                CodecFmSrcSelect
                0x000116e4                CodecAdcChannelSel
                0x0001181c                PcmDataExtract
                0x00011914                AdcPcmDataRead
                0x000119dc                AdcConfig
                0x00011ab8                AdcToI2s
                0x00011acc                AdcToPmem
 .text          0x00011b40      0x788 ..\..\..\..\..\lib\libdriver.a(mixer.o)
                0x00011b40                audio_decoder_hardware_done_callback
                0x00011b50                MixerSrcEnable
                0x00011b5c                MixerConfigVolume
                0x00011b84                MixerMute
                0x00011b9c                MixerUnmute
                0x00011bbc                MixerSetFadeSpeed
                0x00011bd4                MixerGetRemainSamples
                0x00011cb0                MixerDisable
                0x00011cd8                MixerEnable
                0x00012124                MixerSetData
                0x00012170                MixerIsDone
                0x000121b8                audio_decoder_hardware_start_callback
                0x000121d4                MixerConfigFormat
                0x00012208                MixerInit
 .text          0x000122c8     0x1080 ..\..\..\..\..\lib\libdriver.a(rtc.o)
                0x000122c8                RtcGetWeekDay
                0x000122e4                RtcIsLeapYear
                0x000122f0                RtcGetMonthDays
                0x00012328                RtcDayOffsetInYear
                0x00012350                RtcDaysToDate
                0x00012420                RtcSecondsToDate
                0x0001247c                RtcDateToDays
                0x000124c8                RtcDateToSeconds
                0x000124f4                RtcGetRefRegCnt
                0x0001253c                RtcGetRefCnt
                0x0001259c                RtcGetAlarmCnt
                0x000125e4                RtcFindCurrAlarmIndex
                0x00012698                RtcUpdataAlarmTimeWorkday
                0x00012a40                RtcUpdateAlarmTimeInSeconds
                0x00012c30                RtcGetAlarmTime
                0x00012cbc                RtcGetAlarmStatus
                0x00012cf8                RtcCheckAlarmFlag
                0x00012d18                RtcAlarmIntClear
                0x00012d38                RtcSetAlarmCnt
                0x00012db8                RtcLoadCurrAlarm
                0x00012e30                RtcAlarmArrivedProcess
                0x00012e44                RtcAlarmSetStatus
                0x00012e98                RtcSetAlarmTime
                0x00012fa4                RtcSetRefRegCnt
                0x00013014                IsRtcCurrentTimeCompliant
                0x000130e8                RtcGetCurrTime
                0x0001310c                RtcSetRefCnt
                0x000131ac                RtcSetCurrTime
                0x000131c0                RtcInit
 .text          0x00013348      0x8cc ..\..\..\..\..\lib\libdriver.a(i2s.o)
                0x00013348                I2sLrSwapSel
                0x0001335c                I2sLrpSel
                0x00013370                I2sDatSel
                0x00013384                I2sSampleRateGet
                0x000133a8                I2sSetMasterMode
                0x0001344c                I2sSetSlaveMode
                0x000134f0                I2sBluetoothMasterModeSet
                0x000135a8                I2sBluetoothSlaveModeSet
                0x00013660                I2sClassdMasterModeSet
                0x000136c4                I2sClassdSlaveModeSet
                0x00013728                I2SCurrWritePointGet
                0x00013738                I2sWritePmemEn
                0x00013748                I2sWritePmemDis
                0x00013758                I2sPmemPcmRemainLenGet
                0x000137a0                I2sPcmDataRead
                0x00013868                I2sInToPmemConfig
                0x000138bc                I2sSampleRateSet
                0x00013a20                I2sClassdSTASampleRateSet
                0x00013b5c                I2sClassdSampleRateSet
 .text          0x00013c14      0x8d0 ..\..\..\..\..\lib\libdriver.a(sd_card.o)
                0x00013c1c                SdCardCapacityGet
                0x00013c28                SdAppSendCommand
                0x00013c64                SdCardWriteBlockStart
                0x00013ca8                SdCardWaitTransEnd
                0x00013ce4                SdCardWriteBlockEnd
                0x00013d4c                SdCardWriteBlockNext
                0x00013dc4                SdCardReadBlockEnd
                0x00013dfc                SdCardReadBlockNext
                0x00013e28                SdCardReadBlockStart
                0x00013e88                SdWriteBlock
                0x00013f90                SdReadBlock
                0x0001407c                SdCardGetInfo
                0x000143d4                SdControllerInit
                0x000143e8                SdCardDetect
                0x0001447c                SdCardInit
 .text          0x000144e4      0x464 ..\..\..\..\..\lib\libdriver.a(sdio.o)
                0x000144e4                SdioModeEn
                0x000144f8                SdioStartCmd
                0x0001450c                SdioEndCmd
                0x00014520                SdioIsCmdDone
                0x00014530                SdioEnableClk
                0x00014554                SdioDisableClk
                0x00014578                SdioSetClk
                0x0001458c                SdioEndDatTrans
                0x000145a0                SdioIsDatTransDone
                0x000145b0                SdioGetStatus
                0x000145c0                SdioGetResponseStatus
                0x000145d0                SdioIsBusy
                0x000145e0                SdioStartReciveData
                0x00014634                SdioStartSendData
                0x00014688                SdioControllerInit
                0x000146c4                SdioGetCmdResp
                0x000147e8                SdioDataInterruptEn
                0x000147f8                SdioDataInterruptDis
                0x0001480c                SdioDataInterruptClear
                0x00014820                SetClockStatusAfterSendCommd
                0x0001482c                SdioSendCommand
 .text          0x00014948      0x264 ..\..\..\..\..\lib\libdriver.a(random.o)
                0x00014948                ConvertNum
                0x00014a98                GetRandomNumA
                0x00014b4c                GetRandomNum
 .text          0x00014bac      0x7e8 ..\..\..\..\..\lib\libdriver.a(sample_rate_convert.o)
                0x00014bac                SampleRateConvertInit
                0x00015230                SampleRateConvert
 .text          0x00015394      0x388 ..\..\..\..\..\lib\libdriver.a(device_stor_audio_request.o)
                0x00015394                DeviceAudioSetMode
                0x000153f8                DeviceGetDescriptor
                0x000155e4                DeviceSendResp
                0x000155f8                DeviceRequestProcess
 .text          0x0001571c       0xf4 ..\..\..\..\..\lib\libdriver.a(timeout.o)
                0x0001571c                SysTickDeInit
                0x00015734                PastTimeGet
                0x00015744                TimeOutSet
                0x00015760                IsTimeOut
                0x00015784                __udelay
                0x000157d4                SysTickInit
 .text          0x00015810      0x5a4 ..\..\..\..\..\lib\libdriver.a(device_hcd.o)
                0x00015814                UsbDeviceResetEndpoint
                0x000158d4                UsbDeviceGetBusEvent
                0x000158e0                UsbDeviceIsoSend
                0x0001599c                UsbDeviceIntSend
                0x000159dc                UsbDeviceBulkSend
                0x00015a34                UsbDeviceSetAddress
                0x00015a6c                UsbDeviceIsoRcv
                0x00015ab0                UsbDeviceBulkRcv
                0x00015b40                UsbDeviceSetupRcv
                0x00015b88                UsbDeviceControlRcv
                0x00015bf4                UsbDeviceControlSend
                0x00015c90                UsbDeviceSendStall
                0x00015cf0                UsbDeviceDisConnect
                0x00015d00                UsbDeviceConnect
                0x00015d04                UsbDeviceInit
 .text          0x00015db4       0xd0 ..\..\..\..\..\lib\libdriver.a(ir.o)
                0x00015db4                IrGpioSel
                0x00015de4                IrInit
                0x00015e0c                IrIsKeyCome
                0x00015e1c                IrGetKeyCode
                0x00015e38                IrIsContinuePrs
                0x00015e5c                IrIgnoreLeadHeader
 .text          0x00015e84       0xf8 ..\..\..\..\..\lib\libdriver.a(otg_detect.o)
                0x00015e84                UsbSetCurrentPort
                0x00015eb4                UsbDeviceIsLink
                0x00015ed4                UsbHostIsLink
                0x00015ef4                OTGLinkCheck
                0x00015f04                SetUsbSpeed
                0x00015f1c                Disable_PD_15K
                0x00015f34                Enable_PD_15K
                0x00015f4c                Disable_DPPU_1K
                0x00015f64                Enable_DPPU_1K
 .text          0x00015f7c     0x1f14 ..\..\..\..\..\lib\libdriver.a(dac.o)
                0x00015f7c                DacDitherConfig
                0x00015fa4                DacScramConfig
                0x00015fcc                DacPhaseDiffConfig
                0x00015fe4                DacDisable
                0x00016000                DacEnable
                0x00016014                DacAdcSampleRateGet
                0x00016030                DacSidetoneConfig
                0x00016060                DacVolumeSet
                0x00016080                DacDigitalMuteSet
                0x0001609c                DacMonoConfig
                0x000160d0                DacSampRateAdjust
                0x00016128                AdcDacClkModeSet
                0x000161a0                DacIsUsbMode
                0x000161b0                DacNoUseCapacityToPlay
                0x000161c4                CodecClockEnable
                0x000161f8                CodecClockRestore
                0x00016228                CodecDacAnaVolSet
                0x00016244                CodecDacDifferenceOrSignleEndOutSel
                0x00016258                DacAnalogMuteSet
                0x00016274                CodecDacIsSoftMute
                0x0001628c                DacIsLeftAnaMute
                0x000162bc                DacIsRightAnaMute
                0x000162e8                CodecDacIsAnaMute
                0x00016330                CodecLineinIsConnect
                0x00016348                CodecFminIsConnect
                0x00016360                CodecPgainIsConnect
                0x00016378                CodecDacGetCurrChannel
                0x000163d4                CodecDacLineInGainConfig
                0x000163f0                CodecDacFmInGainConfig
                0x0001640c                CodecDacMicInGainConfig
                0x00016428                CodecMixerGainGet
                0x00016468                CodecMicBiasEn
                0x000164b0                CodecDacMuteSet
                0x000168c4                CodecMixPgaDisconnect
                0x00016a34                CodecMixPgaConnect
                0x00016bd0                CodecMixFmDisconnect
                0x00016d40                CodecMixLineinDisconnect
                0x00016efc                CodecMixLineinConnect
                0x00017120                CodecMixDacDisconnect
                0x000172a0                CodecDacChannelDisconnect
                0x00017350                CodecDacChannelDisconnectNotChangeMode
                0x00017400                CodecMixDacConnect
                0x0001759c                CodecDacVmidChargeOp
                0x00017688                CodecDacDeinit
                0x00017738                CodecDacInit
                0x000178a4                DacSoftMuteSet
                0x00017910                CodecMixFmConnect
                0x00017afc                CodecDacChannelSel
                0x00017bb8                CodecDacChannelSelNotChangeMode
                0x00017c74                DacConfig
                0x00017d8c                DacAdcSampleRateSet
 .text          0x00017e90      0x360 ..\..\..\..\..\lib\libdriver.a(spi_flash.o)
                0x00017e90                SpiFlashGetInfo
                0x00017eac                SpiFlashClkRestore
                0x00017efc                SpiFlashClktoSysClk
                0x00017f34                SpiFlashClkSet
                0x00017fd0                SpiFlashWrite
                0x00018004                SpiFlashConstGetInfo
                0x000181e0                SpiFlashConstDataRead
 .text          0x000181f0       0xac ..\..\..\..\..\lib\libdriver.a(audio_path.o)
                0x000181f0                PhubDebugModeSet
                0x00018218                PhubPathSel
                0x00018258                PhubPathClose
                0x0001826c                PhubOfifoInGainSet
                0x00018284                PhubAdcI2sInGainSet
 .text          0x0001829c      0x258 ..\..\..\..\..\lib\libdriver.a(timer.o)
                0x0001829c                Timer0HaltModeSet
                0x000182a8                Timer1HaltModeSet
                0x000182b4                Timer0IntClr
                0x000182c8                Timer1IntClr
                0x000182dc                Timer0GetTime
                0x00018308                Timer1GetTime
                0x00018334                Timer0Close
                0x00018350                Timer1Close
                0x0001836c                Timer0Adjust
                0x000183c0                Timer1Adjust
                0x00018414                Timer1Set
                0x00018484                Timer0Set
 .text          0x000184f4      0x8a4 ..\..\..\..\..\lib\libdriver.a(clk.o)
                0x000184f4                ClkRcModeTest
                0x00018518                ClkFshcClkSel
                0x0001852c                ClkModuleEn
                0x00018554                ClkModuleDis
                0x0001857c                ClkModuleGateEn
                0x00018598                ClkModuleGateDis
                0x000185ac                ClkMclkSel
                0x000185f8                ClkDpllClkGatingEn
                0x00018620                ClkDisDpllAutoCalibration
                0x0001866c                Clk12MOr16MGenerate
                0x00018680                ClkSwitchDpllToRc
                0x0001869c                ClkSwitchRcToDpll
                0x000186b0                ClkSysClkSelGet
                0x000186c0                ClkFshcClkSelGet
                0x000186d0                ClkSysClkSel
                0x000186ec                ClkModuleDivSet
                0x0001871c                ClkModuleDivSetNotify
                0x0001876c                ClkModuleClkSelGet
                0x0001877c                ClkModuleDivGet
                0x0001878c                ClkModuleDivDis
                0x0001879c                ClkMclkSelBySampleRate
                0x00018880                ClkCurrentClkModeGet
                0x00018890                RC48MHzTrimBy1MHz
                0x000188b4                ClkOsc32kNoNeedExtCapacitanceSet
                0x000188f4                ClkDpllClose
                0x0001892c                ClkOscPowerModeSel
                0x00018954                ClkCheckAndSwitchRCToDpll
                0x0001899c                ClkPorRcToDpllSetting
                0x00018a6c                ClkPorRcToDpll
                0x00018b74                ClkUseOsc32kCheckRc48m
                0x00018c28                ClkGetCurrentSysClkFreq
                0x00018cf8                ClkEnableAutoCalibrationDpll
 .text          0x00018d98      0x14c ..\..\..\..\..\lib\libdriver.a(otg_hal.o)
                0x00018d98                LoadFIFOData
                0x00018e40                UnloadFIFOData
 .text          0x00018ee4      0x6dc ..\..\..\..\..\lib\libdriver.a(adc.o)
                0x00018ee4                SarAdcPowerDown
                0x00018ef8                SarAdcGetVinFromX
                0x00018fa0                SarAdcLdoinVolInit
                0x000191a0                SarAdcChannelGetValue
                0x00019254                SarAdcGetLdoinVoltage
                0x000192e4                SarAdcGetRemainBatteryCapacity
                0x000193d8                SarAdcGetGpioVoltage
                0x00019400                SarAdcTrimLdo3V3
                0x000194bc                SarAdcGpioSel
 .text          0x000195c0     0x18c8 ..\..\..\..\..\lib\libdriver.a(lrc.o)
                0x00019720                GetLrcEncodeType
                0x0001a4f0                GetLrcInfo
                0x0001aa38                GetLrcTextLength
                0x0001aa50                CloseLrcFile
                0x0001ad78                OpenLrcByFileId
                0x0001adf4                OpenLrcByFileName
 .text          0x0001ae88      0x148 ..\..\..\..\..\lib\libdriver.a(cache.o)
                0x0001ae88                CacheInit
                0x0001af18                CacheIOctl
                0x0001afa4                CacheDeInit
 .text          0x0001afd0       0xf8 ..\..\..\..\..\lib\libdriver.a(pcm_fifo.o)
                0x0001afd0                PcmFifoInitialize
                0x0001b048                PcmFifoClear
                0x0001b058                PcmFifoIsEmpty
                0x0001b068                PcmFifoSetStatus
                0x0001b074                PcmFifoGetStatus
                0x0001b080                PcmFifoSetChannelExchangeFlag
                0x0001b08c                PcmFifoGetChannelExchangeFlag
                0x0001b098                PcmFifoGetDepth
                0x0001b0a8                PcmFifoGetRemainSamples
                0x0001b0b8                PcmFifoGetReadAddr
 .text          0x0001b0c8      0x498 ..\..\..\..\..\lib\libdriver.a(otg_detect_usb2.o)
                0x0001b0c8                GetDP_USB2
                0x0001b0d8                GetDM_USB2
                0x0001b0e8                Enable_DPPU_1K_USB2
                0x0001b100                Disable_DPPU_1K_USB2
                0x0001b118                IsEnable_DPPU_1K_USB2
                0x0001b12c                Enable_PD_15K_USB2
                0x0001b144                Disable_PD_15K_USB2
                0x0001b15c                IsEnable_PD_15K_USB2
                0x0001b16c                Enable_PU_500K_USB2
                0x0001b184                Disable_PU_500K_USB2
                0x0001b19c                SetUsbSpeed_USB2
                0x0001b1b4                UsbHost2IsLink
                0x0001b1cc                UsbDevice2IsLink
                0x0001b250                Usb2SetDetectMode
                0x0001b260                OTGLinkCheck_USB2
 .text          0x0001b560      0x4ec ..\..\..\..\..\lib\libdriver.a(fuart.o)
                0x0001b560                FuartRecvByte
                0x0001b588                FuartStartByteSend
                0x0001b5cc                IsFuartRxIntSrc
                0x0001b5dc                IsFuartTxIntSrc
                0x0001b5ec                FuartSend
                0x0001b6c8                FuartIOctl
                0x0001b868                FuartRecv
                0x0001b8f4                FuartInit
 .text          0x0001ba4c       0x48 ..\..\..\..\..\lib\libdriver.a(ldo_config.o)
                0x0001ba4c                LdoGetOtpTrimValue
                0x0001ba5c                LdoCfg
 .text          0x0001ba94      0xcb4 ..\..\..\..\..\lib\libdriver.a(buart.o)
                0x0001ba94                BuartDevInfo
                0x0001baa0                BuartDevInfo_
                0x0001bab0                GetBuartDevInfoId
                0x0001babc                BuartExFifoInit
                0x0001bc08                BuartInit
                0x0001bd1c                BuartIOctl
                0x0001c09c                BuartSend
                0x0001c414                BuartRecv
 .text          0x0001c748       0x34 ..\..\..\..\..\lib\libdriver.a(pmem.o)
                0x0001c748                PmemDataPathSel
                0x0001c768                PmemDataPathClose
 .text          0x0001c77c      0x1d4 ..\..\..\..\..\lib\libdriver.a(pcm_play.o)
                0x0001c77c                PcmPlay
                0x0001c7f8                SetExtDacSamplingRate
                0x0001c8d8                PcmPlayInit
 .text          0x0001c950      0x248 ..\..\..\..\..\lib\libdriver.a(host_stor_request.o)
                0x0001c950                UsbStartDevice
 .text          0x0001cb98      0x198 ..\..\..\..\..\lib\libdriver.a(otg_int.o)
                0x0001cb98                UsbHostEnableInt
                0x0001cc10                UsbHostDisableInt
                0x0001cc84                UsbDeviceEnableInt
                0x0001ccdc                UsbDeviceDisableInt
 .text          0x0001cd30      0x75c ..\..\..\..\..\lib\libdriver.a(device_stor.o)
                0x0001cd30                GetSdReaderState
                0x0001cd3c                SetSdReaderState
                0x0001cd48                DeviceStorSendCSW
                0x0001cd5c                DeviceStorInit
                0x0001cd8c                DeviceStorIsStopped
                0x0001cdc0                DeviceStorIsPrevent
                0x0001cde4                DeviceStorWrite10
                0x0001cea4                DeviceStorRead10
                0x0001d010                DeviceStorIsCardLink
                0x0001d044                DeviceStorModeSense
                0x0001d0e4                DeviceStorReadCapacity
                0x0001d158                DeviceStorReadFmtCapacity
                0x0001d1c0                DeviceStorProcess
 .text          0x0001d48c       0x34 ..\..\..\..\..\lib\libos.a(init.o)
                0x0001d48c                start_kernel
 .text          0x0001d4c0      0x674 ..\..\..\..\..\lib\libos.a(mmm.o)
                0x0001d4c0                mmm_print
                0x0001d5d0                mmm_malloc
                0x0001d8c4                mmm_free
                0x0001da5c                mmm_realloc
                0x0001da98                mmm_ioctl
 .text          0x0001db34      0x5cc ..\..\..\..\..\lib\libos.a(setup.o)
                0x0001db34                system_dsleep
                0x0001db44                system_reboot
                0x0001db70                setup_stack_frame
                0x0001dba8                svcall_interrupt
                0x0001dbc8                start_first_task
                0x0001dbdc                task_stackinfo
                0x0001dc34                start_schedule
                0x0001dcb4                stop_schedule
                0x0001dcb8                schedule_yield
                0x0001dcd4                ENTER_CRITICAL_SECTION
                0x0001dce8                EXIT_CRITICAL_SECTION
                0x0001dcfc                pendsv_interrupt
                0x0001dd38                systick_interrupt
                0x0001df90                get_chip_nvic_prio_bits
                0x0001dfec                systick_config_basic
                0x0001e018                systick_ioctl
                0x0001e080                GetSysTick1MsCnt
                0x0001e08c                Wait4EventTimeout
                0x0001e090                DelayMs
                0x0001e0d8                GetLibVersionFreertos
                0x0001e0e0                cpu_idle
 .text          0x0001e100      0x4c0 ..\..\..\..\..\lib\libos.a(semaphore.o)
                0x0001e100                __down_op
                0x0001e128                __down_op_ret_1
                0x0001e158                __down_op_ret_2
                0x0001e188                __up_op
                0x0001e1b0                __down_op_write
                0x0001e1d8                __up_op_write
                0x0001e1fc                __down_op_read
                0x0001e224                __up_op_read
                0x0001e24c                __up
                0x0001e298                __down
                0x0001e374                __down_interruptible
                0x0001e4d0                __down_trylock
                0x0001e540                __down_failed
                0x0001e550                __down_interruptible_failed
                0x0001e574                __down_trylock_failed
                0x0001e594                __up_wakeup
 .text          0x0001e5c0     0x3214 ..\..\..\..\..\lib\libos.a(msgq.o)
                0x0001e5c0                msgq_debug
                0x0001eaa8                MsgAddSet
                0x0001eb20                MsgDelSet
                0x0001eb98                MsgEmptySet
                0x0001ebf4                MsgFillSet
                0x0001ec54                AltMsgAddSet
                0x0001eccc                AltMsgDelSet
                0x0001ed44                AltMsgEmptySet
                0x0001eda0                AltMsgFillSet
                0x0001ee00                msgq_sleepon_msgqueue
                0x0001ee5c                msgq_tmrchk_cbfun
                0x0001effc                msgq_msg_recv
                0x0001f230                msgq_msg_send
                0x000202ac                msgq_msg_send_fromisr
                0x0002138c                msgq_msg_notify_fromisr
                0x00021408                msgq_wait4msg_restricted
                0x00021444                msgq_msg_ioctl
                0x00021748                msgq_task_register
                0x000217a0                msgq_task_unregister
 .text          0x000217d4      0xf30 ..\..\..\..\..\lib\libos.a(shell.o)
                0x000217d4                cmd_do_all
                0x0002190c                cmd_do_help
                0x00021adc                cmd_do_autocomp
                0x00021cb8                command_parse_spawn
                0x00022638                hexdump
 .text          0x00022704       0xf4 ..\..\..\..\..\lib\libos.a(locks.o)
                0x00022704                _atomic_set
                0x00022714                _atomic_add
                0x00022728                _atomic_add_return
                0x0002273c                _atomic_sub_return
                0x00022754                _atomic_clear_mask
                0x00022768                _spin_trylock
                0x0002276c                _spin_lock_irqsave
                0x00022778                _spin_lock_irq
                0x00022780                _spin_lock
                0x00022784                _spin_unlock
                0x00022788                _spin_unlock_irqrestore
                0x00022790                _spin_unlock_irq
                0x00022798                _read_trylock
                0x0002279c                _write_trylock
                0x000227a0                _read_lock
                0x000227a4                _read_lock_irqsave
                0x000227b0                _read_lock_irq
                0x000227b8                _write_lock_irqsave
                0x000227c4                _write_lock_irq
                0x000227cc                _write_lock
                0x000227d0                _write_unlock
                0x000227d4                _read_unlock
                0x000227d8                _read_unlock_irqrestore
                0x000227e0                _read_unlock_irq
                0x000227e8                _write_unlock_irqrestore
                0x000227f0                _write_unlock_irq
 .text          0x000227f8      0x198 ..\..\..\..\..\lib\libos.a(auxinfo.o)
                0x000227f8                do_free
                0x00022854                do_top
                0x00022984                auxtmr_count_get
 .text          0x00022990     0x180c ..\..\..\..\..\lib\libos.a(tasks.o)
                0x0002303c                prvCheckDelayedTasks
                0x00023114                xTaskGenericCreate
                0x00023228                vTaskDelete
                0x000232a4                uxTaskPriorityGet
                0x000232c4                vTaskPrioritySet
                0x00023370                xTaskIsTaskSuspended
                0x00023394                vTaskResume
                0x00023410                vTaskStartScheduler
                0x000234bc                vTaskEndScheduler
                0x000234d0                vTaskSuspendAll
                0x000234dc                xTaskGetTickCount
                0x000234e8                uxTaskGetNumberOfTasks
                0x000234f4                task_getpid
                0x00023508                vTaskStartTrace
                0x00023534                ulTaskEndTrace
                0x00023554                vTaskIncrementTick
                0x00023690                xTaskResumeAll
                0x00023780                task_param_set
                0x00023874                vTaskGetRunTimeStats
                0x00023964                vTaskList
                0x00023b9c                vTaskSleep
                0x00023bd4                schedule_timeout
                0x00023bf4                vTaskSleepUntil
                0x00023c4c                vTaskCleanUpResources
                0x00023d54                vTaskSwitchContext
                0x00023e40                vTaskSuspend
                0x00023eb0                vTaskPlaceOnEventList
                0x00023ef4                vTaskPlaceOnEventListRestricted
                0x00023f20                xTaskRemoveFromEventList
                0x00023fac                vTaskSetTimeOutState
                0x00023fc0                xTaskCheckForTimeOut
                0x00024028                vTaskMissedYield
                0x00024038                uxTaskGetStackHighWaterMark
                0x00024050                xTaskGetCurrentTaskHandle
                0x0002405c                xTaskGetSchedulerState
                0x00024078                vTaskPriorityInherit
                0x000240ec                vTaskPriorityDisinherit
                0x0002413c                early_init_task
 .text          0x0002419c       0x94 ..\..\..\..\..\lib\libos.a(mach.o)
                0x0002419c                NVIC_interrupt_prio_set
 .text          0x00024230       0xec ..\..\..\..\..\lib\libos.a(list.o)
                0x00024230                vListInitialise
                0x00024248                vListInitialiseItem
                0x00024250                vListInsertEnd
                0x0002426c                vListInsertIndex
                0x00024284                vListInsertIndexByPid
                0x000242c0                vListInsert
                0x000242f8                vListRemove
 .text          0x0002431c      0x810 ..\..\..\..\..\lib\libfs.a(dir.o)
                0x0002431c                DirSetStartEntry
                0x00024354                RewindFolderStart
                0x00024360                DirGetSonClusNum
                0x00024390                DirGetNextEntry
                0x00024444                DirGetSonSecNum
                0x00024458                DirSetSonClusNum
                0x000244ac                DirEnterSonFolder
                0x00024514                DirEnterParentFolder
                0x00024544                DirFindNextFolder
                0x00024580                DirNameConvert
                0x00024660                DirGenItem
                0x00024764                DirGenLongItem
                0x000248c8                GetPrevEntrySector
                0x00024944                GetLongName
                0x00024ad0                FindNextFolder
 .text          0x00024b2c       0xbc ..\..\..\..\..\lib\libfs.a(fs_mount.o)
                0x00024b2c                FsMount
                0x00024b44                FsChDrive
                0x00024b58                FsGetDriveType
                0x00024b6c                FsGetAvailableLogicId
                0x00024b80                FsGetCurContext
                0x00024b90                FsGetContextByDeviceType
                0x00024ba8                FsGetLogicIdByDeviceType
                0x00024bc8                GetCurFsDevType
 .text          0x00024be8      0x72c ..\..\..\..\..\lib\libfs.a(fat.o)
                0x00024be8                GetSecNum
                0x00024c04                GetClusNum
                0x00024c18                SaveOneSec
                0x00024c98                ReadOneSec
                0x00024d38                ReadDirSec
                0x00024d60                SaveDirSec
                0x00024d74                SaveFatSec
                0x00024dc0                ReadFATSec
                0x00024e00                GetNextClusNum
                0x00024e84                GetNextSecNum
                0x00024ee4                ModifyFatItem
                0x00024f2c                IsFreeClus
                0x00024f7c                ParseFat
                0x00025074                SetBitMap
                0x000250bc                CheckFreeClus
                0x00025120                FreeClusAlloc
                0x0002524c                FreeSectorOfClus
                0x00025268                DeleteClusterChain
                0x00025310                ValidityCheck
 .text          0x00025314     0x10dc ..\..\..\..\..\lib\libfs.a(exfat.o)
                0x00025314                SaveBitMapSec
                0x00025370                ReadBitMapSec
                0x000253c4                InitFolderNoFatChainFlag
                0x000253d8                ClrFolderNoFatChainFlag
                0x0002541c                SetFolderNoFatChainFlag
                0x0002545c                IsFolderNoFatChain
                0x000254a0                SetEntryNoFatChain
                0x000254ac                ExFatStartChackSum
                0x000254dc                ExFatAddCheckSum
                0x00025500                ExfatFullName2ShortName
                0x000256ac                ExfatShortName2FullName
                0x00025740                ExFatReadDirSec
                0x0002596c                ExFatSaveDirSec
                0x00025e94                ExFatFileOpenByLfName
                0x00026234                ExFatFileGetFullName
 .text          0x000263f0     0x1850 ..\..\..\..\..\lib\libfs.a(fat_file.o)
                0x000263f0                FileEOF
                0x00026400                FileRewind
                0x00026410                FileSof
                0x00026418                FileTell
                0x00026420                FileForceToEnd
                0x0002642c                FileSeek
                0x0002654c                _FileRead
                0x000267d4                FileReadCallBack
                0x000267d8                FileRead
                0x000267f0                FileGetLongName
                0x00026838                FileGetInfo
                0x000268bc                FileOpenByNum
                0x00026a0c                FileOpenByName
                0x00026af4                FileOpenByLfName
                0x00026c74                FileCreate
                0x00026d54                FileCreateShortFileName
                0x00026e78                FileCreateByLfName
                0x00026f7c                FileCreateByLfSfName
                0x00027070                FileWrite
                0x00027548                FileRename
                0x000275c4                FileFlush
                0x0002765c                FileOpen
                0x00027718                FileDelete
                0x00027824                FileSave
                0x00027894                FileClose
                0x00027918                FSFormat
                0x00027a1c                FileSetTime
                0x00027b08                FileGetTime
                0x00027c34                SetFsTerminateFuc
 .text          0x00027c40      0x2ec ..\..\..\..\..\lib\libfs.a(dir_lookup.o)
                0x00027c6c                DirSplit
 .text          0x00027f2c      0x3b8 ..\..\..\..\..\lib\libfs.a(utf.o)
                0x00027f2c                utf16_to_utf8
                0x00028130                utf8_to_utf16
                0x000282c4                utf16_to_gbk
                0x000282c8                gbk_to_utf16
                0x000282cc                utf16_length
 .text          0x000282e4      0x7c8 ..\..\..\..\..\lib\libfs.a(fsinfo.o)
                0x000282e4                FSINFO_SaveFdi
                0x000283b4                FSINFO_ChangeFileNum
                0x00028430                FSINFO_CreateFile
                0x00028454                FSINFO_DeleteFile
                0x000284bc                FSINFO_ChangeFolderNum
                0x00028508                FSINFO_InitOpenFolder
                0x000285ec                FSINFO_FindLastNode
                0x0002872c                FSINFO_InitOpenFile
                0x000288dc                InitFolderEmptyFlag
                0x000288ec                FSINFO_Init
                0x0002894c                ClrFolderEmptyFlag
                0x00028990                SetFolderEmptyFlag
                0x000289d4                IsFolderEmpty
                0x00028a10                GetValidFolderNum
                0x00028a40                GetOriginalFolderNum
                0x00028a78                GetValidFolderSum
                0x00028aa4                GetLibVersionFs
 .text          0x00028aac      0xc88 ..\..\..\..\..\lib\libfs.a(folder.o)
                0x00028aac                FolderGetInfo
                0x00028c1c                FolderOpenByNum
                0x00028f40                FolderOpenByValidNum
                0x00028f68                FolderOpenByName
                0x00029098                FolderOpenByLfName
                0x00029200                FolderGetLongName
                0x00029230                FolderAllocNewItem
                0x00029364                FolderCreate
                0x00029578                FolderCreateByLongName
 .text          0x00029734       0x60 ..\..\..\..\..\lib\libfs.a(fsmount_buffermanager.o)
                0x00029734                FSContextBufferFree
                0x0002975c                FSContextBufferAlloc
 .text          0x00029794       0x98 d:/tkstudio/build/sourcery g++ lite/bin/../lib/gcc/arm-none-eabi/4.4.1/../../../../arm-none-eabi/lib/thumb2\libm.a(lib_a-s_cos.o)
                0x00029794                cos
 .text          0x0002982c       0xa0 d:/tkstudio/build/sourcery g++ lite/bin/../lib/gcc/arm-none-eabi/4.4.1/../../../../arm-none-eabi/lib/thumb2\libm.a(lib_a-s_sin.o)
                0x0002982c                sin
 .text          0x000298cc      0x100 d:/tkstudio/build/sourcery g++ lite/bin/../lib/gcc/arm-none-eabi/4.4.1/../../../../arm-none-eabi/lib/thumb2\libm.a(lib_a-w_log10.o)
                0x000298cc                log10
 *fill*         0x000299cc        0x4 00
 .text          0x000299d0      0x128 d:/tkstudio/build/sourcery g++ lite/bin/../lib/gcc/arm-none-eabi/4.4.1/../../../../arm-none-eabi/lib/thumb2\libm.a(lib_a-e_log10.o)
                0x000299d0                __ieee754_log10
 .text          0x00029af8      0x418 d:/tkstudio/build/sourcery g++ lite/bin/../lib/gcc/arm-none-eabi/4.4.1/../../../../arm-none-eabi/lib/thumb2\libm.a(lib_a-e_rem_pio2.o)
                0x00029af8                __ieee754_rem_pio2
 .text          0x00029f10      0x250 d:/tkstudio/build/sourcery g++ lite/bin/../lib/gcc/arm-none-eabi/4.4.1/../../../../arm-none-eabi/lib/thumb2\libm.a(lib_a-k_cos.o)
                0x00029f10                __kernel_cos
 .text          0x0002a160      0x7b4 d:/tkstudio/build/sourcery g++ lite/bin/../lib/gcc/arm-none-eabi/4.4.1/../../../../arm-none-eabi/lib/thumb2\libm.a(lib_a-k_rem_pio2.o)
                0x0002a160                __kernel_rem_pio2
 *fill*         0x0002a914        0x4 00
 .text          0x0002a918      0x170 d:/tkstudio/build/sourcery g++ lite/bin/../lib/gcc/arm-none-eabi/4.4.1/../../../../arm-none-eabi/lib/thumb2\libm.a(lib_a-k_sin.o)
                0x0002a918                __kernel_sin
 .text          0x0002aa88        0x8 d:/tkstudio/build/sourcery g++ lite/bin/../lib/gcc/arm-none-eabi/4.4.1/../../../../arm-none-eabi/lib/thumb2\libm.a(lib_a-s_fabs.o)
                0x0002aa88                fabs
 .text          0x0002aa90      0x128 d:/tkstudio/build/sourcery g++ lite/bin/../lib/gcc/arm-none-eabi/4.4.1/../../../../arm-none-eabi/lib/thumb2\libm.a(lib_a-s_floor.o)
                0x0002aa90                floor
 .text          0x0002abb8       0x1c d:/tkstudio/build/sourcery g++ lite/bin/../lib/gcc/arm-none-eabi/4.4.1/../../../../arm-none-eabi/lib/thumb2\libm.a(lib_a-s_isnand.o)
                0x0002abb8                __isnand
 .text          0x0002abd4        0x0 d:/tkstudio/build/sourcery g++ lite/bin/../lib/gcc/arm-none-eabi/4.4.1/../../../../arm-none-eabi/lib/thumb2\libm.a(lib_a-s_lib_ver.o)
 .text          0x0002abd4        0x4 d:/tkstudio/build/sourcery g++ lite/bin/../lib/gcc/arm-none-eabi/4.4.1/../../../../arm-none-eabi/lib/thumb2\libm.a(lib_a-s_matherr.o)
                0x0002abd4                matherr
 .text          0x0002abd8        0xc d:/tkstudio/build/sourcery g++ lite/bin/../lib/gcc/arm-none-eabi/4.4.1/../../../../arm-none-eabi/lib/thumb2\libm.a(lib_a-s_nan.o)
                0x0002abd8                nan
 *fill*         0x0002abe4        0x4 00
 .text          0x0002abe8      0x118 d:/tkstudio/build/sourcery g++ lite/bin/../lib/gcc/arm-none-eabi/4.4.1/../../../../arm-none-eabi/lib/thumb2\libm.a(lib_a-s_scalbn.o)
                0x0002abe8                scalbn
 .text          0x0002ad00      0x428 d:/tkstudio/build/sourcery g++ lite/bin/../lib/gcc/arm-none-eabi/4.4.1/../../../../arm-none-eabi/lib/thumb2\libm.a(lib_a-e_log.o)
                0x0002ad00                __ieee754_log
 .text          0x0002b128       0x18 d:/tkstudio/build/sourcery g++ lite/bin/../lib/gcc/arm-none-eabi/4.4.1/../../../../arm-none-eabi/lib/thumb2\libm.a(lib_a-s_copysign.o)
                0x0002b128                copysign
 .text          0x0002b140      0x2b0 d:/tkstudio/build/sourcery g++ lite/bin/../lib/gcc/arm-none-eabi/4.4.1/thumb2\libgcc.a(_divsi3.o)
                0x0002b140                __divsi3
                0x0002b140                __aeabi_idiv
                0x0002b3d4                __aeabi_idivmod
 .text          0x0002b3f0        0x4 d:/tkstudio/build/sourcery g++ lite/bin/../lib/gcc/arm-none-eabi/4.4.1/thumb2\libgcc.a(_dvmd_tls.o)
                0x0002b3f0                __aeabi_idiv0
                0x0002b3f0                __aeabi_ldiv0
 .text          0x0002b3f4      0x370 d:/tkstudio/build/sourcery g++ lite/bin/../lib/gcc/arm-none-eabi/4.4.1/thumb2\libgcc.a(_arm_addsubdf3.o)
                0x0002b3f4                __aeabi_drsub
                0x0002b3fc                __aeabi_dsub
                0x0002b3fc                __subdf3
                0x0002b400                __aeabi_dadd
                0x0002b400                __adddf3
                0x0002b678                __floatunsidf
                0x0002b678                __aeabi_ui2d
                0x0002b698                __floatsidf
                0x0002b698                __aeabi_i2d
                0x0002b6bc                __aeabi_f2d
                0x0002b6bc                __extendsfdf2
                0x0002b6f8                __floatundidf
                0x0002b6f8                __aeabi_ul2d
                0x0002b708                __floatdidf
                0x0002b708                __aeabi_l2d
 .text          0x0002b764      0x424 d:/tkstudio/build/sourcery g++ lite/bin/../lib/gcc/arm-none-eabi/4.4.1/thumb2\libgcc.a(_arm_muldivdf3.o)
                0x0002b764                __aeabi_dmul
                0x0002b764                __muldf3
                0x0002b9b8                __divdf3
                0x0002b9b8                __aeabi_ddiv
 .text          0x0002bb88      0x110 d:/tkstudio/build/sourcery g++ lite/bin/../lib/gcc/arm-none-eabi/4.4.1/thumb2\libgcc.a(_arm_cmpdf2.o)
                0x0002bb88                __gtdf2
                0x0002bb88                __gedf2
                0x0002bb90                __ltdf2
                0x0002bb90                __ledf2
                0x0002bb98                __nedf2
                0x0002bb98                __eqdf2
                0x0002bb98                __cmpdf2
                0x0002bc14                __aeabi_cdrcmple
                0x0002bc24                __aeabi_cdcmpeq
                0x0002bc24                __aeabi_cdcmple
                0x0002bc34                __aeabi_dcmpeq
                0x0002bc48                __aeabi_dcmplt
                0x0002bc5c                __aeabi_dcmple
                0x0002bc70                __aeabi_dcmpge
                0x0002bc84                __aeabi_dcmpgt
 .text          0x0002bc98       0x50 d:/tkstudio/build/sourcery g++ lite/bin/../lib/gcc/arm-none-eabi/4.4.1/thumb2\libgcc.a(_arm_fixdfsi.o)
                0x0002bc98                __aeabi_d2iz
                0x0002bc98                __fixdfsi
 .text          0x0002bce8       0x40 d:/tkstudio/build/sourcery g++ lite/bin/../lib/gcc/arm-none-eabi/4.4.1/thumb2\libgcc.a(_arm_fixunsdfsi.o)
                0x0002bce8                __aeabi_d2uiz
                0x0002bce8                __fixunsdfsi
 .text          0x0002bd28       0xa0 d:/tkstudio/build/sourcery g++ lite/bin/../lib/gcc/arm-none-eabi/4.4.1/thumb2\libgcc.a(_arm_truncdfsf2.o)
                0x0002bd28                __truncdfsf2
                0x0002bd28                __aeabi_d2f
 .text          0x0002bdc8      0x21c d:/tkstudio/build/sourcery g++ lite/bin/../lib/gcc/arm-none-eabi/4.4.1/thumb2\libgcc.a(_arm_addsubsf3.o)
                0x0002bdc8                __aeabi_frsub
                0x0002bdd0                __subsf3
                0x0002bdd0                __aeabi_fsub
                0x0002bdd4                __aeabi_fadd
                0x0002bdd4                __addsf3
                0x0002bf34                __aeabi_ui2f
                0x0002bf34                __floatunsisf
                0x0002bf3c                __aeabi_i2f
                0x0002bf3c                __floatsisf
                0x0002bf58                __aeabi_ul2f
                0x0002bf58                __floatundisf
                0x0002bf68                __aeabi_l2f
                0x0002bf68                __floatdisf
 .text          0x0002bfe4      0x2a0 d:/tkstudio/build/sourcery g++ lite/bin/../lib/gcc/arm-none-eabi/4.4.1/thumb2\libgcc.a(_arm_muldivsf3.o)
                0x0002bfe4                __mulsf3
                0x0002bfe4                __aeabi_fmul
                0x0002c14c                __aeabi_fdiv
                0x0002c14c                __divsf3
 .text          0x0002c284       0xec d:/tkstudio/build/sourcery g++ lite/bin/../lib/gcc/arm-none-eabi/4.4.1/thumb2\libgcc.a(_arm_cmpsf2.o)
                0x0002c284                __gesf2
                0x0002c284                __gtsf2
                0x0002c28c                __lesf2
                0x0002c28c                __ltsf2
                0x0002c294                __nesf2
                0x0002c294                __eqsf2
                0x0002c294                __cmpsf2
                0x0002c2f4                __aeabi_cfrcmple
                0x0002c2fc                __aeabi_cfcmpeq
                0x0002c2fc                __aeabi_cfcmple
                0x0002c30c                __aeabi_fcmpeq
                0x0002c320                __aeabi_fcmplt
                0x0002c334                __aeabi_fcmple
                0x0002c348                __aeabi_fcmpge
                0x0002c35c                __aeabi_fcmpgt
 .text          0x0002c370       0x4c d:/tkstudio/build/sourcery g++ lite/bin/../lib/gcc/arm-none-eabi/4.4.1/thumb2\libgcc.a(_arm_fixsfsi.o)
                0x0002c370                __aeabi_f2iz
                0x0002c370                __fixsfsi
 .text          0x0002c3bc       0x2c d:/tkstudio/build/sourcery g++ lite/bin/../lib/gcc/arm-none-eabi/4.4.1/thumb2\libgcc.a(_aeabi_uldivmod.o)
                0x0002c3bc                __aeabi_uldivmod
 .text          0x0002c3e8       0x58 d:/tkstudio/build/sourcery g++ lite/bin/../lib/gcc/arm-none-eabi/4.4.1/thumb2\libgcc.a(bpabi.o)
                0x0002c3e8                __gnu_uldivmod_helper
                0x0002c414                __gnu_ldivmod_helper
 .text          0x0002c440      0x364 d:/tkstudio/build/sourcery g++ lite/bin/../lib/gcc/arm-none-eabi/4.4.1/thumb2\libgcc.a(_divdi3.o)
                0x0002c440                __divdi3
 .text          0x0002c7a4      0x300 d:/tkstudio/build/sourcery g++ lite/bin/../lib/gcc/arm-none-eabi/4.4.1/thumb2\libgcc.a(_udivdi3.o)
                0x0002c7a4                __udivdi3
 *fill*         0x0002caa4        0x4 00
 .text          0x0002caa8      0x278 d:/tkstudio/build/sourcery g++ lite/bin/../lib/gcc/arm-none-eabi/4.4.1/thumb2\libgcc.a(_udivsi3.o)
                0x0002caa8                __aeabi_uidiv
                0x0002caa8                __udivsi3
                0x0002cd04                __aeabi_uidivmod
 .text          0x0002cd20       0x10 d:/tkstudio/build/sourcery g++ lite/bin/../lib/gcc/arm-none-eabi/4.4.1/../../../../arm-none-eabi/lib/thumb2\libc.a(lib_a-atoi.o)
                0x0002cd20                _atoi_r
                0x0002cd28                atoi
 .text          0x0002cd30        0x0 d:/tkstudio/build/sourcery g++ lite/bin/../lib/gcc/arm-none-eabi/4.4.1/../../../../arm-none-eabi/lib/thumb2\libc.a(lib_a-ctype_.o)
 .text          0x0002cd30        0xc d:/tkstudio/build/sourcery g++ lite/bin/../lib/gcc/arm-none-eabi/4.4.1/../../../../arm-none-eabi/lib/thumb2\libc.a(lib_a-errno.o)
                0x0002cd30                __errno
 .text          0x0002cd3c        0x0 d:/tkstudio/build/sourcery g++ lite/bin/../lib/gcc/arm-none-eabi/4.4.1/../../../../arm-none-eabi/lib/thumb2\libc.a(lib_a-impure.o)
 .text          0x0002cd3c       0x64 d:/tkstudio/build/sourcery g++ lite/bin/../lib/gcc/arm-none-eabi/4.4.1/../../../../arm-none-eabi/lib/thumb2\libc.a(lib_a-memcmp.o)
                0x0002cd3c                memcmp
 .text          0x0002cda0      0x190 d:/tkstudio/build/sourcery g++ lite/bin/../lib/gcc/arm-none-eabi/4.4.1/../../../../arm-none-eabi/lib/thumb2\libc.a(lib_a-memcpy.o)
                0x0002cda0                memcpy
 .text          0x0002cf30       0xb8 d:/tkstudio/build/sourcery g++ lite/bin/../lib/gcc/arm-none-eabi/4.4.1/../../../../arm-none-eabi/lib/thumb2\libc.a(lib_a-memmove.o)
                0x0002cf30                memmove
 .text          0x0002cfe8       0xd4 d:/tkstudio/build/sourcery g++ lite/bin/../lib/gcc/arm-none-eabi/4.4.1/../../../../arm-none-eabi/lib/thumb2\libc.a(lib_a-memset.o)
                0x0002cfe8                memset
 .text          0x0002d0bc       0x88 d:/tkstudio/build/sourcery g++ lite/bin/../lib/gcc/arm-none-eabi/4.4.1/../../../../arm-none-eabi/lib/thumb2\libc.a(lib_a-puts.o)
                0x0002d0bc                _puts_r
                0x0002d134                puts
 .text          0x0002d144       0xb8 d:/tkstudio/build/sourcery g++ lite/bin/../lib/gcc/arm-none-eabi/4.4.1/../../../../arm-none-eabi/lib/thumb2\libc.a(lib_a-sscanf.o)
                0x0002d148                _sscanf_r
                0x0002d1a0                sscanf
 .text          0x0002d1fc       0x7c d:/tkstudio/build/sourcery g++ lite/bin/../lib/gcc/arm-none-eabi/4.4.1/../../../../arm-none-eabi/lib/thumb2\libc.a(lib_a-strcasecmp.o)
                0x0002d1fc                strcasecmp
 .text          0x0002d278       0xc0 d:/tkstudio/build/sourcery g++ lite/bin/../lib/gcc/arm-none-eabi/4.4.1/../../../../arm-none-eabi/lib/thumb2\libc.a(lib_a-strchr.o)
                0x0002d278                strchr
 .text          0x0002d338      0x1dc d:/tkstudio/build/sourcery g++ lite/bin/../lib/gcc/arm-none-eabi/4.4.1/../../../../arm-none-eabi/lib/thumb2\libc.a(lib_a-strcmp.o)
                0x0002d338                strcmp
 .text          0x0002d514       0x60 d:/tkstudio/build/sourcery g++ lite/bin/../lib/gcc/arm-none-eabi/4.4.1/../../../../arm-none-eabi/lib/thumb2\libc.a(lib_a-strlen.o)
                0x0002d514                strlen
 .text          0x0002d574       0x70 d:/tkstudio/build/sourcery g++ lite/bin/../lib/gcc/arm-none-eabi/4.4.1/../../../../arm-none-eabi/lib/thumb2\libc.a(lib_a-strncasecmp.o)
                0x0002d574                strncasecmp
 .text          0x0002d5e4       0x78 d:/tkstudio/build/sourcery g++ lite/bin/../lib/gcc/arm-none-eabi/4.4.1/../../../../arm-none-eabi/lib/thumb2\libc.a(lib_a-strncpy.o)
                0x0002d5e4                strncpy
 .text          0x0002d65c       0x40 d:/tkstudio/build/sourcery g++ lite/bin/../lib/gcc/arm-none-eabi/4.4.1/../../../../arm-none-eabi/lib/thumb2\libc.a(lib_a-strspn.o)
                0x0002d65c                strspn
 .text          0x0002d69c      0x158 d:/tkstudio/build/sourcery g++ lite/bin/../lib/gcc/arm-none-eabi/4.4.1/../../../../arm-none-eabi/lib/thumb2\libc.a(lib_a-strtol.o)
                0x0002d69c                _strtol_r
                0x0002d7dc                strtol
 .text          0x0002d7f4     0x10f8 d:/tkstudio/build/sourcery g++ lite/bin/../lib/gcc/arm-none-eabi/4.4.1/../../../../arm-none-eabi/lib/thumb2\libc.a(lib_a-svfscanf.o)
                0x0002d8c0                __ssvfscanf_r
 .text          0x0002e8ec      0x1bc d:/tkstudio/build/sourcery g++ lite/bin/../lib/gcc/arm-none-eabi/4.4.1/../../../../arm-none-eabi/lib/thumb2\libc.a(lib_a-ungetc.o)
                0x0002e8ec                __submore
                0x0002e968                _ungetc_r
                0x0002ea98                ungetc
 .text          0x0002eaa8      0x178 d:/tkstudio/build/sourcery g++ lite/bin/../lib/gcc/arm-none-eabi/4.4.1/../../../../arm-none-eabi/lib/thumb2\libc.a(lib_a-fflush.o)
                0x0002eaa8                _fflush_r
                0x0002ebf8                fflush
 .text          0x0002ec20      0x1c8 d:/tkstudio/build/sourcery g++ lite/bin/../lib/gcc/arm-none-eabi/4.4.1/../../../../arm-none-eabi/lib/thumb2\libc.a(lib_a-findfp.o)
                0x0002ec20                __sfp_lock_acquire
                0x0002ec24                __sfp_lock_release
                0x0002ec28                __sinit_lock_acquire
                0x0002ec2c                __sinit_lock_release
                0x0002ec38                __fp_unlock_all
                0x0002ec50                __fp_lock_all
                0x0002ec68                _cleanup_r
                0x0002ec74                _cleanup
                0x0002ecd0                __sfmoreglue
                0x0002ed00                __sfp
                0x0002ed88                __sinit
 .text          0x0002ede8      0x268 d:/tkstudio/build/sourcery g++ lite/bin/../lib/gcc/arm-none-eabi/4.4.1/../../../../arm-none-eabi/lib/thumb2\libc.a(lib_a-freer.o)
                0x0002ede8                _malloc_trim_r
                0x0002ee90                _free_r
 .text          0x0002f050      0x334 d:/tkstudio/build/sourcery g++ lite/bin/../lib/gcc/arm-none-eabi/4.4.1/../../../../arm-none-eabi/lib/thumb2\libc.a(lib_a-fvwrite.o)
                0x0002f050                __sfvwrite_r
 .text          0x0002f384       0xa0 d:/tkstudio/build/sourcery g++ lite/bin/../lib/gcc/arm-none-eabi/4.4.1/../../../../arm-none-eabi/lib/thumb2\libc.a(lib_a-fwalk.o)
                0x0002f384                _fwalk_reent
                0x0002f3d8                _fwalk
 .text          0x0002f424       0x1c d:/tkstudio/build/sourcery g++ lite/bin/../lib/gcc/arm-none-eabi/4.4.1/../../../../arm-none-eabi/lib/thumb2\libc.a(lib_a-iswspace.o)
                0x0002f424                iswspace
 .text          0x0002f440       0x74 d:/tkstudio/build/sourcery g++ lite/bin/../lib/gcc/arm-none-eabi/4.4.1/../../../../arm-none-eabi/lib/thumb2\libc.a(lib_a-locale.o)
                0x0002f440                __locale_charset
                0x0002f44c                _localeconv_r
                0x0002f454                localeconv
                0x0002f45c                _setlocale_r
                0x0002f4a4                setlocale
 .text          0x0002f4b4      0x5a4 d:/tkstudio/build/sourcery g++ lite/bin/../lib/gcc/arm-none-eabi/4.4.1/../../../../arm-none-eabi/lib/thumb2\libc.a(lib_a-mallocr.o)
                0x0002f4b4                _malloc_r
 .text          0x0002fa58       0x5c d:/tkstudio/build/sourcery g++ lite/bin/../lib/gcc/arm-none-eabi/4.4.1/../../../../arm-none-eabi/lib/thumb2\libc.a(lib_a-mbrtowc.o)
                0x0002fa58                _mbrtowc_r
                0x0002fa90                mbrtowc
 .text          0x0002fab4       0x38 d:/tkstudio/build/sourcery g++ lite/bin/../lib/gcc/arm-none-eabi/4.4.1/../../../../arm-none-eabi/lib/thumb2\libc.a(lib_a-mbtowc_r.o)
                0x0002fab4                _mbtowc_r
 .text          0x0002faec       0x74 d:/tkstudio/build/sourcery g++ lite/bin/../lib/gcc/arm-none-eabi/4.4.1/../../../../arm-none-eabi/lib/thumb2\libc.a(lib_a-memchr.o)
                0x0002faec                memchr
 .text          0x0002fb60        0x8 d:/tkstudio/build/sourcery g++ lite/bin/../lib/gcc/arm-none-eabi/4.4.1/../../../../arm-none-eabi/lib/thumb2\libc.a(lib_a-mlock.o)
                0x0002fb60                __malloc_lock
                0x0002fb64                __malloc_unlock
 .text          0x0002fb68      0x3b4 d:/tkstudio/build/sourcery g++ lite/bin/../lib/gcc/arm-none-eabi/4.4.1/../../../../arm-none-eabi/lib/thumb2\libc.a(lib_a-reallocr.o)
                0x0002fb68                _realloc_r
 .text          0x0002ff1c       0x74 d:/tkstudio/build/sourcery g++ lite/bin/../lib/gcc/arm-none-eabi/4.4.1/../../../../arm-none-eabi/lib/thumb2\libc.a(lib_a-sccl.o)
                0x0002ff1c                __sccl
 .text          0x0002ff90        0xc d:/tkstudio/build/sourcery g++ lite/bin/../lib/gcc/arm-none-eabi/4.4.1/../../../../arm-none-eabi/lib/thumb2\libc.a(lib_a-sf_nan.o)
                0x0002ff90                nanf
 .text          0x0002ff9c       0x94 d:/tkstudio/build/sourcery g++ lite/bin/../lib/gcc/arm-none-eabi/4.4.1/../../../../arm-none-eabi/lib/thumb2\libc.a(lib_a-sprintf.o)
                0x0002ff9c                sprintf
                0x0002ffec                _sprintf_r
 .text          0x00030030       0x90 d:/tkstudio/build/sourcery g++ lite/bin/../lib/gcc/arm-none-eabi/4.4.1/../../../../arm-none-eabi/lib/thumb2\libc.a(lib_a-stdio.o)
                0x00030030                __sclose
                0x00030038                __sseek
                0x00030060                __swrite
                0x0003009c                __sread
 .text          0x000300c0     0x1010 d:/tkstudio/build/sourcery g++ lite/bin/../lib/gcc/arm-none-eabi/4.4.1/../../../../arm-none-eabi/lib/thumb2\libc.a(lib_a-strtod.o)
                0x000300c0                _strtod_r
                0x00031030                strtof
                0x000310bc                strtod
 .text          0x000310d0      0x1f0 d:/tkstudio/build/sourcery g++ lite/bin/../lib/gcc/arm-none-eabi/4.4.1/../../../../arm-none-eabi/lib/thumb2\libc.a(lib_a-strtoll_r.o)
                0x000310d0                _strtoll_r
 .text          0x000312c0      0x154 d:/tkstudio/build/sourcery g++ lite/bin/../lib/gcc/arm-none-eabi/4.4.1/../../../../arm-none-eabi/lib/thumb2\libc.a(lib_a-strtoul.o)
                0x000312c0                _strtoul_r
                0x000313fc                strtoul
 .text          0x00031414      0x1ec d:/tkstudio/build/sourcery g++ lite/bin/../lib/gcc/arm-none-eabi/4.4.1/../../../../arm-none-eabi/lib/thumb2\libc.a(lib_a-strtoull_r.o)
                0x00031414                _strtoull_r
 .text          0x00031600     0x15a8 d:/tkstudio/build/sourcery g++ lite/bin/../lib/gcc/arm-none-eabi/4.4.1/../../../../arm-none-eabi/lib/thumb2\libc.a(lib_a-svfprintf.o)
                0x0003171c                _svfprintf_r
 .text          0x00032ba8      0x104 d:/tkstudio/build/sourcery g++ lite/bin/../lib/gcc/arm-none-eabi/4.4.1/../../../../arm-none-eabi/lib/thumb2\libc.a(lib_a-wsetup.o)
                0x00032ba8                __swsetup_r
 *fill*         0x00032cac        0x4 00
 .text          0x00032cb0      0xfb8 d:/tkstudio/build/sourcery g++ lite/bin/../lib/gcc/arm-none-eabi/4.4.1/../../../../arm-none-eabi/lib/thumb2\libc.a(lib_a-dtoa.o)
                0x00032dd0                _dtoa_r
 .text          0x00033c68       0xcc d:/tkstudio/build/sourcery g++ lite/bin/../lib/gcc/arm-none-eabi/4.4.1/../../../../arm-none-eabi/lib/thumb2\libc.a(lib_a-fclose.o)
                0x00033c68                _fclose_r
                0x00033d24                fclose
 .text          0x00033d34      0x5a8 d:/tkstudio/build/sourcery g++ lite/bin/../lib/gcc/arm-none-eabi/4.4.1/../../../../arm-none-eabi/lib/thumb2\libc.a(lib_a-gdtoa-gethex.o)
                0x00033d34                __hexdig_init
                0x00033e20                __gethex
 .text          0x000342dc      0x1bc d:/tkstudio/build/sourcery g++ lite/bin/../lib/gcc/arm-none-eabi/4.4.1/../../../../arm-none-eabi/lib/thumb2\libc.a(lib_a-gdtoa-hexnan.o)
                0x000342dc                __hexnan
 .text          0x00034498       0xdc d:/tkstudio/build/sourcery g++ lite/bin/../lib/gcc/arm-none-eabi/4.4.1/../../../../arm-none-eabi/lib/thumb2\libc.a(lib_a-makebuf.o)
                0x00034498                __smakebuf_r
 .text          0x00034574       0x20 d:/tkstudio/build/sourcery g++ lite/bin/../lib/gcc/arm-none-eabi/4.4.1/../../../../arm-none-eabi/lib/thumb2\libc.a(lib_a-malloc.o)
                0x00034574                free
                0x00034584                malloc
 .text          0x00034594      0x958 d:/tkstudio/build/sourcery g++ lite/bin/../lib/gcc/arm-none-eabi/4.4.1/../../../../arm-none-eabi/lib/thumb2\libc.a(lib_a-mprec.o)
                0x00034594                __hi0bits
                0x000345d4                __lo0bits
                0x00034638                __mcmp
                0x00034678                __ulp
                0x000346c4                __b2d
                0x0003476c                __ratio
                0x000347cc                _mprec_log10
                0x00034804                __copybits
                0x00034854                __any_on
                0x000348ac                _Bfree
                0x000348e4                _Balloc
                0x00034950                __d2b
                0x00034a20                __mdiff
                0x00034b18                __lshift
                0x00034bd4                __multiply
                0x00034d08                __i2b
                0x00034d1c                __multadd
                0x00034da4                __pow5mult
                0x00034e50                __s2b
 .text          0x00034eec       0x24 d:/tkstudio/build/sourcery g++ lite/bin/../lib/gcc/arm-none-eabi/4.4.1/../../../../arm-none-eabi/lib/thumb2\libc.a(lib_a-s_isinfd.o)
                0x00034eec                __isinfd
 .text          0x00034f10       0x5c d:/tkstudio/build/sourcery g++ lite/bin/../lib/gcc/arm-none-eabi/4.4.1/../../../../arm-none-eabi/lib/thumb2\libc.a(lib_a-callocr.o)
                0x00034f10                _calloc_r
 .text          0x00034f6c        0x0 d:/tkstudio/build/sourcery g++ lite/bin/../lib/gcc/arm-none-eabi/4.4.1/thumb2/crtend.o
 .text          0x00034f6c        0x0 d:/tkstudio/build/sourcery g++ lite/bin/../lib/gcc/arm-none-eabi/4.4.1/thumb2/crtn.o
 *(.init)
 .init          0x00034f6c        0x4 d:/tkstudio/build/sourcery g++ lite/bin/../lib/gcc/arm-none-eabi/4.4.1/thumb2/crti.o
                0x00034f6c                _init
 .init          0x00034f70        0x8 d:/tkstudio/build/sourcery g++ lite/bin/../lib/gcc/arm-none-eabi/4.4.1/thumb2/crtn.o
 *(.fini)
 .fini          0x00034f78        0x4 d:/tkstudio/build/sourcery g++ lite/bin/../lib/gcc/arm-none-eabi/4.4.1/thumb2/crti.o
                0x00034f78                _fini
 .fini          0x00034f7c        0x8 d:/tkstudio/build/sourcery g++ lite/bin/../lib/gcc/arm-none-eabi/4.4.1/thumb2/crtn.o
 *crtbegin.o(.ctors)
 *crtbegin?.o(.ctors)
 *(EXCLUDE_FILE(*crtend.o *crtend?.o) .ctors)
 *(SORT(.ctors.*))
 *(.ctors)
 *crtbegin.o(.dtors)
 *crtbegin?.o(.dtors)
 *(EXCLUDE_FILE(*crtend.o *crtend?.o) .dtors)
 *(SORT(.dtors.*))
 *(.dtors)
 *(.rodata*)
 .rodata        0x00034f84       0x14 ..\obj\breakpoint.o
 .rodata.str1.4
                0x00034f98       0xa5 ..\obj\breakpoint.o
                                 0xa8 (size before relaxing)
 *fill*         0x0003503d        0x3 00
 .rodata.str1.4
                0x00035040       0x2b ..\obj\main.o
                                 0x2c (size before relaxing)
 *fill*         0x0003506b        0x1 00
 .rodata        0x0003506c       0xe4 ..\obj\sys_vol.o
                0x0003506c                TrebBassTab
                0x00035084                gHfVolArr
                0x000350a4                gDecVolArr
                0x000350e8                gAnaVolArr
                0x0003512c                gMicVolArr
 .rodata.str1.4
                0x00035150      0x13e ..\obj\sys_vol.o
                                0x140 (size before relaxing)
 *fill*         0x0003528e        0x2 00
 .rodata        0x00035290       0x48 ..\obj\dev_state_machine.o
 .rodata.str1.4
                0x000352d8       0x23 ..\obj\dev_state_machine.o
                                 0x24 (size before relaxing)
 *fill*         0x000352fb        0x1 00
 .rodata.str1.4
                0x000352fc        0x7 ..\obj\print.o
                                  0x8 (size before relaxing)
 *fill*         0x00035303        0x1 00
 .rodata.str1.4
                0x00035304      0x230 ..\obj\debug_test.o
                                0x234 (size before relaxing)
 .rodata        0x00035534      0x108 ..\obj\RDA5807.o
                0x00035534                RDA5807HP_REG
                0x000355b8                RDA5807PE_REG
                0x000355f8                RDA5807N_REG
 .rodata.str1.4
                0x0003563c       0x35 ..\obj\RDA5807.o
                                 0x38 (size before relaxing)
 *fill*         0x00035671        0x3 00
 .rodata        0x00035674        0x4 ..\obj\sys_app.o
 .rodata.str1.4
                0x00035678       0x5d ..\obj\sys_app.o
                                 0xbc (size before relaxing)
 *fill*         0x000356d5        0x3 00
 .rodata.str1.4
                0x000356d8      0x75d ..\obj\player_control.o
                                0x764 (size before relaxing)
 *fill*         0x00035e35        0x3 00
 .rodata.str1.4
                0x00035e38       0x49 ..\obj\startup.o
                                 0x4c (size before relaxing)
 *fill*         0x00035e81        0x3 00
 .rodata.str1.4
                0x00035e84      0x2df ..\obj\recorder_control.o
                                0x318 (size before relaxing)
 *fill*         0x00036163        0x1 00
 .rodata.str1.4
                0x00036164       0x10 ..\obj\mass_test.o
                                 0x14 (size before relaxing)
 .rodata        0x00036174        0xc ..\obj\partition.o
 .rodata.str1.4
                0x00036180       0x33 ..\obj\partition.o
                                 0x34 (size before relaxing)
 *fill*         0x000361b3        0x1 00
 .rodata        0x000361b4       0xec ..\obj\ir_key.o
 .rodata.str1.4
                0x000362a0        0xc ..\obj\ir_key.o
 .rodata.str1.4
                0x000362ac      0x195 ..\obj\upgrade_detect.o
                                0x198 (size before relaxing)
 *fill*         0x00036441        0x3 00
 .rodata.str1.4
                0x00036444       0xaa ..\obj\dev_detect_driver.o
                                 0xac (size before relaxing)
 *fill*         0x000364ee        0x2 00
 .rodata.str1.4
                0x000364f0       0xdf ..\obj\get_bootup_info.o
                                 0xe0 (size before relaxing)
 *fill*         0x000365cf        0x1 00
 .rodata        0x000365d0       0xc8 ..\obj\adc_key.o
 .rodata.str1.4
                0x00036698        0xe ..\obj\adc_key.o
                                 0x10 (size before relaxing)
 *fill*         0x000366a6        0x2 00
 .rodata.str1.4
                0x000366a8       0x99 ..\obj\sound_remind.o
                                 0x9c (size before relaxing)
 *fill*         0x00036741        0x3 00
 .rodata.str1.4
                0x00036744      0x192 ..\obj\browser.o
                                0x194 (size before relaxing)
 *fill*         0x000368d6        0x2 00
 .rodata        0x000368d8       0xd4 ..\obj\rtc_control.o
 .rodata.str1.4
                0x000369ac      0x410 ..\obj\rtc_control.o
                                0x414 (size before relaxing)
 .rodata        0x00036dbc     0xb048 ..\obj\string_convert.o
 .rodata.str1.4
                0x00041e04       0x48 ..\obj\line_in_control.o
 .rodata.str1.4
                0x00041e4c       0x8a ..\obj\radio.o
                                 0x8c (size before relaxing)
 *fill*         0x00041ed6        0x2 00
 .rodata        0x00041ed8      0x104 ..\obj\eq_params.o
                0x00041ed8                EQ_SET
 .rodata.str1.4
                0x00041fdc       0x10 ..\obj\i2c.o
 .rodata.str1.4
                0x00041fec       0x17 ..\obj\idle_control.o
                                 0x18 (size before relaxing)
 *fill*         0x00042003        0x1 00
 .rodata        0x00042004        0x8 ..\obj\radio_control.o
 .rodata.str1.4
                0x0004200c      0x1ae ..\obj\radio_control.o
                                0x1b0 (size before relaxing)
 *fill*         0x000421ba        0x2 00
 .rodata.str1.4
                0x000421bc       0x1e ..\obj\key.o
                                 0x20 (size before relaxing)
 *fill*         0x000421da        0x2 00
 .rodata.str1.4
                0x000421dc       0x5a ..\obj\task_main.o
                                 0x5c (size before relaxing)
 *fill*         0x00042236        0x2 00
 .rodata.str1.4
                0x00042238      0x123 ..\obj\presearch.o
                                0x128 (size before relaxing)
 *fill*         0x0004235b        0x1 00
 .rodata.str1.4
                0x0004235c       0xf7 ..\obj\power_management.o
                                 0xf8 (size before relaxing)
 *fill*         0x00042453        0x1 00
 .rodata        0x00042454       0x24 ..\..\..\..\..\lib\libdriver.a(gpio.o)
                0x00042454                driver_version
 .rodata        0x00042478        0x8 ..\..\..\..\..\lib\libdriver.a(host_stor.o)
 .rodata        0x00042480       0x30 ..\..\..\..\..\lib\libdriver.a(host_hcd.o)
 .rodata.str1.4
                0x000424b0        0x8 ..\..\..\..\..\lib\libdriver.a(host_hcd.o)
 .rodata        0x000424b8      0x170 ..\..\..\..\..\lib\libdriver.a(rtc_lunar.o)
                0x000424b8                LunarMonthTable
 .rodata.str1.4
                0x00042628        0x4 ..\..\..\..\..\lib\libdriver.a(audio_adc.o)
 .rodata        0x0004262c       0x60 ..\..\..\..\..\lib\libdriver.a(rtc.o)
                0x00042638                MonthOffsetTable
                0x00042654                s_leapdays
                0x00042670                s_days
 .rodata        0x0004268c       0x90 ..\..\..\..\..\lib\libdriver.a(i2s.o)
                0x00042700                I2sSampleRate
                0x00042714                I2sClassDSampleRate
 .rodata.str1.4
                0x0004271c       0x17 ..\..\..\..\..\lib\libdriver.a(sd_card.o)
                                 0x18 (size before relaxing)
 *fill*         0x00042733        0x1 00
 .rodata        0x00042734      0x184 ..\..\..\..\..\lib\libdriver.a(sample_rate_convert.o)
                0x00042734                FilterCoef
 .rodata        0x000428b8      0x224 ..\..\..\..\..\lib\libdriver.a(device_stor_audio_request.o)
                0x00042ab8                gHidReportDescriptor
 .rodata        0x00042adc       0x1c ..\..\..\..\..\lib\libdriver.a(device_hcd.o)
 .rodata.str1.4
                0x00000000        0x8 ..\..\..\..\..\lib\libdriver.a(device_hcd.o)
 .rodata        0x00042af8       0x94 ..\..\..\..\..\lib\libdriver.a(dac.o)
                0x00042b78                DacAdcSampleRate
 .rodata.str1.4
                0x00042b8c        0x4 ..\..\..\..\..\lib\libdriver.a(dac.o)
 .rodata        0x00042b90      0x370 ..\..\..\..\..\lib\libdriver.a(adc.o)
 .rodata.str1.4
                0x00042f00        0x9 ..\..\..\..\..\lib\libdriver.a(lrc.o)
                                  0xc (size before relaxing)
 *fill*         0x00042f09        0x3 00
 .rodata        0x00042f0c       0x2c ..\..\..\..\..\lib\libdriver.a(device_stor.o)
                0x00042f0c                gModeSenseProtectPage
                0x00042f10                gRequestSenseNotReady
                0x00042f24                gRequestSenseReady
 .rodata.str1.4
                0x00042f38        0x5 ..\..\..\..\..\lib\libdriver.a(device_stor.o)
                                  0x8 (size before relaxing)
 *fill*         0x00042f3d        0x3 00
 .rodata.str1.4
                0x00042f40       0x77 ..\..\..\..\..\lib\libos.a(init.o)
                                 0x78 (size before relaxing)
 *fill*         0x00042fb7        0x1 00
 .rodata.str1.4
                0x00042fb8      0x3b8 ..\..\..\..\..\lib\libos.a(mmm.o)
 .rodata        0x00043370       0x24 ..\..\..\..\..\lib\libos.a(setup.o)
                0x00043370                os_version
 .rodata.str1.4
                0x00043394       0xf5 ..\..\..\..\..\lib\libos.a(setup.o)
                                 0xf8 (size before relaxing)
 *fill*         0x00043489        0x3 00
 .rodata.str1.4
                0x0004348c      0x408 ..\..\..\..\..\lib\libos.a(msgq.o)
 .rodata.str1.4
                0x00043894      0x218 ..\..\..\..\..\lib\libos.a(shell.o)
                                0x230 (size before relaxing)
 .rodata.str1.4
                0x00043aac      0x364 ..\..\..\..\..\lib\libos.a(auxinfo.o)
                                0x368 (size before relaxing)
 .rodata.str1.4
                0x00043e10      0x263 ..\..\..\..\..\lib\libos.a(tasks.o)
                                0x268 (size before relaxing)
 *fill*         0x00044073        0x1 00
 .rodata        0x00044074        0xc ..\..\..\..\..\lib\libfs.a(dir.o)
 .rodata.str1.4
                0x00044080       0x12 ..\..\..\..\..\lib\libfs.a(fat_file.o)
                                 0x14 (size before relaxing)
 *fill*         0x00044092        0x2 00
 .rodata        0x00044094        0x4 ..\..\..\..\..\lib\libfs.a(dir_lookup.o)
 .rodata.str1.4
                0x00044098        0x2 ..\..\..\..\..\lib\libfs.a(dir_lookup.o)
                                  0x4 (size before relaxing)
 *fill*         0x0004409a        0x2 00
 .rodata        0x0004409c       0x24 ..\..\..\..\..\lib\libfs.a(fsinfo.o)
                0x0004409c                fs_version
 .rodata.str1.4
                0x000440c0        0x7 ..\..\..\..\..\lib\libfs.a(folder.o)
                                  0x8 (size before relaxing)
 *fill*         0x000440c7        0x1 00
 .rodata.str1.4
                0x000440c8        0x6 d:/tkstudio/build/sourcery g++ lite/bin/../lib/gcc/arm-none-eabi/4.4.1/../../../../arm-none-eabi/lib/thumb2\libm.a(lib_a-w_log10.o)
                                  0xc (size before relaxing)
 *fill*         0x000440ce        0x2 00
 .rodata        0x000440d0      0x188 d:/tkstudio/build/sourcery g++ lite/bin/../lib/gcc/arm-none-eabi/4.4.1/../../../../arm-none-eabi/lib/thumb2\libm.a(lib_a-e_rem_pio2.o)
 .rodata        0x00044258       0x50 d:/tkstudio/build/sourcery g++ lite/bin/../lib/gcc/arm-none-eabi/4.4.1/../../../../arm-none-eabi/lib/thumb2\libm.a(lib_a-k_rem_pio2.o)
 .rodata        0x000442a8      0x104 d:/tkstudio/build/sourcery g++ lite/bin/../lib/gcc/arm-none-eabi/4.4.1/../../../../arm-none-eabi/lib/thumb2\libc.a(lib_a-ctype_.o)
                0x000442a8                _ctype_
 .rodata        0x000443ac        0x4 d:/tkstudio/build/sourcery g++ lite/bin/../lib/gcc/arm-none-eabi/4.4.1/../../../../arm-none-eabi/lib/thumb2\libc.a(lib_a-impure.o)
                0x000443ac                _global_impure_ptr
 .rodata.str1.4
                0x000443b0        0x2 d:/tkstudio/build/sourcery g++ lite/bin/../lib/gcc/arm-none-eabi/4.4.1/../../../../arm-none-eabi/lib/thumb2\libc.a(lib_a-impure.o)
                                  0x4 (size before relaxing)
 .rodata.str1.4
                0x00000000        0x4 d:/tkstudio/build/sourcery g++ lite/bin/../lib/gcc/arm-none-eabi/4.4.1/../../../../arm-none-eabi/lib/thumb2\libc.a(lib_a-puts.o)
 *fill*         0x000443b2        0x2 00
 .rodata        0x000443b4       0x24 d:/tkstudio/build/sourcery g++ lite/bin/../lib/gcc/arm-none-eabi/4.4.1/../../../../arm-none-eabi/lib/thumb2\libc.a(lib_a-svfscanf.o)
 .rodata.str1.4
                0x000443d8        0x5 d:/tkstudio/build/sourcery g++ lite/bin/../lib/gcc/arm-none-eabi/4.4.1/../../../../arm-none-eabi/lib/thumb2\libc.a(lib_a-svfscanf.o)
                                  0x8 (size before relaxing)
 *fill*         0x000443dd        0x3 00
 .rodata        0x000443e0       0x60 d:/tkstudio/build/sourcery g++ lite/bin/../lib/gcc/arm-none-eabi/4.4.1/../../../../arm-none-eabi/lib/thumb2\libc.a(lib_a-findfp.o)
                0x000443e0                __sf_fake_stdin
                0x00044400                __sf_fake_stdout
                0x00044420                __sf_fake_stderr
 .rodata        0x00044440       0x34 d:/tkstudio/build/sourcery g++ lite/bin/../lib/gcc/arm-none-eabi/4.4.1/../../../../arm-none-eabi/lib/thumb2\libc.a(lib_a-locale.o)
 .rodata.str1.4
                0x00044474        0xb d:/tkstudio/build/sourcery g++ lite/bin/../lib/gcc/arm-none-eabi/4.4.1/../../../../arm-none-eabi/lib/thumb2\libc.a(lib_a-locale.o)
                                 0x18 (size before relaxing)
 .rodata.str1.4
                0x00000000        0x4 d:/tkstudio/build/sourcery g++ lite/bin/../lib/gcc/arm-none-eabi/4.4.1/../../../../arm-none-eabi/lib/thumb2\libc.a(lib_a-mbrtowc.o)
 *fill*         0x0004447f        0x1 00
 .rodata        0x00044480       0x28 d:/tkstudio/build/sourcery g++ lite/bin/../lib/gcc/arm-none-eabi/4.4.1/../../../../arm-none-eabi/lib/thumb2\libc.a(lib_a-strtod.o)
 .rodata.str1.4
                0x000444a8        0xf d:/tkstudio/build/sourcery g++ lite/bin/../lib/gcc/arm-none-eabi/4.4.1/../../../../arm-none-eabi/lib/thumb2\libc.a(lib_a-strtod.o)
                                 0x10 (size before relaxing)
 *fill*         0x000444b7        0x1 00
 .rodata        0x000444b8       0x20 d:/tkstudio/build/sourcery g++ lite/bin/../lib/gcc/arm-none-eabi/4.4.1/../../../../arm-none-eabi/lib/thumb2\libc.a(lib_a-svfprintf.o)
 .rodata.str1.4
                0x000444d8       0x35 d:/tkstudio/build/sourcery g++ lite/bin/../lib/gcc/arm-none-eabi/4.4.1/../../../../arm-none-eabi/lib/thumb2\libc.a(lib_a-svfprintf.o)
                                 0x44 (size before relaxing)
 *fill*         0x0004450d        0x3 00
 .rodata.str1.4
                0x00044510       0x10 d:/tkstudio/build/sourcery g++ lite/bin/../lib/gcc/arm-none-eabi/4.4.1/../../../../arm-none-eabi/lib/thumb2\libc.a(lib_a-dtoa.o)
                                 0x14 (size before relaxing)
 .rodata.str1.4
                0x00044520       0x1c d:/tkstudio/build/sourcery g++ lite/bin/../lib/gcc/arm-none-eabi/4.4.1/../../../../arm-none-eabi/lib/thumb2\libc.a(lib_a-gdtoa-gethex.o)
 *fill*         0x0004453c        0x4 00
 .rodata        0x00044540      0x128 d:/tkstudio/build/sourcery g++ lite/bin/../lib/gcc/arm-none-eabi/4.4.1/../../../../arm-none-eabi/lib/thumb2\libc.a(lib_a-mprec.o)
                0x00044540                __mprec_tens
                0x00044618                __mprec_bigtens
                0x00044640                __mprec_tinytens
 *(.eh_fram e*)

.glue_7         0x00044668        0x0
 .glue_7        0x00000000        0x0 linker stubs

.glue_7t        0x00044668        0x0
 .glue_7t       0x00000000        0x0 linker stubs

.vfp11_veneer   0x00044668        0x0
 .vfp11_veneer  0x00000000        0x0 linker stubs

.v4_bx          0x00044668        0x0
 .v4_bx         0x00000000        0x0 linker stubs

.driver.isr     0x00044668      0x3a4
 .driver.isr    0x00044668       0x14 ..\obj\main.o
                0x00044668                Timer1Interrupt
 .driver.isr    0x0004467c      0x104 ..\obj\debug_test.o
                0x0004467c                FuartInterrupt
 .driver.isr    0x00044780       0x1c ..\obj\rtc_control.o
                0x00044780                RtcInterrupt
 .driver.isr    0x0004479c       0x54 ..\obj\coding_key.o
                0x0004479c                GpioInterrupt
 .driver.isr    0x000447f0       0x1c ..\..\..\..\..\lib\libdriver.a(timeout.o)
 .driver.isr    0x0004480c       0x94 ..\..\..\..\..\lib\libdriver.a(fuart.o)
 .driver.isr    0x000448a0       0x84 ..\..\..\..\..\lib\libdriver.a(buart.o)
                0x000448a0                BuartInterrupt
 .driver.isr    0x00044924       0xe8 ..\..\..\..\..\lib\libdriver.a(otg_int.o)
                0x00044924                UsbInterrupt

CACHE.4KBMEM    0x00044a0c      0x170
 CACHE.4KBMEM   0x00044a0c      0x170 ..\..\..\..\..\lib\libdriver.a(spi_flash.o)
                0x00044a0c                SpiFlashIOCtl
                0x00044af4                SpiFlashErase
                0x00044b24                SpiFlashRead
                0x00044b58                SpiFlashInfoInit

.mach.init      0x00044b7c      0x498
 .mach.init     0x00044b7c      0x138 ..\..\..\..\..\lib\libos.a(init.o)
                0x00044b7c                calibrate_delay
 .mach.init     0x00044cb4      0x2b8 ..\..\..\..\..\lib\libos.a(mmm.o)
                0x00044cb4                mmm_init
 .mach.init     0x00044f6c       0x8c ..\..\..\..\..\lib\libos.a(setup.o)
                0x00044f6c                arch_nvic_config
                0x00044f90                systick_config
 .mach.init     0x00044ff8       0x1c ..\..\..\..\..\lib\libos.a(msgq.o)
                0x00044ff8                msgq_init

.ARM.extab      0x00045014        0x0
 *(.ARM.extab* .gnu.linkonce.armextab.*)
 .ARM.extab     0x00045014        0x0 d:/tkstudio/build/sourcery g++ lite/bin/../lib/gcc/arm-none-eabi/4.4.1/thumb2\libgcc.a(_divdi3.o)
 .ARM.extab     0x00045014        0x0 d:/tkstudio/build/sourcery g++ lite/bin/../lib/gcc/arm-none-eabi/4.4.1/thumb2\libgcc.a(_udivdi3.o)
                0x00045014                __exidx_start = .

.notify0.init   0x00045014        0x4
 .notify0.init  0x00045014        0x4 ..\..\..\..\..\lib\libos.a(init.o)
                0x00045014                __notify_call_start

.notify4.init   0x00045018        0x4
 .notify4.init  0x00045018        0x4 ..\..\..\..\..\lib\libos.a(init.o)
                0x00045018                __notify_call_end

.mach9.init     0x0004501c        0x4
 .mach9.init    0x0004501c        0x4 ..\..\..\..\..\lib\libos.a(init.o)
                0x0004501c                __init_call_end

.mach0.init     0x00045020        0x4
 .mach0.init    0x00045020        0x4 ..\..\..\..\..\lib\libos.a(init.o)
                0x00045020                __init_call_start

.mach4.init     0x00045024        0x4
 .mach4.init    0x00045024        0x4 ..\..\..\..\..\lib\libos.a(init.o)
                0x00045024                __F4_calibrate_delay

.mach5.init     0x00045028        0x4
 .mach5.init    0x00045028        0x4 ..\..\..\..\..\lib\libos.a(mmm.o)
                0x00045028                __F5_mmm_init

.mach3.init     0x0004502c        0x8
 .mach3.init    0x0004502c        0x8 ..\..\..\..\..\lib\libos.a(setup.o)
                0x0004502c                __F3_systick_config
                0x00045030                __F3_arch_nvic_config

.mach8.init     0x00045034        0x4
 .mach8.init    0x00045034        0x4 ..\..\..\..\..\lib\libos.a(msgq.o)
                0x00045034                __F8_msgq_init

.ARM.exidx      0x00045038        0x8
 *(.ARM.exidx* .gnu.linkonce.armexidx.*)
 .ARM.exidx     0x00045038        0x8 d:/tkstudio/build/sourcery g++ lite/bin/../lib/gcc/arm-none-eabi/4.4.1/thumb2\libgcc.a(_divdi3.o)
 .ARM.exidx     0x00045040        0x0 d:/tkstudio/build/sourcery g++ lite/bin/../lib/gcc/arm-none-eabi/4.4.1/thumb2\libgcc.a(_udivdi3.o)
                                  0x8 (size before relaxing)
                0x00045040                __exidx_end = .
                0x00045040                __etext = .
                0x00045040                _sidata = __etext

.data           0x20000400     0x17a8 load address 0x00045040
                0x20000400                __data_start__ = .
                0x20000400                _sdata = __data_start__
 *(vtable)
 *(.data*)
 .data          0x20000400        0x0 d:/tkstudio/build/sourcery g++ lite/bin/../lib/gcc/arm-none-eabi/4.4.1/thumb2/crti.o
 .data          0x20000400        0x4 d:/tkstudio/build/sourcery g++ lite/bin/../lib/gcc/arm-none-eabi/4.4.1/thumb2/crtbegin.o
                0x20000400                __dso_handle
 .data          0x20000404        0x0 ..\obj\i2s_in_control.o
 .data          0x20000404        0x4 ..\obj\breakpoint.o
 .data          0x20000408       0x54 ..\obj\main.o
                0x20000408                xMutex
 .data          0x2000045c       0x18 ..\obj\sys_vol.o
                0x20000460                BassTreb_0db
                0x20000470                mixer_pcm_format
 .data          0x20000474        0x0 ..\obj\dev_state_machine.o
 .data          0x20000474        0x0 ..\obj\mtk_fm_drv.o
 .data          0x20000474        0x1 ..\obj\print.o
 .data          0x20000475        0x0 ..\obj\debug_test.o
 .data          0x20000475        0x0 ..\obj\RDA5807.o
 .data          0x20000475        0x1 ..\obj\sys_app.o
 .data          0x20000476        0x0 ..\obj\player_control.o
 .data          0x20000476        0x0 ..\obj\startup.o
 *fill*         0x20000476        0x2 00
 .data          0x20000478       0xb8 ..\obj\recorder_control.o
                0x20000478                WriteMemBufPtr
                0x2000047c                ReadMemBufPtr
                0x20000480                MpWriteBufPtr
                0x20000484                RecSema
                0x200004d8                RecProcSema
                0x2000052c                MpReadBufPtr
 .data          0x20000530        0x0 ..\obj\micro_adjust.o
 .data          0x20000530        0x0 ..\obj\mass_test.o
 .data          0x20000530        0x0 ..\obj\partition.o
 .data          0x20000530        0x0 ..\obj\asc16.o
 .data          0x20000530        0x2 ..\obj\ir_key.o
 .data          0x20000532        0x0 ..\obj\filesort.o
 .data          0x20000532        0x0 ..\obj\upgrade_detect.o
 *fill*         0x20000532        0x2 00
 .data          0x20000534       0xb0 ..\obj\dev_detect_driver.o
                0x20000538                GpioSdClkSema
                0x2000058c                QuickRespSema
 .data          0x200005e4        0x0 ..\obj\get_bootup_info.o
 .data          0x200005e4        0x0 ..\obj\QN8035.o
 .data          0x200005e4        0x1 ..\obj\adc_key.o
 .data          0x200005e5        0x0 ..\obj\sound_remind.o
 .data          0x200005e5        0x0 ..\obj\browser.o
 .data          0x200005e5        0x0 ..\obj\diskio.o
 .data          0x200005e5        0x0 ..\obj\rtc_control.o
 .data          0x200005e5        0x0 ..\obj\power_key.o
 .data          0x200005e5        0x0 ..\obj\coding_key.o
 .data          0x200005e5        0x0 ..\obj\string_convert.o
 .data          0x200005e5        0x0 ..\obj\line_in_control.o
 .data          0x200005e5        0x0 ..\obj\radio.o
 .data          0x200005e5        0x0 ..\obj\eq_params.o
 .data          0x200005e5        0x0 ..\obj\i2c.o
 .data          0x200005e5        0x0 ..\obj\font.o
 .data          0x200005e5        0x0 ..\obj\idle_control.o
 .data          0x200005e5        0x0 ..\obj\hzk16.o
 .data          0x200005e5        0x0 ..\obj\radio_control.o
 .data          0x200005e5        0x0 ..\obj\key.o
 .data          0x200005e5        0x0 ..\obj\task_main.o
 *fill*         0x200005e5        0x3 00
 .data          0x200005e8        0x8 ..\obj\presearch.o
                0x200005ee                UpgradeFileFound
 .data          0x200005f0        0x4 ..\obj\power_management.o
                0x200005f2                LdoinSampleCnt
 .data          0x200005f4        0x1 ..\obj\retarget.o
 .data          0x200005f5        0x0 ..\..\..\..\..\lib\libdriver.a(eq.o)
 .data          0x200005f5        0x0 ..\..\..\..\..\lib\libdriver.a(gpio.o)
 .data          0x200005f5        0x0 ..\..\..\..\..\lib\libdriver.a(beep.o)
 *fill*         0x200005f5        0x1 00
 .data          0x200005f6        0x6 ..\..\..\..\..\lib\libdriver.a(otg_detect_usb1.o)
                0x200005f6                UsbHostEnable_USB1
                0x200005f7                UsbLinkState_USB1
                0x200005f8                UsbDetectSofTimeOut
                0x200005f9                UsbDeviceEnable_USB1
                0x200005fa                UsbDeviceSofTimeOut_USB1
 .data          0x200005fc        0x0 ..\..\..\..\..\lib\libdriver.a(timer_api.o)
 .data          0x200005fc       0x20 ..\..\..\..\..\lib\libdriver.a(host_stor.o)
                0x200005fc                cbw
 .data          0x2000061c        0x1 ..\..\..\..\..\lib\libdriver.a(host_hcd.o)
                0x2000061c                gMaxPacketSize0
 .data          0x2000061d        0x0 ..\..\..\..\..\lib\libdriver.a(rst.o)
 .data          0x2000061d        0x0 ..\..\..\..\..\lib\libdriver.a(wakeup.o)
 .data          0x2000061d        0x0 ..\..\..\..\..\lib\libdriver.a(nvm.o)
 .data          0x2000061d        0x0 ..\..\..\..\..\lib\libdriver.a(rtc_lunar.o)
 .data          0x2000061d        0x0 ..\..\..\..\..\lib\libdriver.a(pcm_transfer.o)
 .data          0x2000061d        0x0 ..\..\..\..\..\lib\libdriver.a(watchdog.o)
 *fill*         0x2000061d        0x3 00
 .data          0x20000620       0x20 ..\..\..\..\..\lib\libdriver.a(device_audio.o)
                0x20000620                gFpDeviceAudioMuteEn
                0x20000624                gFpDeviceAudioMuteDis
                0x20000628                AudioLeftVolume
                0x2000062a                AudioRightVolume
                0x2000062c                gFpDeviceAudioSetVolume
                0x20000630                gFpDeviceAudioMicMuteEn
                0x20000634                gFpDeviceAudioMicMuteDis
                0x20000638                AudioMicLeftVolume
                0x2000063a                AudioMicRightVolume
                0x2000063c                gFpDeviceAudioMicSetVolume
 .data          0x20000640        0x0 ..\..\..\..\..\lib\libdriver.a(audio_adc.o)
 .data          0x20000640        0x0 ..\..\..\..\..\lib\libdriver.a(mixer.o)
 .data          0x20000640        0x1 ..\..\..\..\..\lib\libdriver.a(rtc.o)
                0x20000640                CurrAlarmIndex
 .data          0x20000641        0x0 ..\..\..\..\..\lib\libdriver.a(i2s.o)
 .data          0x20000641        0x0 ..\..\..\..\..\lib\libdriver.a(sd_card.o)
 .data          0x20000641        0x1 ..\..\..\..\..\lib\libdriver.a(sdio.o)
 .data          0x20000642        0x0 ..\..\..\..\..\lib\libdriver.a(random.o)
 .data          0x20000642        0x0 ..\..\..\..\..\lib\libdriver.a(sample_rate_convert.o)
 *fill*         0x20000642        0x2 00
 .data          0x20000644       0x24 ..\..\..\..\..\lib\libdriver.a(device_stor_audio_request.o)
                0x20000644                gDeviceMode
                0x20000648                gDeviceSpeakerSampleRate
                0x2000064c                gDeviceMicSampleRate
                0x20000650                gDeviceDescriptor
                0x20000664                DeviceString_LangID
 .data          0x20000668        0x4 ..\..\..\..\..\lib\libdriver.a(timeout.o)
                0x20000668                loops_per_tick
 .data          0x2000066c        0x4 ..\..\..\..\..\lib\libdriver.a(device_hcd.o)
                0x2000066c                gUsbDeviceTimeout
                0x2000066e                gUsbDeviceDisconnectTime
 .data          0x20000670        0x0 ..\..\..\..\..\lib\libdriver.a(ir.o)
 .data          0x20000670        0x1 ..\..\..\..\..\lib\libdriver.a(otg_detect.o)
 *fill*         0x20000671        0x1 00
 .data          0x20000672        0x8 ..\..\..\..\..\lib\libdriver.a(dac.o)
 .data          0x2000067a        0x1 ..\..\..\..\..\lib\libdriver.a(spi_flash.o)
 .data          0x2000067b        0x0 ..\..\..\..\..\lib\libdriver.a(audio_path.o)
 .data          0x2000067b        0x0 ..\..\..\..\..\lib\libdriver.a(timer.o)
 .data          0x2000067b        0x0 ..\..\..\..\..\lib\libdriver.a(clk.o)
 .data          0x2000067b        0x0 ..\..\..\..\..\lib\libdriver.a(otg_hal.o)
 .data          0x2000067b        0x0 ..\..\..\..\..\lib\libdriver.a(adc.o)
 .data          0x2000067b        0x0 ..\..\..\..\..\lib\libdriver.a(lrc.o)
 .data          0x2000067b        0x0 ..\..\..\..\..\lib\libdriver.a(cache.o)
 .data          0x2000067b        0x0 ..\..\..\..\..\lib\libdriver.a(pcm_fifo.o)
 *fill*         0x2000067b        0x1 00
 .data          0x2000067c        0x6 ..\..\..\..\..\lib\libdriver.a(otg_detect_usb2.o)
                0x2000067c                UsbHostEnable_USB2
                0x2000067d                UsbLinkState_USB2
                0x2000067e                UsbDeviceEnable_USB2
                0x20000680                UsbDeviceSofTimeOut_USB2
 .data          0x20000682        0x0 ..\..\..\..\..\lib\libdriver.a(fuart.o)
 .data          0x20000682        0x0 ..\..\..\..\..\lib\libdriver.a(ldo_config.o)
 *fill*         0x20000682        0x2 00
 .data          0x20000684        0x4 ..\..\..\..\..\lib\libdriver.a(buart.o)
 .data          0x20000688        0x0 ..\..\..\..\..\lib\libdriver.a(pmem.o)
 .data          0x20000688        0x0 ..\..\..\..\..\lib\libdriver.a(pcm_play.o)
 .data          0x20000688        0x0 ..\..\..\..\..\lib\libdriver.a(host_stor_request.o)
 .data          0x20000688        0x0 ..\..\..\..\..\lib\libdriver.a(otg_int.o)
 .data          0x20000688       0x54 ..\..\..\..\..\lib\libdriver.a(device_stor.o)
                0x20000688                gCSW
                0x20000698                gModeSenseAllPage
                0x200006a4                gCapacityData
                0x200006ac                gFmtCapacityData
                0x200006b8                gInquiryData
 .data          0x200006dc        0x0 ..\..\..\..\..\lib\libos.a(init.o)
 .data          0x200006dc        0x0 ..\..\..\..\..\lib\libos.a(mmm.o)
 .data          0x200006dc        0x0 ..\..\..\..\..\lib\libos.a(setup.o)
 .data          0x200006dc        0x0 ..\..\..\..\..\lib\libos.a(semaphore.o)
 .data          0x200006dc      0x1e4 ..\..\..\..\..\lib\libos.a(msgq.o)
                0x200008bc                msgq_msg_lifetime
 .data          0x200008c0      0x210 ..\..\..\..\..\lib\libos.a(shell.o)
 .data          0x20000ad0        0x0 ..\..\..\..\..\lib\libos.a(locks.o)
 .data          0x20000ad0        0x0 ..\..\..\..\..\lib\libos.a(auxinfo.o)
 .data          0x20000ad0       0x88 ..\..\..\..\..\lib\libos.a(tasks.o)
                0x20000adc                hcurrent
 .data          0x20000b58        0x0 ..\..\..\..\..\lib\libos.a(mach.o)
 .data          0x20000b58        0x0 ..\..\..\..\..\lib\libos.a(list.o)
 .data          0x20000b58        0x0 ..\..\..\..\..\lib\libfs.a(dir.o)
 .data          0x20000b58        0x0 ..\..\..\..\..\lib\libfs.a(fs_mount.o)
 .data          0x20000b58        0x1 ..\..\..\..\..\lib\libfs.a(fat.o)
                0x20000b58                DiskExistFlag
 *fill*         0x20000b59        0x3 00
 .data          0x20000b5c        0x8 ..\..\..\..\..\lib\libfs.a(exfat.o)
                0x20000b5c                gEntryNoFatChain
                0x20000b60                BitmapStartClusNum
 .data          0x20000b64        0x0 ..\..\..\..\..\lib\libfs.a(fat_file.o)
 .data          0x20000b64        0x0 ..\..\..\..\..\lib\libfs.a(dir_lookup.o)
 .data          0x20000b64        0x0 ..\..\..\..\..\lib\libfs.a(utf.o)
 .data          0x20000b64        0x0 ..\..\..\..\..\lib\libfs.a(fsinfo.o)
 .data          0x20000b64        0x0 ..\..\..\..\..\lib\libfs.a(folder.o)
 .data          0x20000b64      0xaf0 ..\..\..\..\..\lib\libfs.a(fsmount_buffermanager.o)
                0x20000b64                gFSContextBufferManager
 .data          0x20001654        0x0 d:/tkstudio/build/sourcery g++ lite/bin/../lib/gcc/arm-none-eabi/4.4.1/../../../../arm-none-eabi/lib/thumb2\libm.a(lib_a-s_cos.o)
 .data          0x20001654        0x0 d:/tkstudio/build/sourcery g++ lite/bin/../lib/gcc/arm-none-eabi/4.4.1/../../../../arm-none-eabi/lib/thumb2\libm.a(lib_a-s_sin.o)
 .data          0x20001654        0x0 d:/tkstudio/build/sourcery g++ lite/bin/../lib/gcc/arm-none-eabi/4.4.1/../../../../arm-none-eabi/lib/thumb2\libm.a(lib_a-w_log10.o)
 .data          0x20001654        0x0 d:/tkstudio/build/sourcery g++ lite/bin/../lib/gcc/arm-none-eabi/4.4.1/../../../../arm-none-eabi/lib/thumb2\libm.a(lib_a-e_log10.o)
 .data          0x20001654        0x0 d:/tkstudio/build/sourcery g++ lite/bin/../lib/gcc/arm-none-eabi/4.4.1/../../../../arm-none-eabi/lib/thumb2\libm.a(lib_a-e_rem_pio2.o)
 .data          0x20001654        0x0 d:/tkstudio/build/sourcery g++ lite/bin/../lib/gcc/arm-none-eabi/4.4.1/../../../../arm-none-eabi/lib/thumb2\libm.a(lib_a-k_cos.o)
 .data          0x20001654        0x0 d:/tkstudio/build/sourcery g++ lite/bin/../lib/gcc/arm-none-eabi/4.4.1/../../../../arm-none-eabi/lib/thumb2\libm.a(lib_a-k_rem_pio2.o)
 .data          0x20001654        0x0 d:/tkstudio/build/sourcery g++ lite/bin/../lib/gcc/arm-none-eabi/4.4.1/../../../../arm-none-eabi/lib/thumb2\libm.a(lib_a-k_sin.o)
 .data          0x20001654        0x0 d:/tkstudio/build/sourcery g++ lite/bin/../lib/gcc/arm-none-eabi/4.4.1/../../../../arm-none-eabi/lib/thumb2\libm.a(lib_a-s_fabs.o)
 .data          0x20001654        0x0 d:/tkstudio/build/sourcery g++ lite/bin/../lib/gcc/arm-none-eabi/4.4.1/../../../../arm-none-eabi/lib/thumb2\libm.a(lib_a-s_floor.o)
 .data          0x20001654        0x0 d:/tkstudio/build/sourcery g++ lite/bin/../lib/gcc/arm-none-eabi/4.4.1/../../../../arm-none-eabi/lib/thumb2\libm.a(lib_a-s_isnand.o)
 .data          0x20001654        0x1 d:/tkstudio/build/sourcery g++ lite/bin/../lib/gcc/arm-none-eabi/4.4.1/../../../../arm-none-eabi/lib/thumb2\libm.a(lib_a-s_lib_ver.o)
                0x20001654                __fdlib_version
 .data          0x20001655        0x0 d:/tkstudio/build/sourcery g++ lite/bin/../lib/gcc/arm-none-eabi/4.4.1/../../../../arm-none-eabi/lib/thumb2\libm.a(lib_a-s_matherr.o)
 .data          0x20001655        0x0 d:/tkstudio/build/sourcery g++ lite/bin/../lib/gcc/arm-none-eabi/4.4.1/../../../../arm-none-eabi/lib/thumb2\libm.a(lib_a-s_nan.o)
 .data          0x20001655        0x0 d:/tkstudio/build/sourcery g++ lite/bin/../lib/gcc/arm-none-eabi/4.4.1/../../../../arm-none-eabi/lib/thumb2\libm.a(lib_a-s_scalbn.o)
 .data          0x20001655        0x0 d:/tkstudio/build/sourcery g++ lite/bin/../lib/gcc/arm-none-eabi/4.4.1/../../../../arm-none-eabi/lib/thumb2\libm.a(lib_a-e_log.o)
 .data          0x20001655        0x0 d:/tkstudio/build/sourcery g++ lite/bin/../lib/gcc/arm-none-eabi/4.4.1/../../../../arm-none-eabi/lib/thumb2\libm.a(lib_a-s_copysign.o)
 .data          0x20001655        0x0 d:/tkstudio/build/sourcery g++ lite/bin/../lib/gcc/arm-none-eabi/4.4.1/thumb2\libgcc.a(_divsi3.o)
 .data          0x20001655        0x0 d:/tkstudio/build/sourcery g++ lite/bin/../lib/gcc/arm-none-eabi/4.4.1/thumb2\libgcc.a(_dvmd_tls.o)
 .data          0x20001655        0x0 d:/tkstudio/build/sourcery g++ lite/bin/../lib/gcc/arm-none-eabi/4.4.1/thumb2\libgcc.a(_arm_addsubdf3.o)
 .data          0x20001655        0x0 d:/tkstudio/build/sourcery g++ lite/bin/../lib/gcc/arm-none-eabi/4.4.1/thumb2\libgcc.a(_arm_muldivdf3.o)
 .data          0x20001655        0x0 d:/tkstudio/build/sourcery g++ lite/bin/../lib/gcc/arm-none-eabi/4.4.1/thumb2\libgcc.a(_arm_cmpdf2.o)
 .data          0x20001655        0x0 d:/tkstudio/build/sourcery g++ lite/bin/../lib/gcc/arm-none-eabi/4.4.1/thumb2\libgcc.a(_arm_fixdfsi.o)
 .data          0x20001655        0x0 d:/tkstudio/build/sourcery g++ lite/bin/../lib/gcc/arm-none-eabi/4.4.1/thumb2\libgcc.a(_arm_fixunsdfsi.o)
 .data          0x20001655        0x0 d:/tkstudio/build/sourcery g++ lite/bin/../lib/gcc/arm-none-eabi/4.4.1/thumb2\libgcc.a(_arm_truncdfsf2.o)
 .data          0x20001655        0x0 d:/tkstudio/build/sourcery g++ lite/bin/../lib/gcc/arm-none-eabi/4.4.1/thumb2\libgcc.a(_arm_addsubsf3.o)
 .data          0x20001655        0x0 d:/tkstudio/build/sourcery g++ lite/bin/../lib/gcc/arm-none-eabi/4.4.1/thumb2\libgcc.a(_arm_muldivsf3.o)
 .data          0x20001655        0x0 d:/tkstudio/build/sourcery g++ lite/bin/../lib/gcc/arm-none-eabi/4.4.1/thumb2\libgcc.a(_arm_cmpsf2.o)
 .data          0x20001655        0x0 d:/tkstudio/build/sourcery g++ lite/bin/../lib/gcc/arm-none-eabi/4.4.1/thumb2\libgcc.a(_arm_fixsfsi.o)
 .data          0x20001655        0x0 d:/tkstudio/build/sourcery g++ lite/bin/../lib/gcc/arm-none-eabi/4.4.1/thumb2\libgcc.a(_aeabi_uldivmod.o)
 .data          0x20001655        0x0 d:/tkstudio/build/sourcery g++ lite/bin/../lib/gcc/arm-none-eabi/4.4.1/thumb2\libgcc.a(bpabi.o)
 .data          0x20001655        0x0 d:/tkstudio/build/sourcery g++ lite/bin/../lib/gcc/arm-none-eabi/4.4.1/thumb2\libgcc.a(_divdi3.o)
 .data          0x20001655        0x0 d:/tkstudio/build/sourcery g++ lite/bin/../lib/gcc/arm-none-eabi/4.4.1/thumb2\libgcc.a(_udivdi3.o)
 .data          0x20001655        0x0 d:/tkstudio/build/sourcery g++ lite/bin/../lib/gcc/arm-none-eabi/4.4.1/thumb2\libgcc.a(_udivsi3.o)
 .data          0x20001655        0x0 d:/tkstudio/build/sourcery g++ lite/bin/../lib/gcc/arm-none-eabi/4.4.1/../../../../arm-none-eabi/lib/thumb2\libc.a(lib_a-atoi.o)
 *fill*         0x20001655        0x3 00
 .data          0x20001658        0x8 d:/tkstudio/build/sourcery g++ lite/bin/../lib/gcc/arm-none-eabi/4.4.1/../../../../arm-none-eabi/lib/thumb2\libc.a(lib_a-ctype_.o)
                0x20001658                __ctype_ptr
                0x2000165c                __ctype_ptr__
 .data          0x20001660        0x0 d:/tkstudio/build/sourcery g++ lite/bin/../lib/gcc/arm-none-eabi/4.4.1/../../../../arm-none-eabi/lib/thumb2\libc.a(lib_a-errno.o)
 .data          0x20001660       0xf4 d:/tkstudio/build/sourcery g++ lite/bin/../lib/gcc/arm-none-eabi/4.4.1/../../../../arm-none-eabi/lib/thumb2\libc.a(lib_a-impure.o)
                0x20001660                _impure_ptr
 .data          0x20001754        0x0 d:/tkstudio/build/sourcery g++ lite/bin/../lib/gcc/arm-none-eabi/4.4.1/../../../../arm-none-eabi/lib/thumb2\libc.a(lib_a-memcmp.o)
 .data          0x20001754        0x0 d:/tkstudio/build/sourcery g++ lite/bin/../lib/gcc/arm-none-eabi/4.4.1/../../../../arm-none-eabi/lib/thumb2\libc.a(lib_a-memcpy.o)
 .data          0x20001754        0x0 d:/tkstudio/build/sourcery g++ lite/bin/../lib/gcc/arm-none-eabi/4.4.1/../../../../arm-none-eabi/lib/thumb2\libc.a(lib_a-memmove.o)
 .data          0x20001754        0x0 d:/tkstudio/build/sourcery g++ lite/bin/../lib/gcc/arm-none-eabi/4.4.1/../../../../arm-none-eabi/lib/thumb2\libc.a(lib_a-memset.o)
 .data          0x20001754        0x0 d:/tkstudio/build/sourcery g++ lite/bin/../lib/gcc/arm-none-eabi/4.4.1/../../../../arm-none-eabi/lib/thumb2\libc.a(lib_a-puts.o)
 .data          0x20001754        0x0 d:/tkstudio/build/sourcery g++ lite/bin/../lib/gcc/arm-none-eabi/4.4.1/../../../../arm-none-eabi/lib/thumb2\libc.a(lib_a-sscanf.o)
 .data          0x20001754        0x0 d:/tkstudio/build/sourcery g++ lite/bin/../lib/gcc/arm-none-eabi/4.4.1/../../../../arm-none-eabi/lib/thumb2\libc.a(lib_a-strcasecmp.o)
 .data          0x20001754        0x0 d:/tkstudio/build/sourcery g++ lite/bin/../lib/gcc/arm-none-eabi/4.4.1/../../../../arm-none-eabi/lib/thumb2\libc.a(lib_a-strchr.o)
 .data          0x20001754        0x0 d:/tkstudio/build/sourcery g++ lite/bin/../lib/gcc/arm-none-eabi/4.4.1/../../../../arm-none-eabi/lib/thumb2\libc.a(lib_a-strcmp.o)
 .data          0x20001754        0x0 d:/tkstudio/build/sourcery g++ lite/bin/../lib/gcc/arm-none-eabi/4.4.1/../../../../arm-none-eabi/lib/thumb2\libc.a(lib_a-strlen.o)
 .data          0x20001754        0x0 d:/tkstudio/build/sourcery g++ lite/bin/../lib/gcc/arm-none-eabi/4.4.1/../../../../arm-none-eabi/lib/thumb2\libc.a(lib_a-strncasecmp.o)
 .data          0x20001754        0x0 d:/tkstudio/build/sourcery g++ lite/bin/../lib/gcc/arm-none-eabi/4.4.1/../../../../arm-none-eabi/lib/thumb2\libc.a(lib_a-strncpy.o)
 .data          0x20001754        0x0 d:/tkstudio/build/sourcery g++ lite/bin/../lib/gcc/arm-none-eabi/4.4.1/../../../../arm-none-eabi/lib/thumb2\libc.a(lib_a-strspn.o)
 .data          0x20001754        0x0 d:/tkstudio/build/sourcery g++ lite/bin/../lib/gcc/arm-none-eabi/4.4.1/../../../../arm-none-eabi/lib/thumb2\libc.a(lib_a-strtol.o)
 .data          0x20001754        0x0 d:/tkstudio/build/sourcery g++ lite/bin/../lib/gcc/arm-none-eabi/4.4.1/../../../../arm-none-eabi/lib/thumb2\libc.a(lib_a-svfscanf.o)
 .data          0x20001754        0x0 d:/tkstudio/build/sourcery g++ lite/bin/../lib/gcc/arm-none-eabi/4.4.1/../../../../arm-none-eabi/lib/thumb2\libc.a(lib_a-ungetc.o)
 .data          0x20001754        0x0 d:/tkstudio/build/sourcery g++ lite/bin/../lib/gcc/arm-none-eabi/4.4.1/../../../../arm-none-eabi/lib/thumb2\libc.a(lib_a-fflush.o)
 .data          0x20001754        0x0 d:/tkstudio/build/sourcery g++ lite/bin/../lib/gcc/arm-none-eabi/4.4.1/../../../../arm-none-eabi/lib/thumb2\libc.a(lib_a-findfp.o)
 .data          0x20001754        0x0 d:/tkstudio/build/sourcery g++ lite/bin/../lib/gcc/arm-none-eabi/4.4.1/../../../../arm-none-eabi/lib/thumb2\libc.a(lib_a-freer.o)
 .data          0x20001754        0x0 d:/tkstudio/build/sourcery g++ lite/bin/../lib/gcc/arm-none-eabi/4.4.1/../../../../arm-none-eabi/lib/thumb2\libc.a(lib_a-fvwrite.o)
 .data          0x20001754        0x0 d:/tkstudio/build/sourcery g++ lite/bin/../lib/gcc/arm-none-eabi/4.4.1/../../../../arm-none-eabi/lib/thumb2\libc.a(lib_a-fwalk.o)
 .data          0x20001754        0x0 d:/tkstudio/build/sourcery g++ lite/bin/../lib/gcc/arm-none-eabi/4.4.1/../../../../arm-none-eabi/lib/thumb2\libc.a(lib_a-iswspace.o)
 .data          0x20001754       0x10 d:/tkstudio/build/sourcery g++ lite/bin/../lib/gcc/arm-none-eabi/4.4.1/../../../../arm-none-eabi/lib/thumb2\libc.a(lib_a-locale.o)
                0x20001754                __mb_cur_max
                0x20001758                __lc_ctype
 .data          0x20001764      0x410 d:/tkstudio/build/sourcery g++ lite/bin/../lib/gcc/arm-none-eabi/4.4.1/../../../../arm-none-eabi/lib/thumb2\libc.a(lib_a-mallocr.o)
                0x20001764                __malloc_av_
                0x20001b6c                __malloc_sbrk_base
                0x20001b70                __malloc_trim_threshold
 .data          0x20001b74        0x0 d:/tkstudio/build/sourcery g++ lite/bin/../lib/gcc/arm-none-eabi/4.4.1/../../../../arm-none-eabi/lib/thumb2\libc.a(lib_a-mbrtowc.o)
 .data          0x20001b74        0x0 d:/tkstudio/build/sourcery g++ lite/bin/../lib/gcc/arm-none-eabi/4.4.1/../../../../arm-none-eabi/lib/thumb2\libc.a(lib_a-mbtowc_r.o)
 .data          0x20001b74        0x0 d:/tkstudio/build/sourcery g++ lite/bin/../lib/gcc/arm-none-eabi/4.4.1/../../../../arm-none-eabi/lib/thumb2\libc.a(lib_a-memchr.o)
 .data          0x20001b74        0x0 d:/tkstudio/build/sourcery g++ lite/bin/../lib/gcc/arm-none-eabi/4.4.1/../../../../arm-none-eabi/lib/thumb2\libc.a(lib_a-mlock.o)
 .data          0x20001b74        0x0 d:/tkstudio/build/sourcery g++ lite/bin/../lib/gcc/arm-none-eabi/4.4.1/../../../../arm-none-eabi/lib/thumb2\libc.a(lib_a-reallocr.o)
 .data          0x20001b74        0x0 d:/tkstudio/build/sourcery g++ lite/bin/../lib/gcc/arm-none-eabi/4.4.1/../../../../arm-none-eabi/lib/thumb2\libc.a(lib_a-sccl.o)
 .data          0x20001b74        0x0 d:/tkstudio/build/sourcery g++ lite/bin/../lib/gcc/arm-none-eabi/4.4.1/../../../../arm-none-eabi/lib/thumb2\libc.a(lib_a-sf_nan.o)
 .data          0x20001b74        0x0 d:/tkstudio/build/sourcery g++ lite/bin/../lib/gcc/arm-none-eabi/4.4.1/../../../../arm-none-eabi/lib/thumb2\libc.a(lib_a-sprintf.o)
 .data          0x20001b74        0x0 d:/tkstudio/build/sourcery g++ lite/bin/../lib/gcc/arm-none-eabi/4.4.1/../../../../arm-none-eabi/lib/thumb2\libc.a(lib_a-stdio.o)
 .data          0x20001b74       0x28 d:/tkstudio/build/sourcery g++ lite/bin/../lib/gcc/arm-none-eabi/4.4.1/../../../../arm-none-eabi/lib/thumb2\libc.a(lib_a-strtod.o)
 .data          0x20001b9c        0x0 d:/tkstudio/build/sourcery g++ lite/bin/../lib/gcc/arm-none-eabi/4.4.1/../../../../arm-none-eabi/lib/thumb2\libc.a(lib_a-strtoll_r.o)
 .data          0x20001b9c        0x0 d:/tkstudio/build/sourcery g++ lite/bin/../lib/gcc/arm-none-eabi/4.4.1/../../../../arm-none-eabi/lib/thumb2\libc.a(lib_a-strtoul.o)
 .data          0x20001b9c        0x0 d:/tkstudio/build/sourcery g++ lite/bin/../lib/gcc/arm-none-eabi/4.4.1/../../../../arm-none-eabi/lib/thumb2\libc.a(lib_a-strtoull_r.o)
 .data          0x20001b9c        0x0 d:/tkstudio/build/sourcery g++ lite/bin/../lib/gcc/arm-none-eabi/4.4.1/../../../../arm-none-eabi/lib/thumb2\libc.a(lib_a-svfprintf.o)
 .data          0x20001b9c        0x0 d:/tkstudio/build/sourcery g++ lite/bin/../lib/gcc/arm-none-eabi/4.4.1/../../../../arm-none-eabi/lib/thumb2\libc.a(lib_a-wsetup.o)
 .data          0x20001b9c        0x0 d:/tkstudio/build/sourcery g++ lite/bin/../lib/gcc/arm-none-eabi/4.4.1/../../../../arm-none-eabi/lib/thumb2\libc.a(lib_a-dtoa.o)
 .data          0x20001b9c        0x0 d:/tkstudio/build/sourcery g++ lite/bin/../lib/gcc/arm-none-eabi/4.4.1/../../../../arm-none-eabi/lib/thumb2\libc.a(lib_a-fclose.o)
 .data          0x20001b9c        0x0 d:/tkstudio/build/sourcery g++ lite/bin/../lib/gcc/arm-none-eabi/4.4.1/../../../../arm-none-eabi/lib/thumb2\libc.a(lib_a-gdtoa-gethex.o)
 .data          0x20001b9c        0x0 d:/tkstudio/build/sourcery g++ lite/bin/../lib/gcc/arm-none-eabi/4.4.1/../../../../arm-none-eabi/lib/thumb2\libc.a(lib_a-gdtoa-hexnan.o)
 .data          0x20001b9c        0x0 d:/tkstudio/build/sourcery g++ lite/bin/../lib/gcc/arm-none-eabi/4.4.1/../../../../arm-none-eabi/lib/thumb2\libc.a(lib_a-makebuf.o)
 .data          0x20001b9c        0x0 d:/tkstudio/build/sourcery g++ lite/bin/../lib/gcc/arm-none-eabi/4.4.1/../../../../arm-none-eabi/lib/thumb2\libc.a(lib_a-malloc.o)
 .data          0x20001b9c        0x0 d:/tkstudio/build/sourcery g++ lite/bin/../lib/gcc/arm-none-eabi/4.4.1/../../../../arm-none-eabi/lib/thumb2\libc.a(lib_a-mprec.o)
 .data          0x20001b9c        0x0 d:/tkstudio/build/sourcery g++ lite/bin/../lib/gcc/arm-none-eabi/4.4.1/../../../../arm-none-eabi/lib/thumb2\libc.a(lib_a-s_isinfd.o)
 .data          0x20001b9c        0x0 d:/tkstudio/build/sourcery g++ lite/bin/../lib/gcc/arm-none-eabi/4.4.1/../../../../arm-none-eabi/lib/thumb2\libc.a(lib_a-callocr.o)
 .data          0x20001b9c        0x0 d:/tkstudio/build/sourcery g++ lite/bin/../lib/gcc/arm-none-eabi/4.4.1/thumb2/crtend.o
 .data          0x20001b9c        0x0 d:/tkstudio/build/sourcery g++ lite/bin/../lib/gcc/arm-none-eabi/4.4.1/thumb2/crtn.o
                0x20001b9c                . = ALIGN (0x4)
                0x20001b9c                PROVIDE (__preinit_array_start, .)
 *(.preinit_array)
                0x20001b9c                PROVIDE (__preinit_array_end, .)
                0x20001b9c                . = ALIGN (0x4)
                0x20001b9c                PROVIDE (__init_array_start, .)
 *(SORT(.init_array.*))
 *(.init_array)
 .init_array    0x20001b9c        0x4 d:/tkstudio/build/sourcery g++ lite/bin/../lib/gcc/arm-none-eabi/4.4.1/thumb2/crtbegin.o
                0x20001ba0                PROVIDE (__init_array_end, .)
                0x20001ba0                . = ALIGN (0x4)
                0x20001ba0                PROVIDE (__fini_array_start, .)
 *(SORT(.fini_array.*))
 *(.fini_array)
 .fini_array    0x20001ba0        0x4 d:/tkstudio/build/sourcery g++ lite/bin/../lib/gcc/arm-none-eabi/4.4.1/thumb2/crtbegin.o
                0x20001ba4                PROVIDE (__fini_array_end, .)
 *(.jcr*)
 .jcr           0x20001ba4        0x0 d:/tkstudio/build/sourcery g++ lite/bin/../lib/gcc/arm-none-eabi/4.4.1/thumb2/crtbegin.o
 .jcr           0x20001ba4        0x4 d:/tkstudio/build/sourcery g++ lite/bin/../lib/gcc/arm-none-eabi/4.4.1/thumb2/crtend.o
                0x20001ba8                . = ALIGN (0x4)
                0x20001ba8                __data_end__ = .
                0x20001ba8                _edata = __data_end__

data            0x20001ba8        0xc load address 0x000467e8
                0x20001ba8                . = ALIGN (0x4)
                0x20001ba8                PROVIDE (__start_data, ABSOLUTE (.))
 data           0x20001ba8        0xc ..\obj\recorder_control.o
                0x20001bb4                PROVIDE (__stop_data, .)

PSP             0x20001bb4        0x4 load address 0x000467f4
                0x20001bb4                . = ALIGN (0x4)
                0x20001bb4                PROVIDE (__start_PSP, ABSOLUTE (.))
 PSP            0x20001bb4        0x4 ..\..\..\..\..\lib\libos.a(mmm.o)
                0x20001bb4                mmm_pool_top
                0x20001bb8                PROVIDE (__stop_PSP, .)

.bss            0x20001bb8     0x6a50 load address 0x000467f8
                0x20001bb8                . = ALIGN (0x4)
                0x20001bb8                __bss_start__ = .
                0x20001bb8                _sbss = __bss_start__
 *(.bss*)
 .bss           0x20001bb8        0x0 d:/tkstudio/build/sourcery g++ lite/bin/../lib/gcc/arm-none-eabi/4.4.1/thumb2/crti.o
 .bss           0x20001bb8        0x1 d:/tkstudio/build/sourcery g++ lite/bin/../lib/gcc/arm-none-eabi/4.4.1/thumb2/crtbegin.o
 .bss           0x20001bb9        0x0 ..\obj\i2s_in_control.o
 *fill*         0x20001bb9        0x3 00
 .bss           0x20001bbc       0x5c ..\obj\breakpoint.o
 .bss           0x20001c18       0x10 ..\obj\main.o
                0x20001c18                RecvTaskHandle
                0x20001c1c                SendTaskHandle
                0x20001c20                BtTaskHandle
                0x20001c24                MainTaskHandle
 .bss           0x20001c28       0x18 ..\obj\sys_vol.o
                0x20001c28                AudioSpecTrumStep
                0x20001c29                gDRCEffectInited
                0x20001c2a                g3dEffectInited
                0x20001c2b                gVbEffectInited
                0x20001c3c                gAudioAnaChannel
                0x20001c3d                IsFillMemData
 .bss           0x20001c40        0x0 ..\obj\dev_state_machine.o
 .bss           0x20001c40        0x0 ..\obj\mtk_fm_drv.o
 .bss           0x20001c40        0x0 ..\obj\print.o
 .bss           0x20001c40       0x10 ..\obj\debug_test.o
                0x20001c40                IntCnt
                0x20001c44                IntCnt1
                0x20001c48                IntCnt2
                0x20001c4c                IntCnt3
 .bss           0x20001c50        0x4 ..\obj\RDA5807.o
 .bss           0x20001c54        0x0 ..\obj\sys_app.o
 .bss           0x20001c54        0x4 ..\obj\player_control.o
                0x20001c54                gPlayContrl
 .bss           0x20001c58        0x0 ..\obj\startup.o
 .bss           0x20001c58      0x938 ..\obj\recorder_control.o
                0x20001c58                gRecordContrl
                0x20001c5c                EncodedBufDataLen
                0x20001c60                Mp3DataLen
                0x20001c6c                FileRefreshTimer
                0x20001c88                IsRecoderFlag
                0x20001c8a                TempIndex
                0x20001c8c                MixBuf
                0x2000258c                FileWriteErrNum
 .bss           0x20002590        0x4 ..\obj\micro_adjust.o
 .bss           0x20002594        0x1 ..\obj\mass_test.o
                0x20002594                MassTestFlag
 .bss           0x20002595        0x0 ..\obj\partition.o
 .bss           0x20002595        0x0 ..\obj\asc16.o
 *fill*         0x20002595        0x3 00
 .bss           0x20002598       0x30 ..\obj\ir_key.o
 .bss           0x200025c8        0x0 ..\obj\filesort.o
 .bss           0x200025c8        0x0 ..\obj\upgrade_detect.o
 .bss           0x200025c8        0x4 ..\obj\dev_detect_driver.o
 .bss           0x200025cc        0x0 ..\obj\get_bootup_info.o
 .bss           0x200025cc        0x0 ..\obj\QN8035.o
 .bss           0x200025cc        0x0 ..\obj\adc_key.o
 .bss           0x200025cc      0x124 ..\obj\sound_remind.o
                0x200025dc                InterruptSoundRemind
 .bss           0x200026f0      0x298 ..\obj\browser.o
 .bss           0x20002988        0x0 ..\obj\diskio.o
 .bss           0x20002988       0x10 ..\obj\rtc_control.o
                0x20002988                sRtcControl
 .bss           0x20002998        0x0 ..\obj\power_key.o
 .bss           0x20002998        0x2 ..\obj\coding_key.o
 .bss           0x2000299a        0x0 ..\obj\string_convert.o
 .bss           0x2000299a        0x1 ..\obj\line_in_control.o
 .bss           0x2000299b        0x1 ..\obj\radio.o
 .bss           0x2000299c        0x0 ..\obj\eq_params.o
 .bss           0x2000299c        0x1 ..\obj\i2c.o
 .bss           0x2000299d        0x0 ..\obj\font.o
 .bss           0x2000299d        0x0 ..\obj\idle_control.o
 .bss           0x2000299d        0x0 ..\obj\hzk16.o
 *fill*         0x2000299d        0x3 00
 .bss           0x200029a0       0x28 ..\obj\radio_control.o
                0x200029a0                sRadioControl
                0x200029c4                Radio_Name
 .bss           0x200029c8        0xc ..\obj\key.o
 .bss           0x200029d4        0x0 ..\obj\task_main.o
 .bss           0x200029d4        0x0 ..\obj\presearch.o
 .bss           0x200029d4       0x14 ..\obj\power_management.o
                0x200029e0                LdoinSampleSum
                0x200029e4                LdoinLevelAverage
 .bss           0x200029e8        0x1 ..\obj\retarget.o
 .bss           0x200029e9        0x0 ..\..\..\..\..\lib\libdriver.a(eq.o)
 .bss           0x200029e9        0x0 ..\..\..\..\..\lib\libdriver.a(gpio.o)
 .bss           0x200029e9        0x0 ..\..\..\..\..\lib\libdriver.a(beep.o)
 .bss           0x200029e9        0x2 ..\..\..\..\..\lib\libdriver.a(otg_detect_usb1.o)
                0x200029e9                UsbDeviceFrame_USB1
                0x200029ea                gIsUsbRemove_USB1
 .bss           0x200029eb        0x0 ..\..\..\..\..\lib\libdriver.a(timer_api.o)
 *fill*         0x200029eb        0x1 00
 .bss           0x200029ec       0x1c ..\..\..\..\..\lib\libdriver.a(host_stor.o)
                0x200029f0                gDataLen
                0x200029f2                gHeadLen
                0x200029f4                gTailLen
                0x200029f6                StorInitOK
                0x200029f8                HostStorWriteTimer
                0x20002a04                gPid8303Vid8644
                0x20002a05                PhoneDockingEnable
                0x20002a06                StorNotReadyErrFlag
                0x20002a07                HostStorInitFastMode
 .bss           0x20002a08        0x0 ..\..\..\..\..\lib\libdriver.a(host_hcd.o)
 .bss           0x20002a08        0x0 ..\..\..\..\..\lib\libdriver.a(rst.o)
 .bss           0x20002a08        0x1 ..\..\..\..\..\lib\libdriver.a(wakeup.o)
                0x20002a08                gPowerKeyMode
 .bss           0x20002a09        0x0 ..\..\..\..\..\lib\libdriver.a(nvm.o)
 .bss           0x20002a09        0x0 ..\..\..\..\..\lib\libdriver.a(rtc_lunar.o)
 .bss           0x20002a09        0x0 ..\..\..\..\..\lib\libdriver.a(pcm_transfer.o)
 .bss           0x20002a09        0x0 ..\..\..\..\..\lib\libdriver.a(watchdog.o)
 .bss           0x20002a09        0x2 ..\..\..\..\..\lib\libdriver.a(device_audio.o)
                0x20002a09                AudioMuteFlag
                0x20002a0a                AudioMicMuteFlag
 *fill*         0x20002a0b        0x1 00
 .bss           0x20002a0c       0x10 ..\..\..\..\..\lib\libdriver.a(audio_adc.o)
 .bss           0x20002a1c      0x4b4 ..\..\..\..\..\lib\libdriver.a(mixer.o)
 .bss           0x20002ed0        0x8 ..\..\..\..\..\lib\libdriver.a(rtc.o)
                0x20002ed0                gAlarmMaxNum
                0x20002ed4                gpAlarmList
 .bss           0x20002ed8        0xc ..\..\..\..\..\lib\libdriver.a(i2s.o)
 .bss           0x20002ee4        0x0 ..\..\..\..\..\lib\libdriver.a(sd_card.o)
 .bss           0x20002ee4        0x0 ..\..\..\..\..\lib\libdriver.a(sdio.o)
 .bss           0x20002ee4        0x2 ..\..\..\..\..\lib\libdriver.a(random.o)
 .bss           0x20002ee6        0x0 ..\..\..\..\..\lib\libdriver.a(sample_rate_convert.o)
 .bss           0x20002ee6        0x0 ..\..\..\..\..\lib\libdriver.a(device_stor_audio_request.o)
 *fill*         0x20002ee6        0x2 00
 .bss           0x20002ee8        0x4 ..\..\..\..\..\lib\libdriver.a(timeout.o)
                0x20002ee8                gSysTick
 .bss           0x20002eec        0x0 ..\..\..\..\..\lib\libdriver.a(device_hcd.o)
 .bss           0x20002eec        0x1 ..\..\..\..\..\lib\libdriver.a(ir.o)
 .bss           0x20002eed        0x0 ..\..\..\..\..\lib\libdriver.a(otg_detect.o)
 *fill*         0x20002eed        0x1 00
 .bss           0x20002eee        0x4 ..\..\..\..\..\lib\libdriver.a(dac.o)
 *fill*         0x20002ef2        0x2 00
 .bss           0x20002ef4       0x14 ..\..\..\..\..\lib\libdriver.a(spi_flash.o)
 .bss           0x20002f08        0x0 ..\..\..\..\..\lib\libdriver.a(audio_path.o)
 .bss           0x20002f08        0x0 ..\..\..\..\..\lib\libdriver.a(timer.o)
 .bss           0x20002f08        0x0 ..\..\..\..\..\lib\libdriver.a(clk.o)
 .bss           0x20002f08        0x0 ..\..\..\..\..\lib\libdriver.a(otg_hal.o)
 .bss           0x20002f08        0x4 ..\..\..\..\..\lib\libdriver.a(adc.o)
 .bss           0x20002f0c        0x4 ..\..\..\..\..\lib\libdriver.a(lrc.o)
 .bss           0x20002f10        0x0 ..\..\..\..\..\lib\libdriver.a(cache.o)
 .bss           0x20002f10        0x0 ..\..\..\..\..\lib\libdriver.a(pcm_fifo.o)
 .bss           0x20002f10        0x2 ..\..\..\..\..\lib\libdriver.a(otg_detect_usb2.o)
                0x20002f10                UsbDeviceFrame_USB2
                0x20002f11                gIsUsbRemove_USB2
 .bss           0x20002f12        0x0 ..\..\..\..\..\lib\libdriver.a(fuart.o)
 .bss           0x20002f12        0x0 ..\..\..\..\..\lib\libdriver.a(ldo_config.o)
 .bss           0x20002f12        0x4 ..\..\..\..\..\lib\libdriver.a(buart.o)
 .bss           0x20002f16        0x0 ..\..\..\..\..\lib\libdriver.a(pmem.o)
 *fill*         0x20002f16        0x2 00
 .bss           0x20002f18        0x4 ..\..\..\..\..\lib\libdriver.a(pcm_play.o)
 .bss           0x20002f1c        0x2 ..\..\..\..\..\lib\libdriver.a(host_stor_request.o)
                0x20002f1c                gMassStorInvalidVid
 .bss           0x20002f1e        0x1 ..\..\..\..\..\lib\libdriver.a(otg_int.o)
                0x20002f1e                UsbIntEn
 *fill*         0x20002f1f        0x1 00
 .bss           0x20002f20       0x10 ..\..\..\..\..\lib\libdriver.a(device_stor.o)
                0x20002f24                gDeviceString_MassStor_Vendor
                0x20002f28                gDeviceString_MassStor_Product
                0x20002f2c                gDeviceString_MassStor_Ver
 .bss           0x20002f30        0x0 ..\..\..\..\..\lib\libos.a(init.o)
 .bss           0x20002f30       0x30 ..\..\..\..\..\lib\libos.a(mmm.o)
 .bss           0x20002f60        0x4 ..\..\..\..\..\lib\libos.a(setup.o)
 .bss           0x20002f64        0x4 ..\..\..\..\..\lib\libos.a(semaphore.o)
 .bss           0x20002f68       0x44 ..\..\..\..\..\lib\libos.a(msgq.o)
                0x20002f68                msgq_notify_num
                0x20002f6c                msgq_notify
 .bss           0x20002fac        0x0 ..\..\..\..\..\lib\libos.a(shell.o)
 .bss           0x20002fac        0x0 ..\..\..\..\..\lib\libos.a(locks.o)
 .bss           0x20002fac        0x0 ..\..\..\..\..\lib\libos.a(auxinfo.o)
 .bss           0x20002fac      0x144 ..\..\..\..\..\lib\libos.a(tasks.o)
                0x20002fac                jiffies_auxtmr
                0x20003094                current
                0x20003098                jiffies
                0x200030a0                uxCurrentNumberOfTasks
                0x200030a4                scheduler_running
                0x200030b8                xTracing
 .bss           0x200030f0        0x0 ..\..\..\..\..\lib\libos.a(mach.o)
 .bss           0x200030f0        0x0 ..\..\..\..\..\lib\libos.a(list.o)
 .bss           0x200030f0        0x1 ..\..\..\..\..\lib\libfs.a(dir.o)
                0x200030f0                gExcludeRecycled
 *fill*         0x200030f1        0x3 00
 .bss           0x200030f4        0x8 ..\..\..\..\..\lib\libfs.a(fs_mount.o)
 .bss           0x200030fc        0x0 ..\..\..\..\..\lib\libfs.a(fat.o)
 .bss           0x200030fc        0x8 ..\..\..\..\..\lib\libfs.a(exfat.o)
                0x200030fc                IsBitMapChange
                0x20003100                IsDirSec
                0x20003102                gIsExFat
 .bss           0x20003104        0x4 ..\..\..\..\..\lib\libfs.a(fat_file.o)
                0x20003104                terminate_cur_fs_proc
 .bss           0x20003108        0x0 ..\..\..\..\..\lib\libfs.a(dir_lookup.o)
 .bss           0x20003108        0x0 ..\..\..\..\..\lib\libfs.a(utf.o)
 .bss           0x20003108        0x0 ..\..\..\..\..\lib\libfs.a(fsinfo.o)
 .bss           0x20003108        0x0 ..\..\..\..\..\lib\libfs.a(folder.o)
 .bss           0x20003108        0x0 ..\..\..\..\..\lib\libfs.a(fsmount_buffermanager.o)
 .bss           0x20003108        0x0 d:/tkstudio/build/sourcery g++ lite/bin/../lib/gcc/arm-none-eabi/4.4.1/../../../../arm-none-eabi/lib/thumb2\libm.a(lib_a-s_cos.o)
 .bss           0x20003108        0x0 d:/tkstudio/build/sourcery g++ lite/bin/../lib/gcc/arm-none-eabi/4.4.1/../../../../arm-none-eabi/lib/thumb2\libm.a(lib_a-s_sin.o)
 .bss           0x20003108        0x0 d:/tkstudio/build/sourcery g++ lite/bin/../lib/gcc/arm-none-eabi/4.4.1/../../../../arm-none-eabi/lib/thumb2\libm.a(lib_a-w_log10.o)
 .bss           0x20003108        0x0 d:/tkstudio/build/sourcery g++ lite/bin/../lib/gcc/arm-none-eabi/4.4.1/../../../../arm-none-eabi/lib/thumb2\libm.a(lib_a-e_log10.o)
 .bss           0x20003108        0x0 d:/tkstudio/build/sourcery g++ lite/bin/../lib/gcc/arm-none-eabi/4.4.1/../../../../arm-none-eabi/lib/thumb2\libm.a(lib_a-e_rem_pio2.o)
 .bss           0x20003108        0x0 d:/tkstudio/build/sourcery g++ lite/bin/../lib/gcc/arm-none-eabi/4.4.1/../../../../arm-none-eabi/lib/thumb2\libm.a(lib_a-k_cos.o)
 .bss           0x20003108        0x0 d:/tkstudio/build/sourcery g++ lite/bin/../lib/gcc/arm-none-eabi/4.4.1/../../../../arm-none-eabi/lib/thumb2\libm.a(lib_a-k_rem_pio2.o)
 .bss           0x20003108        0x0 d:/tkstudio/build/sourcery g++ lite/bin/../lib/gcc/arm-none-eabi/4.4.1/../../../../arm-none-eabi/lib/thumb2\libm.a(lib_a-k_sin.o)
 .bss           0x20003108        0x0 d:/tkstudio/build/sourcery g++ lite/bin/../lib/gcc/arm-none-eabi/4.4.1/../../../../arm-none-eabi/lib/thumb2\libm.a(lib_a-s_fabs.o)
 .bss           0x20003108        0x0 d:/tkstudio/build/sourcery g++ lite/bin/../lib/gcc/arm-none-eabi/4.4.1/../../../../arm-none-eabi/lib/thumb2\libm.a(lib_a-s_floor.o)
 .bss           0x20003108        0x0 d:/tkstudio/build/sourcery g++ lite/bin/../lib/gcc/arm-none-eabi/4.4.1/../../../../arm-none-eabi/lib/thumb2\libm.a(lib_a-s_isnand.o)
 .bss           0x20003108        0x0 d:/tkstudio/build/sourcery g++ lite/bin/../lib/gcc/arm-none-eabi/4.4.1/../../../../arm-none-eabi/lib/thumb2\libm.a(lib_a-s_lib_ver.o)
 .bss           0x20003108        0x0 d:/tkstudio/build/sourcery g++ lite/bin/../lib/gcc/arm-none-eabi/4.4.1/../../../../arm-none-eabi/lib/thumb2\libm.a(lib_a-s_matherr.o)
 .bss           0x20003108        0x0 d:/tkstudio/build/sourcery g++ lite/bin/../lib/gcc/arm-none-eabi/4.4.1/../../../../arm-none-eabi/lib/thumb2\libm.a(lib_a-s_nan.o)
 .bss           0x20003108        0x0 d:/tkstudio/build/sourcery g++ lite/bin/../lib/gcc/arm-none-eabi/4.4.1/../../../../arm-none-eabi/lib/thumb2\libm.a(lib_a-s_scalbn.o)
 .bss           0x20003108        0x0 d:/tkstudio/build/sourcery g++ lite/bin/../lib/gcc/arm-none-eabi/4.4.1/../../../../arm-none-eabi/lib/thumb2\libm.a(lib_a-e_log.o)
 .bss           0x20003108        0x0 d:/tkstudio/build/sourcery g++ lite/bin/../lib/gcc/arm-none-eabi/4.4.1/../../../../arm-none-eabi/lib/thumb2\libm.a(lib_a-s_copysign.o)
 .bss           0x20003108        0x0 d:/tkstudio/build/sourcery g++ lite/bin/../lib/gcc/arm-none-eabi/4.4.1/thumb2\libgcc.a(_divsi3.o)
 .bss           0x20003108        0x0 d:/tkstudio/build/sourcery g++ lite/bin/../lib/gcc/arm-none-eabi/4.4.1/thumb2\libgcc.a(_dvmd_tls.o)
 .bss           0x20003108        0x0 d:/tkstudio/build/sourcery g++ lite/bin/../lib/gcc/arm-none-eabi/4.4.1/thumb2\libgcc.a(_arm_addsubdf3.o)
 .bss           0x20003108        0x0 d:/tkstudio/build/sourcery g++ lite/bin/../lib/gcc/arm-none-eabi/4.4.1/thumb2\libgcc.a(_arm_muldivdf3.o)
 .bss           0x20003108        0x0 d:/tkstudio/build/sourcery g++ lite/bin/../lib/gcc/arm-none-eabi/4.4.1/thumb2\libgcc.a(_arm_cmpdf2.o)
 .bss           0x20003108        0x0 d:/tkstudio/build/sourcery g++ lite/bin/../lib/gcc/arm-none-eabi/4.4.1/thumb2\libgcc.a(_arm_fixdfsi.o)
 .bss           0x20003108        0x0 d:/tkstudio/build/sourcery g++ lite/bin/../lib/gcc/arm-none-eabi/4.4.1/thumb2\libgcc.a(_arm_fixunsdfsi.o)
 .bss           0x20003108        0x0 d:/tkstudio/build/sourcery g++ lite/bin/../lib/gcc/arm-none-eabi/4.4.1/thumb2\libgcc.a(_arm_truncdfsf2.o)
 .bss           0x20003108        0x0 d:/tkstudio/build/sourcery g++ lite/bin/../lib/gcc/arm-none-eabi/4.4.1/thumb2\libgcc.a(_arm_addsubsf3.o)
 .bss           0x20003108        0x0 d:/tkstudio/build/sourcery g++ lite/bin/../lib/gcc/arm-none-eabi/4.4.1/thumb2\libgcc.a(_arm_muldivsf3.o)
 .bss           0x20003108        0x0 d:/tkstudio/build/sourcery g++ lite/bin/../lib/gcc/arm-none-eabi/4.4.1/thumb2\libgcc.a(_arm_cmpsf2.o)
 .bss           0x20003108        0x0 d:/tkstudio/build/sourcery g++ lite/bin/../lib/gcc/arm-none-eabi/4.4.1/thumb2\libgcc.a(_arm_fixsfsi.o)
 .bss           0x20003108        0x0 d:/tkstudio/build/sourcery g++ lite/bin/../lib/gcc/arm-none-eabi/4.4.1/thumb2\libgcc.a(_aeabi_uldivmod.o)
 .bss           0x20003108        0x0 d:/tkstudio/build/sourcery g++ lite/bin/../lib/gcc/arm-none-eabi/4.4.1/thumb2\libgcc.a(bpabi.o)
 .bss           0x20003108        0x0 d:/tkstudio/build/sourcery g++ lite/bin/../lib/gcc/arm-none-eabi/4.4.1/thumb2\libgcc.a(_divdi3.o)
 .bss           0x20003108        0x0 d:/tkstudio/build/sourcery g++ lite/bin/../lib/gcc/arm-none-eabi/4.4.1/thumb2\libgcc.a(_udivdi3.o)
 .bss           0x20003108        0x0 d:/tkstudio/build/sourcery g++ lite/bin/../lib/gcc/arm-none-eabi/4.4.1/thumb2\libgcc.a(_udivsi3.o)
 .bss           0x20003108        0x0 d:/tkstudio/build/sourcery g++ lite/bin/../lib/gcc/arm-none-eabi/4.4.1/../../../../arm-none-eabi/lib/thumb2\libc.a(lib_a-atoi.o)
 .bss           0x20003108        0x0 d:/tkstudio/build/sourcery g++ lite/bin/../lib/gcc/arm-none-eabi/4.4.1/../../../../arm-none-eabi/lib/thumb2\libc.a(lib_a-ctype_.o)
 .bss           0x20003108        0x0 d:/tkstudio/build/sourcery g++ lite/bin/../lib/gcc/arm-none-eabi/4.4.1/../../../../arm-none-eabi/lib/thumb2\libc.a(lib_a-errno.o)
 .bss           0x20003108        0x0 d:/tkstudio/build/sourcery g++ lite/bin/../lib/gcc/arm-none-eabi/4.4.1/../../../../arm-none-eabi/lib/thumb2\libc.a(lib_a-impure.o)
 .bss           0x20003108        0x0 d:/tkstudio/build/sourcery g++ lite/bin/../lib/gcc/arm-none-eabi/4.4.1/../../../../arm-none-eabi/lib/thumb2\libc.a(lib_a-memcmp.o)
 .bss           0x20003108        0x0 d:/tkstudio/build/sourcery g++ lite/bin/../lib/gcc/arm-none-eabi/4.4.1/../../../../arm-none-eabi/lib/thumb2\libc.a(lib_a-memcpy.o)
 .bss           0x20003108        0x0 d:/tkstudio/build/sourcery g++ lite/bin/../lib/gcc/arm-none-eabi/4.4.1/../../../../arm-none-eabi/lib/thumb2\libc.a(lib_a-memmove.o)
 .bss           0x20003108        0x0 d:/tkstudio/build/sourcery g++ lite/bin/../lib/gcc/arm-none-eabi/4.4.1/../../../../arm-none-eabi/lib/thumb2\libc.a(lib_a-memset.o)
 .bss           0x20003108        0x0 d:/tkstudio/build/sourcery g++ lite/bin/../lib/gcc/arm-none-eabi/4.4.1/../../../../arm-none-eabi/lib/thumb2\libc.a(lib_a-puts.o)
 .bss           0x20003108        0x0 d:/tkstudio/build/sourcery g++ lite/bin/../lib/gcc/arm-none-eabi/4.4.1/../../../../arm-none-eabi/lib/thumb2\libc.a(lib_a-sscanf.o)
 .bss           0x20003108        0x0 d:/tkstudio/build/sourcery g++ lite/bin/../lib/gcc/arm-none-eabi/4.4.1/../../../../arm-none-eabi/lib/thumb2\libc.a(lib_a-strcasecmp.o)
 .bss           0x20003108        0x0 d:/tkstudio/build/sourcery g++ lite/bin/../lib/gcc/arm-none-eabi/4.4.1/../../../../arm-none-eabi/lib/thumb2\libc.a(lib_a-strchr.o)
 .bss           0x20003108        0x0 d:/tkstudio/build/sourcery g++ lite/bin/../lib/gcc/arm-none-eabi/4.4.1/../../../../arm-none-eabi/lib/thumb2\libc.a(lib_a-strcmp.o)
 .bss           0x20003108        0x0 d:/tkstudio/build/sourcery g++ lite/bin/../lib/gcc/arm-none-eabi/4.4.1/../../../../arm-none-eabi/lib/thumb2\libc.a(lib_a-strlen.o)
 .bss           0x20003108        0x0 d:/tkstudio/build/sourcery g++ lite/bin/../lib/gcc/arm-none-eabi/4.4.1/../../../../arm-none-eabi/lib/thumb2\libc.a(lib_a-strncasecmp.o)
 .bss           0x20003108        0x0 d:/tkstudio/build/sourcery g++ lite/bin/../lib/gcc/arm-none-eabi/4.4.1/../../../../arm-none-eabi/lib/thumb2\libc.a(lib_a-strncpy.o)
 .bss           0x20003108        0x0 d:/tkstudio/build/sourcery g++ lite/bin/../lib/gcc/arm-none-eabi/4.4.1/../../../../arm-none-eabi/lib/thumb2\libc.a(lib_a-strspn.o)
 .bss           0x20003108        0x0 d:/tkstudio/build/sourcery g++ lite/bin/../lib/gcc/arm-none-eabi/4.4.1/../../../../arm-none-eabi/lib/thumb2\libc.a(lib_a-strtol.o)
 .bss           0x20003108        0x0 d:/tkstudio/build/sourcery g++ lite/bin/../lib/gcc/arm-none-eabi/4.4.1/../../../../arm-none-eabi/lib/thumb2\libc.a(lib_a-svfscanf.o)
 .bss           0x20003108        0x0 d:/tkstudio/build/sourcery g++ lite/bin/../lib/gcc/arm-none-eabi/4.4.1/../../../../arm-none-eabi/lib/thumb2\libc.a(lib_a-ungetc.o)
 .bss           0x20003108        0x0 d:/tkstudio/build/sourcery g++ lite/bin/../lib/gcc/arm-none-eabi/4.4.1/../../../../arm-none-eabi/lib/thumb2\libc.a(lib_a-fflush.o)
 .bss           0x20003108        0x0 d:/tkstudio/build/sourcery g++ lite/bin/../lib/gcc/arm-none-eabi/4.4.1/../../../../arm-none-eabi/lib/thumb2\libc.a(lib_a-findfp.o)
 .bss           0x20003108        0x0 d:/tkstudio/build/sourcery g++ lite/bin/../lib/gcc/arm-none-eabi/4.4.1/../../../../arm-none-eabi/lib/thumb2\libc.a(lib_a-freer.o)
 .bss           0x20003108        0x0 d:/tkstudio/build/sourcery g++ lite/bin/../lib/gcc/arm-none-eabi/4.4.1/../../../../arm-none-eabi/lib/thumb2\libc.a(lib_a-fvwrite.o)
 .bss           0x20003108        0x0 d:/tkstudio/build/sourcery g++ lite/bin/../lib/gcc/arm-none-eabi/4.4.1/../../../../arm-none-eabi/lib/thumb2\libc.a(lib_a-fwalk.o)
 .bss           0x20003108        0x0 d:/tkstudio/build/sourcery g++ lite/bin/../lib/gcc/arm-none-eabi/4.4.1/../../../../arm-none-eabi/lib/thumb2\libc.a(lib_a-iswspace.o)
 .bss           0x20003108        0xc d:/tkstudio/build/sourcery g++ lite/bin/../lib/gcc/arm-none-eabi/4.4.1/../../../../arm-none-eabi/lib/thumb2\libc.a(lib_a-locale.o)
                0x20003108                __nlocale_changed
                0x2000310c                __mlocale_changed
                0x20003110                _PathLocale
 .bss           0x20003114       0x34 d:/tkstudio/build/sourcery g++ lite/bin/../lib/gcc/arm-none-eabi/4.4.1/../../../../arm-none-eabi/lib/thumb2\libc.a(lib_a-mallocr.o)
                0x20003114                __malloc_top_pad
                0x20003118                __malloc_current_mallinfo
                0x20003140                __malloc_max_sbrked_mem
                0x20003144                __malloc_max_total_mem
 .bss           0x20003148        0x0 d:/tkstudio/build/sourcery g++ lite/bin/../lib/gcc/arm-none-eabi/4.4.1/../../../../arm-none-eabi/lib/thumb2\libc.a(lib_a-mbrtowc.o)
 .bss           0x20003148        0x0 d:/tkstudio/build/sourcery g++ lite/bin/../lib/gcc/arm-none-eabi/4.4.1/../../../../arm-none-eabi/lib/thumb2\libc.a(lib_a-mbtowc_r.o)
 .bss           0x20003148        0x0 d:/tkstudio/build/sourcery g++ lite/bin/../lib/gcc/arm-none-eabi/4.4.1/../../../../arm-none-eabi/lib/thumb2\libc.a(lib_a-memchr.o)
 .bss           0x20003148        0x0 d:/tkstudio/build/sourcery g++ lite/bin/../lib/gcc/arm-none-eabi/4.4.1/../../../../arm-none-eabi/lib/thumb2\libc.a(lib_a-mlock.o)
 .bss           0x20003148        0x0 d:/tkstudio/build/sourcery g++ lite/bin/../lib/gcc/arm-none-eabi/4.4.1/../../../../arm-none-eabi/lib/thumb2\libc.a(lib_a-reallocr.o)
 .bss           0x20003148        0x0 d:/tkstudio/build/sourcery g++ lite/bin/../lib/gcc/arm-none-eabi/4.4.1/../../../../arm-none-eabi/lib/thumb2\libc.a(lib_a-sccl.o)
 .bss           0x20003148        0x0 d:/tkstudio/build/sourcery g++ lite/bin/../lib/gcc/arm-none-eabi/4.4.1/../../../../arm-none-eabi/lib/thumb2\libc.a(lib_a-sf_nan.o)
 .bss           0x20003148        0x0 d:/tkstudio/build/sourcery g++ lite/bin/../lib/gcc/arm-none-eabi/4.4.1/../../../../arm-none-eabi/lib/thumb2\libc.a(lib_a-sprintf.o)
 .bss           0x20003148        0x0 d:/tkstudio/build/sourcery g++ lite/bin/../lib/gcc/arm-none-eabi/4.4.1/../../../../arm-none-eabi/lib/thumb2\libc.a(lib_a-stdio.o)
 .bss           0x20003148        0x0 d:/tkstudio/build/sourcery g++ lite/bin/../lib/gcc/arm-none-eabi/4.4.1/../../../../arm-none-eabi/lib/thumb2\libc.a(lib_a-strtod.o)
 .bss           0x20003148        0x0 d:/tkstudio/build/sourcery g++ lite/bin/../lib/gcc/arm-none-eabi/4.4.1/../../../../arm-none-eabi/lib/thumb2\libc.a(lib_a-strtoll_r.o)
 .bss           0x20003148        0x0 d:/tkstudio/build/sourcery g++ lite/bin/../lib/gcc/arm-none-eabi/4.4.1/../../../../arm-none-eabi/lib/thumb2\libc.a(lib_a-strtoul.o)
 .bss           0x20003148        0x0 d:/tkstudio/build/sourcery g++ lite/bin/../lib/gcc/arm-none-eabi/4.4.1/../../../../arm-none-eabi/lib/thumb2\libc.a(lib_a-strtoull_r.o)
 .bss           0x20003148        0x0 d:/tkstudio/build/sourcery g++ lite/bin/../lib/gcc/arm-none-eabi/4.4.1/../../../../arm-none-eabi/lib/thumb2\libc.a(lib_a-svfprintf.o)
 .bss           0x20003148        0x0 d:/tkstudio/build/sourcery g++ lite/bin/../lib/gcc/arm-none-eabi/4.4.1/../../../../arm-none-eabi/lib/thumb2\libc.a(lib_a-wsetup.o)
 .bss           0x20003148        0x0 d:/tkstudio/build/sourcery g++ lite/bin/../lib/gcc/arm-none-eabi/4.4.1/../../../../arm-none-eabi/lib/thumb2\libc.a(lib_a-dtoa.o)
 .bss           0x20003148        0x0 d:/tkstudio/build/sourcery g++ lite/bin/../lib/gcc/arm-none-eabi/4.4.1/../../../../arm-none-eabi/lib/thumb2\libc.a(lib_a-fclose.o)
 .bss           0x20003148        0x0 d:/tkstudio/build/sourcery g++ lite/bin/../lib/gcc/arm-none-eabi/4.4.1/../../../../arm-none-eabi/lib/thumb2\libc.a(lib_a-gdtoa-gethex.o)
 .bss           0x20003148        0x0 d:/tkstudio/build/sourcery g++ lite/bin/../lib/gcc/arm-none-eabi/4.4.1/../../../../arm-none-eabi/lib/thumb2\libc.a(lib_a-gdtoa-hexnan.o)
 .bss           0x20003148        0x0 d:/tkstudio/build/sourcery g++ lite/bin/../lib/gcc/arm-none-eabi/4.4.1/../../../../arm-none-eabi/lib/thumb2\libc.a(lib_a-makebuf.o)
 .bss           0x20003148        0x0 d:/tkstudio/build/sourcery g++ lite/bin/../lib/gcc/arm-none-eabi/4.4.1/../../../../arm-none-eabi/lib/thumb2\libc.a(lib_a-malloc.o)
 .bss           0x20003148        0x0 d:/tkstudio/build/sourcery g++ lite/bin/../lib/gcc/arm-none-eabi/4.4.1/../../../../arm-none-eabi/lib/thumb2\libc.a(lib_a-mprec.o)
 .bss           0x20003148        0x0 d:/tkstudio/build/sourcery g++ lite/bin/../lib/gcc/arm-none-eabi/4.4.1/../../../../arm-none-eabi/lib/thumb2\libc.a(lib_a-s_isinfd.o)
 .bss           0x20003148        0x0 d:/tkstudio/build/sourcery g++ lite/bin/../lib/gcc/arm-none-eabi/4.4.1/../../../../arm-none-eabi/lib/thumb2\libc.a(lib_a-callocr.o)
 .bss           0x20003148        0x0 d:/tkstudio/build/sourcery g++ lite/bin/../lib/gcc/arm-none-eabi/4.4.1/thumb2/crtend.o
 .bss           0x20003148        0x0 d:/tkstudio/build/sourcery g++ lite/bin/../lib/gcc/arm-none-eabi/4.4.1/thumb2/crtn.o
 *(COMMON)
 COMMON         0x20003148        0xc ..\obj\main.o
                0x20003148                val
                0x2000314c                val2
                0x20003150                AudioProcessHandle
 COMMON         0x20003154        0x1 ..\obj\RDA5807.o
                0x20003154                ChipVer
 *fill*         0x20003155        0x3 00
 COMMON         0x20003158      0x228 ..\obj\sys_app.o
                0x20003158                gSys
 COMMON         0x20003380      0x100 ..\obj\player_control.o
                0x20003380                TempBuf2
                0x20003400                TempBuf1
 COMMON         0x20003480     0x439c ..\obj\recorder_control.o
                0x20003480                Mp3EncCon
                0x20007418                RecordState
                0x2000741c                Mp3OutBuf
 COMMON         0x2000781c      0x300 ..\obj\partition.o
                0x2000781c                ExFatBuffer
 COMMON         0x20007b1c        0x8 ..\obj\get_bootup_info.o
                0x20007b1c                AppFun
                0x20007b20                OtpVersion
 COMMON         0x20007b24       0x1c ..\obj\adc_key.o
                0x20007b24                AdcKeyState
                0x20007b28                AdcKeyWaitTimer
                0x20007b34                AdcKeyScanTimer
 COMMON         0x20007b40       0x28 ..\obj\rtc_control.o
                0x20007b40                sNvmRtcInfo
 COMMON         0x20007b68       0x18 ..\obj\i2c.o
                0x20007b68                I2cInfo
 COMMON         0x20007b80       0x54 ..\obj\presearch.o
                0x20007b80                Sync
 COMMON         0x20007bd4        0xc ..\obj\power_management.o
                0x20007bd4                PowerMonitorTimer
 COMMON         0x20007be0       0xd0 ..\obj\retarget.o
                0x20007be0                __stdin
                0x20007c48                __stdout
 COMMON         0x20007cb0        0x4 ..\..\..\..\..\lib\libdriver.a(otg_detect_usb1.o)
                0x20007cb0                UsbLinkHoldTime_USB1
                0x20007cb2                UsbDeviceDetectTime_USB1
 COMMON         0x20007cb4       0x3c ..\..\..\..\..\lib\libdriver.a(host_stor.o)
                0x20007cb4                gBulkInPipe
                0x20007cb8                StorBuf
                0x20007ce0                gStor
                0x20007ce8                gControlPipe
                0x20007cec                gBulkOutPipe
 COMMON         0x20007cf0        0x4 ..\..\..\..\..\lib\libdriver.a(wakeup.o)
                0x20007cf0                gWakeUpFlag
 COMMON         0x20007cf4        0x6 ..\..\..\..\..\lib\libdriver.a(rtc_lunar.o)
                0x20007cf4                Moth
                0x20007cf6                LunarMonthFlags
                0x20007cf8                LunarLeapMonth
                0x20007cf9                Date
 *fill*         0x20007cfa        0x2 00
 COMMON         0x20007cfc        0x8 ..\..\..\..\..\lib\libdriver.a(rtc.o)
                0x20007cfc                gTimerSeconds
 COMMON         0x20007d04       0x28 ..\..\..\..\..\lib\libdriver.a(sd_card.o)
                0x20007d04                SdCardId
                0x20007d18                SdCard
 COMMON         0x20007d2c        0x6 ..\..\..\..\..\lib\libdriver.a(random.o)
                0x20007d2c                sRandomSeed
                0x20007d2e                sMaxRandomNum
                0x20007d30                sRandomIndex
 *fill*         0x20007d32        0x2 00
 COMMON         0x20007d34      0x194 ..\..\..\..\..\lib\libdriver.a(sample_rate_convert.o)
                0x20007d34                SrcInfo
 COMMON         0x20007ec8      0x124 ..\..\..\..\..\lib\libdriver.a(device_stor_audio_request.o)
                0x20007ec8                Request
                0x20007ed0                gDevicePID
                0x20007ed4                gDeviceString_Product
                0x20007ed8                gConfigDescriptor
                0x20007fd8                gDeviceVID
                0x20007fdc                gDeviceString_Manu
                0x20007fe0                gDeviceString_SerialNumber
                0x20007fe4                Setup
 COMMON         0x20007fec       0x1c ..\..\..\..\..\lib\libdriver.a(adc.o)
                0x20007fec                TypicalPoint
 COMMON         0x20008008        0x4 ..\..\..\..\..\lib\libdriver.a(otg_detect_usb2.o)
                0x20008008                UsbLinkHoldTime_USB2
                0x2000800a                UsbDeviceDetectTime_USB2
 COMMON         0x2000800c       0x38 ..\..\..\..\..\lib\libdriver.a(host_stor_request.o)
                0x2000800c                gLibUsbInfo
 COMMON         0x20008044       0x18 ..\..\..\..\..\lib\libdriver.a(otg_int.o)
                0x20008044                FpUsbIntProcess
 COMMON         0x2000805c      0x465 ..\..\..\..\..\lib\libdriver.a(device_stor.o)
                0x2000805c                DeviceStorStoppedFlag
                0x20008060                CARD_BUF_A
                0x20008260                DeviceStorIsCardInitOK
                0x20008264                DeviceStorCmdTimer
                0x20008270                gCBW
                0x200082b0                DeviceStorPreventTimer
                0x200082bc                DeviceStorPreventFlag
                0x200082c0                CARD_BUF_B
                0x200084c0                DeviceStorCmdFlag
 *fill*         0x200084c1        0x3 00
 COMMON         0x200084c4        0x8 ..\..\..\..\..\lib\libos.a(setup.o)
                0x200084c4                bootup_stack
                0x200084c8                bootup_mem
 COMMON         0x200084cc       0x10 ..\..\..\..\..\lib\libos.a(tasks.o)
                0x200084cc                pcTraceBuffer
                0x200084d0                pcTraceBufferEnd
                0x200084d4                pcTraceBufferStart
                0x200084d8                jiffies_tsktmr
 COMMON         0x200084dc       0x2c ..\..\..\..\..\lib\libfs.a(exfat.o)
                0x200084dc                gFolderNoFatChain
                0x200084e0                BitmapBuffer
                0x200084e4                Fat32Entry
                0x20008504                SecNumInBitmapBuf
 COMMON         0x20008508      0x100 d:/tkstudio/build/sourcery g++ lite/bin/../lib/gcc/arm-none-eabi/4.4.1/../../../../arm-none-eabi/lib/thumb2\libc.a(lib_a-gdtoa-gethex.o)
                0x20008508                __hexdig
                0x20008608                . = ALIGN (0x4)
                0x20008608                __bss_end__ = .
                0x20008608                _ebss = __bss_end__
LOAD ..\obj\i2s_in_control.o
LOAD ..\obj\breakpoint.o
LOAD ..\obj\main.o
LOAD ..\obj\sys_vol.o
LOAD ..\obj\dev_state_machine.o
LOAD ..\obj\mtk_fm_drv.o
LOAD ..\obj\print.o
LOAD ..\obj\debug_test.o
LOAD ..\obj\RDA5807.o
LOAD ..\obj\sys_app.o
LOAD ..\obj\player_control.o
LOAD ..\obj\startup.o
LOAD ..\obj\recorder_control.o
LOAD ..\obj\micro_adjust.o
LOAD ..\obj\mass_test.o
LOAD ..\obj\partition.o
LOAD ..\obj\asc16.o
LOAD ..\obj\ir_key.o
LOAD ..\obj\filesort.o
LOAD ..\obj\upgrade_detect.o
LOAD ..\obj\dev_detect_driver.o
LOAD ..\obj\get_bootup_info.o
LOAD ..\obj\QN8035.o
LOAD ..\obj\adc_key.o
LOAD ..\obj\sound_remind.o
LOAD ..\obj\browser.o
LOAD ..\obj\diskio.o
LOAD ..\obj\rtc_control.o
LOAD ..\obj\power_key.o
LOAD ..\obj\coding_key.o
LOAD ..\obj\string_convert.o
LOAD ..\obj\line_in_control.o
LOAD ..\obj\radio.o
LOAD ..\obj\eq_params.o
LOAD ..\obj\i2c.o
LOAD ..\obj\font.o
LOAD ..\obj\idle_control.o
LOAD ..\obj\hzk16.o
LOAD ..\obj\radio_control.o
LOAD ..\obj\key.o
LOAD ..\obj\task_main.o
LOAD ..\obj\presearch.o
LOAD ..\obj\power_management.o
LOAD ..\obj\retarget.o
LOAD ..\..\..\..\..\lib\libdriver.a
LOAD ..\..\..\..\..\lib\libos.a
LOAD ..\..\..\..\..\lib\libfs.a
LOAD d:/tkstudio/build/sourcery g++ lite/bin/../lib/gcc/arm-none-eabi/4.4.1/../../../../arm-none-eabi/lib/thumb2\libm.a
LOAD d:/tkstudio/build/sourcery g++ lite/bin/../lib/gcc/arm-none-eabi/4.4.1/thumb2\libgcc.a
LOAD d:/tkstudio/build/sourcery g++ lite/bin/../lib/gcc/arm-none-eabi/4.4.1/../../../../arm-none-eabi/lib/thumb2\libc.a
START GROUP
LOAD d:/tkstudio/build/sourcery g++ lite/bin/../lib/gcc/arm-none-eabi/4.4.1/thumb2\libgcc.a
LOAD d:/tkstudio/build/sourcery g++ lite/bin/../lib/gcc/arm-none-eabi/4.4.1/../../../../arm-none-eabi/lib/thumb2\libc.a
END GROUP
LOAD d:/tkstudio/build/sourcery g++ lite/bin/../lib/gcc/arm-none-eabi/4.4.1/thumb2/crtend.o
LOAD d:/tkstudio/build/sourcery g++ lite/bin/../lib/gcc/arm-none-eabi/4.4.1/thumb2/crtn.o
OUTPUT(MVs_new.elf elf32-littlearm)

.ARM.attributes
                0x00000000       0x27
 .ARM.attributes
                0x00000000       0x19 d:/tkstudio/build/sourcery g++ lite/bin/../lib/gcc/arm-none-eabi/4.4.1/thumb2/crti.o
 .ARM.attributes
                0x00000019       0x29 d:/tkstudio/build/sourcery g++ lite/bin/../lib/gcc/arm-none-eabi/4.4.1/thumb2/crtbegin.o
 .ARM.attributes
                0x00000042       0x31 ..\obj\i2s_in_control.o
 .ARM.attributes
                0x00000073       0x31 ..\obj\breakpoint.o
 .ARM.attributes
                0x000000a4       0x31 ..\obj\main.o
 .ARM.attributes
                0x000000d5       0x31 ..\obj\sys_vol.o
 .ARM.attributes
                0x00000106       0x31 ..\obj\dev_state_machine.o
 .ARM.attributes
                0x00000137       0x31 ..\obj\mtk_fm_drv.o
 .ARM.attributes
                0x00000168       0x31 ..\obj\print.o
 .ARM.attributes
                0x00000199       0x31 ..\obj\debug_test.o
 .ARM.attributes
                0x000001ca       0x31 ..\obj\RDA5807.o
 .ARM.attributes
                0x000001fb       0x31 ..\obj\sys_app.o
 .ARM.attributes
                0x0000022c       0x31 ..\obj\player_control.o
 .ARM.attributes
                0x0000025d       0x31 ..\obj\startup.o
 .ARM.attributes
                0x0000028e       0x31 ..\obj\recorder_control.o
 .ARM.attributes
                0x000002bf       0x31 ..\obj\micro_adjust.o
 .ARM.attributes
                0x000002f0       0x31 ..\obj\mass_test.o
 .ARM.attributes
                0x00000321       0x31 ..\obj\partition.o
 .ARM.attributes
                0x00000352       0x31 ..\obj\asc16.o
 .ARM.attributes
                0x00000383       0x31 ..\obj\ir_key.o
 .ARM.attributes
                0x000003b4       0x31 ..\obj\filesort.o
 .ARM.attributes
                0x000003e5       0x31 ..\obj\upgrade_detect.o
 .ARM.attributes
                0x00000416       0x31 ..\obj\dev_detect_driver.o
 .ARM.attributes
                0x00000447       0x31 ..\obj\get_bootup_info.o
 .ARM.attributes
                0x00000478       0x31 ..\obj\QN8035.o
 .ARM.attributes
                0x000004a9       0x31 ..\obj\adc_key.o
 .ARM.attributes
                0x000004da       0x31 ..\obj\sound_remind.o
 .ARM.attributes
                0x0000050b       0x31 ..\obj\browser.o
 .ARM.attributes
                0x0000053c       0x31 ..\obj\diskio.o
 .ARM.attributes
                0x0000056d       0x31 ..\obj\rtc_control.o
 .ARM.attributes
                0x0000059e       0x31 ..\obj\power_key.o
 .ARM.attributes
                0x000005cf       0x31 ..\obj\coding_key.o
 .ARM.attributes
                0x00000600       0x31 ..\obj\string_convert.o
 .ARM.attributes
                0x00000631       0x31 ..\obj\line_in_control.o
 .ARM.attributes
                0x00000662       0x31 ..\obj\radio.o
 .ARM.attributes
                0x00000693       0x31 ..\obj\eq_params.o
 .ARM.attributes
                0x000006c4       0x31 ..\obj\i2c.o
 .ARM.attributes
                0x000006f5       0x31 ..\obj\font.o
 .ARM.attributes
                0x00000726       0x31 ..\obj\idle_control.o
 .ARM.attributes
                0x00000757       0x31 ..\obj\hzk16.o
 .ARM.attributes
                0x00000788       0x31 ..\obj\radio_control.o
 .ARM.attributes
                0x000007b9       0x31 ..\obj\key.o
 .ARM.attributes
                0x000007ea       0x31 ..\obj\task_main.o
 .ARM.attributes
                0x0000081b       0x31 ..\obj\presearch.o
 .ARM.attributes
                0x0000084c       0x31 ..\obj\power_management.o
 .ARM.attributes
                0x0000087d       0x31 ..\obj\retarget.o
 .ARM.attributes
                0x000008ae       0x31 ..\..\..\..\..\lib\libdriver.a(eq.o)
 .ARM.attributes
                0x000008df       0x31 ..\..\..\..\..\lib\libdriver.a(gpio.o)
 .ARM.attributes
                0x00000910       0x31 ..\..\..\..\..\lib\libdriver.a(beep.o)
 .ARM.attributes
                0x00000941       0x31 ..\..\..\..\..\lib\libdriver.a(otg_detect_usb1.o)
 .ARM.attributes
                0x00000972       0x31 ..\..\..\..\..\lib\libdriver.a(timer_api.o)
 .ARM.attributes
                0x000009a3       0x31 ..\..\..\..\..\lib\libdriver.a(host_stor.o)
 .ARM.attributes
                0x000009d4       0x31 ..\..\..\..\..\lib\libdriver.a(host_hcd.o)
 .ARM.attributes
                0x00000a05       0x31 ..\..\..\..\..\lib\libdriver.a(rst.o)
 .ARM.attributes
                0x00000a36       0x31 ..\..\..\..\..\lib\libdriver.a(wakeup.o)
 .ARM.attributes
                0x00000a67       0x31 ..\..\..\..\..\lib\libdriver.a(nvm.o)
 .ARM.attributes
                0x00000a98       0x31 ..\..\..\..\..\lib\libdriver.a(rtc_lunar.o)
 .ARM.attributes
                0x00000ac9       0x31 ..\..\..\..\..\lib\libdriver.a(pcm_transfer.o)
 .ARM.attributes
                0x00000afa       0x31 ..\..\..\..\..\lib\libdriver.a(watchdog.o)
 .ARM.attributes
                0x00000b2b       0x31 ..\..\..\..\..\lib\libdriver.a(device_audio.o)
 .ARM.attributes
                0x00000b5c       0x31 ..\..\..\..\..\lib\libdriver.a(audio_adc.o)
 .ARM.attributes
                0x00000b8d       0x31 ..\..\..\..\..\lib\libdriver.a(mixer.o)
 .ARM.attributes
                0x00000bbe       0x31 ..\..\..\..\..\lib\libdriver.a(rtc.o)
 .ARM.attributes
                0x00000bef       0x31 ..\..\..\..\..\lib\libdriver.a(i2s.o)
 .ARM.attributes
                0x00000c20       0x31 ..\..\..\..\..\lib\libdriver.a(sd_card.o)
 .ARM.attributes
                0x00000c51       0x31 ..\..\..\..\..\lib\libdriver.a(sdio.o)
 .ARM.attributes
                0x00000c82       0x31 ..\..\..\..\..\lib\libdriver.a(random.o)
 .ARM.attributes
                0x00000cb3       0x31 ..\..\..\..\..\lib\libdriver.a(sample_rate_convert.o)
 .ARM.attributes
                0x00000ce4       0x31 ..\..\..\..\..\lib\libdriver.a(device_stor_audio_request.o)
 .ARM.attributes
                0x00000d15       0x31 ..\..\..\..\..\lib\libdriver.a(timeout.o)
 .ARM.attributes
                0x00000d46       0x31 ..\..\..\..\..\lib\libdriver.a(device_hcd.o)
 .ARM.attributes
                0x00000d77       0x31 ..\..\..\..\..\lib\libdriver.a(ir.o)
 .ARM.attributes
                0x00000da8       0x31 ..\..\..\..\..\lib\libdriver.a(otg_detect.o)
 .ARM.attributes
                0x00000dd9       0x31 ..\..\..\..\..\lib\libdriver.a(dac.o)
 .ARM.attributes
                0x00000e0a       0x31 ..\..\..\..\..\lib\libdriver.a(spi_flash.o)
 .ARM.attributes
                0x00000e3b       0x31 ..\..\..\..\..\lib\libdriver.a(audio_path.o)
 .ARM.attributes
                0x00000e6c       0x31 ..\..\..\..\..\lib\libdriver.a(timer.o)
 .ARM.attributes
                0x00000e9d       0x31 ..\..\..\..\..\lib\libdriver.a(clk.o)
 .ARM.attributes
                0x00000ece       0x31 ..\..\..\..\..\lib\libdriver.a(otg_hal.o)
 .ARM.attributes
                0x00000eff       0x31 ..\..\..\..\..\lib\libdriver.a(adc.o)
 .ARM.attributes
                0x00000f30       0x31 ..\..\..\..\..\lib\libdriver.a(lrc.o)
 .ARM.attributes
                0x00000f61       0x31 ..\..\..\..\..\lib\libdriver.a(cache.o)
 .ARM.attributes
                0x00000f92       0x31 ..\..\..\..\..\lib\libdriver.a(pcm_fifo.o)
 .ARM.attributes
                0x00000fc3       0x31 ..\..\..\..\..\lib\libdriver.a(otg_detect_usb2.o)
 .ARM.attributes
                0x00000ff4       0x31 ..\..\..\..\..\lib\libdriver.a(fuart.o)
 .ARM.attributes
                0x00001025       0x31 ..\..\..\..\..\lib\libdriver.a(ldo_config.o)
 .ARM.attributes
                0x00001056       0x31 ..\..\..\..\..\lib\libdriver.a(buart.o)
 .ARM.attributes
                0x00001087       0x31 ..\..\..\..\..\lib\libdriver.a(pmem.o)
 .ARM.attributes
                0x000010b8       0x31 ..\..\..\..\..\lib\libdriver.a(pcm_play.o)
 .ARM.attributes
                0x000010e9       0x31 ..\..\..\..\..\lib\libdriver.a(host_stor_request.o)
 .ARM.attributes
                0x0000111a       0x31 ..\..\..\..\..\lib\libdriver.a(otg_int.o)
 .ARM.attributes
                0x0000114b       0x31 ..\..\..\..\..\lib\libdriver.a(device_stor.o)
 .ARM.attributes
                0x0000117c       0x33 ..\..\..\..\..\lib\libos.a(init.o)
 .ARM.attributes
                0x000011af       0x33 ..\..\..\..\..\lib\libos.a(mmm.o)
 .ARM.attributes
                0x000011e2       0x33 ..\..\..\..\..\lib\libos.a(setup.o)
 .ARM.attributes
                0x00001215       0x33 ..\..\..\..\..\lib\libos.a(semaphore.o)
 .ARM.attributes
                0x00001248       0x33 ..\..\..\..\..\lib\libos.a(msgq.o)
 .ARM.attributes
                0x0000127b       0x33 ..\..\..\..\..\lib\libos.a(shell.o)
 .ARM.attributes
                0x000012ae       0x33 ..\..\..\..\..\lib\libos.a(locks.o)
 .ARM.attributes
                0x000012e1       0x33 ..\..\..\..\..\lib\libos.a(auxinfo.o)
 .ARM.attributes
                0x00001314       0x33 ..\..\..\..\..\lib\libos.a(tasks.o)
 .ARM.attributes
                0x00001347       0x33 ..\..\..\..\..\lib\libos.a(mach.o)
 .ARM.attributes
                0x0000137a       0x33 ..\..\..\..\..\lib\libos.a(list.o)
 .ARM.attributes
                0x000013ad       0x33 ..\..\..\..\..\lib\libfs.a(dir.o)
 .ARM.attributes
                0x000013e0       0x33 ..\..\..\..\..\lib\libfs.a(fs_mount.o)
 .ARM.attributes
                0x00001413       0x33 ..\..\..\..\..\lib\libfs.a(fat.o)
 .ARM.attributes
                0x00001446       0x33 ..\..\..\..\..\lib\libfs.a(exfat.o)
 .ARM.attributes
                0x00001479       0x33 ..\..\..\..\..\lib\libfs.a(fat_file.o)
 .ARM.attributes
                0x000014ac       0x33 ..\..\..\..\..\lib\libfs.a(dir_lookup.o)
 .ARM.attributes
                0x000014df       0x33 ..\..\..\..\..\lib\libfs.a(utf.o)
 .ARM.attributes
                0x00001512       0x33 ..\..\..\..\..\lib\libfs.a(fsinfo.o)
 .ARM.attributes
                0x00001545       0x33 ..\..\..\..\..\lib\libfs.a(folder.o)
 .ARM.attributes
                0x00001578       0x33 ..\..\..\..\..\lib\libfs.a(fsmount_buffermanager.o)
 .ARM.attributes
                0x000015ab       0x29 d:/tkstudio/build/sourcery g++ lite/bin/../lib/gcc/arm-none-eabi/4.4.1/../../../../arm-none-eabi/lib/thumb2\libm.a(lib_a-s_cos.o)
 .ARM.attributes
                0x000015d4       0x29 d:/tkstudio/build/sourcery g++ lite/bin/../lib/gcc/arm-none-eabi/4.4.1/../../../../arm-none-eabi/lib/thumb2\libm.a(lib_a-s_sin.o)
 .ARM.attributes
                0x000015fd       0x29 d:/tkstudio/build/sourcery g++ lite/bin/../lib/gcc/arm-none-eabi/4.4.1/../../../../arm-none-eabi/lib/thumb2\libm.a(lib_a-w_log10.o)
 .ARM.attributes
                0x00001626       0x29 d:/tkstudio/build/sourcery g++ lite/bin/../lib/gcc/arm-none-eabi/4.4.1/../../../../arm-none-eabi/lib/thumb2\libm.a(lib_a-e_log10.o)
 .ARM.attributes
                0x0000164f       0x29 d:/tkstudio/build/sourcery g++ lite/bin/../lib/gcc/arm-none-eabi/4.4.1/../../../../arm-none-eabi/lib/thumb2\libm.a(lib_a-e_rem_pio2.o)
 .ARM.attributes
                0x00001678       0x29 d:/tkstudio/build/sourcery g++ lite/bin/../lib/gcc/arm-none-eabi/4.4.1/../../../../arm-none-eabi/lib/thumb2\libm.a(lib_a-k_cos.o)
 .ARM.attributes
                0x000016a1       0x29 d:/tkstudio/build/sourcery g++ lite/bin/../lib/gcc/arm-none-eabi/4.4.1/../../../../arm-none-eabi/lib/thumb2\libm.a(lib_a-k_rem_pio2.o)
 .ARM.attributes
                0x000016ca       0x29 d:/tkstudio/build/sourcery g++ lite/bin/../lib/gcc/arm-none-eabi/4.4.1/../../../../arm-none-eabi/lib/thumb2\libm.a(lib_a-k_sin.o)
 .ARM.attributes
                0x000016f3       0x29 d:/tkstudio/build/sourcery g++ lite/bin/../lib/gcc/arm-none-eabi/4.4.1/../../../../arm-none-eabi/lib/thumb2\libm.a(lib_a-s_fabs.o)
 .ARM.attributes
                0x0000171c       0x29 d:/tkstudio/build/sourcery g++ lite/bin/../lib/gcc/arm-none-eabi/4.4.1/../../../../arm-none-eabi/lib/thumb2\libm.a(lib_a-s_floor.o)
 .ARM.attributes
                0x00001745       0x29 d:/tkstudio/build/sourcery g++ lite/bin/../lib/gcc/arm-none-eabi/4.4.1/../../../../arm-none-eabi/lib/thumb2\libm.a(lib_a-s_isnand.o)
 .ARM.attributes
                0x0000176e       0x29 d:/tkstudio/build/sourcery g++ lite/bin/../lib/gcc/arm-none-eabi/4.4.1/../../../../arm-none-eabi/lib/thumb2\libm.a(lib_a-s_lib_ver.o)
 .ARM.attributes
                0x00001797       0x29 d:/tkstudio/build/sourcery g++ lite/bin/../lib/gcc/arm-none-eabi/4.4.1/../../../../arm-none-eabi/lib/thumb2\libm.a(lib_a-s_matherr.o)
 .ARM.attributes
                0x000017c0       0x29 d:/tkstudio/build/sourcery g++ lite/bin/../lib/gcc/arm-none-eabi/4.4.1/../../../../arm-none-eabi/lib/thumb2\libm.a(lib_a-s_nan.o)
 .ARM.attributes
                0x000017e9       0x29 d:/tkstudio/build/sourcery g++ lite/bin/../lib/gcc/arm-none-eabi/4.4.1/../../../../arm-none-eabi/lib/thumb2\libm.a(lib_a-s_scalbn.o)
 .ARM.attributes
                0x00001812       0x29 d:/tkstudio/build/sourcery g++ lite/bin/../lib/gcc/arm-none-eabi/4.4.1/../../../../arm-none-eabi/lib/thumb2\libm.a(lib_a-e_log.o)
 .ARM.attributes
                0x0000183b       0x29 d:/tkstudio/build/sourcery g++ lite/bin/../lib/gcc/arm-none-eabi/4.4.1/../../../../arm-none-eabi/lib/thumb2\libm.a(lib_a-s_copysign.o)
 .ARM.attributes
                0x00001864       0x1b d:/tkstudio/build/sourcery g++ lite/bin/../lib/gcc/arm-none-eabi/4.4.1/thumb2\libgcc.a(_divsi3.o)
 .ARM.attributes
                0x0000187f       0x1b d:/tkstudio/build/sourcery g++ lite/bin/../lib/gcc/arm-none-eabi/4.4.1/thumb2\libgcc.a(_dvmd_tls.o)
 .ARM.attributes
                0x0000189a       0x1b d:/tkstudio/build/sourcery g++ lite/bin/../lib/gcc/arm-none-eabi/4.4.1/thumb2\libgcc.a(_arm_addsubdf3.o)
 .ARM.attributes
                0x000018b5       0x1b d:/tkstudio/build/sourcery g++ lite/bin/../lib/gcc/arm-none-eabi/4.4.1/thumb2\libgcc.a(_arm_muldivdf3.o)
 .ARM.attributes
                0x000018d0       0x1b d:/tkstudio/build/sourcery g++ lite/bin/../lib/gcc/arm-none-eabi/4.4.1/thumb2\libgcc.a(_arm_cmpdf2.o)
 .ARM.attributes
                0x000018eb       0x1b d:/tkstudio/build/sourcery g++ lite/bin/../lib/gcc/arm-none-eabi/4.4.1/thumb2\libgcc.a(_arm_fixdfsi.o)
 .ARM.attributes
                0x00001906       0x1b d:/tkstudio/build/sourcery g++ lite/bin/../lib/gcc/arm-none-eabi/4.4.1/thumb2\libgcc.a(_arm_fixunsdfsi.o)
 .ARM.attributes
                0x00001921       0x1b d:/tkstudio/build/sourcery g++ lite/bin/../lib/gcc/arm-none-eabi/4.4.1/thumb2\libgcc.a(_arm_truncdfsf2.o)
 .ARM.attributes
                0x0000193c       0x1b d:/tkstudio/build/sourcery g++ lite/bin/../lib/gcc/arm-none-eabi/4.4.1/thumb2\libgcc.a(_arm_addsubsf3.o)
 .ARM.attributes
                0x00001957       0x1b d:/tkstudio/build/sourcery g++ lite/bin/../lib/gcc/arm-none-eabi/4.4.1/thumb2\libgcc.a(_arm_muldivsf3.o)
 .ARM.attributes
                0x00001972       0x1b d:/tkstudio/build/sourcery g++ lite/bin/../lib/gcc/arm-none-eabi/4.4.1/thumb2\libgcc.a(_arm_cmpsf2.o)
 .ARM.attributes
                0x0000198d       0x1b d:/tkstudio/build/sourcery g++ lite/bin/../lib/gcc/arm-none-eabi/4.4.1/thumb2\libgcc.a(_arm_fixsfsi.o)
 .ARM.attributes
                0x000019a8       0x1b d:/tkstudio/build/sourcery g++ lite/bin/../lib/gcc/arm-none-eabi/4.4.1/thumb2\libgcc.a(_aeabi_uldivmod.o)
 .ARM.attributes
                0x000019c3       0x29 d:/tkstudio/build/sourcery g++ lite/bin/../lib/gcc/arm-none-eabi/4.4.1/thumb2\libgcc.a(bpabi.o)
 .ARM.attributes
                0x000019ec       0x29 d:/tkstudio/build/sourcery g++ lite/bin/../lib/gcc/arm-none-eabi/4.4.1/thumb2\libgcc.a(_divdi3.o)
 .ARM.attributes
                0x00001a15       0x29 d:/tkstudio/build/sourcery g++ lite/bin/../lib/gcc/arm-none-eabi/4.4.1/thumb2\libgcc.a(_udivdi3.o)
 .ARM.attributes
                0x00001a3e       0x1b d:/tkstudio/build/sourcery g++ lite/bin/../lib/gcc/arm-none-eabi/4.4.1/thumb2\libgcc.a(_udivsi3.o)
 .ARM.attributes
                0x00001a59       0x29 d:/tkstudio/build/sourcery g++ lite/bin/../lib/gcc/arm-none-eabi/4.4.1/../../../../arm-none-eabi/lib/thumb2\libc.a(lib_a-atoi.o)
 .ARM.attributes
                0x00001a82       0x29 d:/tkstudio/build/sourcery g++ lite/bin/../lib/gcc/arm-none-eabi/4.4.1/../../../../arm-none-eabi/lib/thumb2\libc.a(lib_a-ctype_.o)
 .ARM.attributes
                0x00001aab       0x29 d:/tkstudio/build/sourcery g++ lite/bin/../lib/gcc/arm-none-eabi/4.4.1/../../../../arm-none-eabi/lib/thumb2\libc.a(lib_a-errno.o)
 .ARM.attributes
                0x00001ad4       0x29 d:/tkstudio/build/sourcery g++ lite/bin/../lib/gcc/arm-none-eabi/4.4.1/../../../../arm-none-eabi/lib/thumb2\libc.a(lib_a-impure.o)
 .ARM.attributes
                0x00001afd       0x29 d:/tkstudio/build/sourcery g++ lite/bin/../lib/gcc/arm-none-eabi/4.4.1/../../../../arm-none-eabi/lib/thumb2\libc.a(lib_a-memcmp.o)
 .ARM.attributes
                0x00001b26       0x29 d:/tkstudio/build/sourcery g++ lite/bin/../lib/gcc/arm-none-eabi/4.4.1/../../../../arm-none-eabi/lib/thumb2\libc.a(lib_a-memcpy.o)
 .ARM.attributes
                0x00001b4f       0x29 d:/tkstudio/build/sourcery g++ lite/bin/../lib/gcc/arm-none-eabi/4.4.1/../../../../arm-none-eabi/lib/thumb2\libc.a(lib_a-memmove.o)
 .ARM.attributes
                0x00001b78       0x29 d:/tkstudio/build/sourcery g++ lite/bin/../lib/gcc/arm-none-eabi/4.4.1/../../../../arm-none-eabi/lib/thumb2\libc.a(lib_a-memset.o)
 .ARM.attributes
                0x00001ba1       0x29 d:/tkstudio/build/sourcery g++ lite/bin/../lib/gcc/arm-none-eabi/4.4.1/../../../../arm-none-eabi/lib/thumb2\libc.a(lib_a-puts.o)
 .ARM.attributes
                0x00001bca       0x29 d:/tkstudio/build/sourcery g++ lite/bin/../lib/gcc/arm-none-eabi/4.4.1/../../../../arm-none-eabi/lib/thumb2\libc.a(lib_a-sscanf.o)
 .ARM.attributes
                0x00001bf3       0x29 d:/tkstudio/build/sourcery g++ lite/bin/../lib/gcc/arm-none-eabi/4.4.1/../../../../arm-none-eabi/lib/thumb2\libc.a(lib_a-strcasecmp.o)
 .ARM.attributes
                0x00001c1c       0x29 d:/tkstudio/build/sourcery g++ lite/bin/../lib/gcc/arm-none-eabi/4.4.1/../../../../arm-none-eabi/lib/thumb2\libc.a(lib_a-strchr.o)
 .ARM.attributes
                0x00001c45       0x29 d:/tkstudio/build/sourcery g++ lite/bin/../lib/gcc/arm-none-eabi/4.4.1/../../../../arm-none-eabi/lib/thumb2\libc.a(lib_a-strcmp.o)
 .ARM.attributes
                0x00001c6e       0x29 d:/tkstudio/build/sourcery g++ lite/bin/../lib/gcc/arm-none-eabi/4.4.1/../../../../arm-none-eabi/lib/thumb2\libc.a(lib_a-strlen.o)
 .ARM.attributes
                0x00001c97       0x29 d:/tkstudio/build/sourcery g++ lite/bin/../lib/gcc/arm-none-eabi/4.4.1/../../../../arm-none-eabi/lib/thumb2\libc.a(lib_a-strncasecmp.o)
 .ARM.attributes
                0x00001cc0       0x29 d:/tkstudio/build/sourcery g++ lite/bin/../lib/gcc/arm-none-eabi/4.4.1/../../../../arm-none-eabi/lib/thumb2\libc.a(lib_a-strncpy.o)
 .ARM.attributes
                0x00001ce9       0x29 d:/tkstudio/build/sourcery g++ lite/bin/../lib/gcc/arm-none-eabi/4.4.1/../../../../arm-none-eabi/lib/thumb2\libc.a(lib_a-strspn.o)
 .ARM.attributes
                0x00001d12       0x29 d:/tkstudio/build/sourcery g++ lite/bin/../lib/gcc/arm-none-eabi/4.4.1/../../../../arm-none-eabi/lib/thumb2\libc.a(lib_a-strtol.o)
 .ARM.attributes
                0x00001d3b       0x29 d:/tkstudio/build/sourcery g++ lite/bin/../lib/gcc/arm-none-eabi/4.4.1/../../../../arm-none-eabi/lib/thumb2\libc.a(lib_a-svfscanf.o)
 .ARM.attributes
                0x00001d64       0x29 d:/tkstudio/build/sourcery g++ lite/bin/../lib/gcc/arm-none-eabi/4.4.1/../../../../arm-none-eabi/lib/thumb2\libc.a(lib_a-ungetc.o)
 .ARM.attributes
                0x00001d8d       0x29 d:/tkstudio/build/sourcery g++ lite/bin/../lib/gcc/arm-none-eabi/4.4.1/../../../../arm-none-eabi/lib/thumb2\libc.a(lib_a-fflush.o)
 .ARM.attributes
                0x00001db6       0x29 d:/tkstudio/build/sourcery g++ lite/bin/../lib/gcc/arm-none-eabi/4.4.1/../../../../arm-none-eabi/lib/thumb2\libc.a(lib_a-findfp.o)
 .ARM.attributes
                0x00001ddf       0x29 d:/tkstudio/build/sourcery g++ lite/bin/../lib/gcc/arm-none-eabi/4.4.1/../../../../arm-none-eabi/lib/thumb2\libc.a(lib_a-freer.o)
 .ARM.attributes
                0x00001e08       0x29 d:/tkstudio/build/sourcery g++ lite/bin/../lib/gcc/arm-none-eabi/4.4.1/../../../../arm-none-eabi/lib/thumb2\libc.a(lib_a-fvwrite.o)
 .ARM.attributes
                0x00001e31       0x29 d:/tkstudio/build/sourcery g++ lite/bin/../lib/gcc/arm-none-eabi/4.4.1/../../../../arm-none-eabi/lib/thumb2\libc.a(lib_a-fwalk.o)
 .ARM.attributes
                0x00001e5a       0x29 d:/tkstudio/build/sourcery g++ lite/bin/../lib/gcc/arm-none-eabi/4.4.1/../../../../arm-none-eabi/lib/thumb2\libc.a(lib_a-iswspace.o)
 .ARM.attributes
                0x00001e83       0x29 d:/tkstudio/build/sourcery g++ lite/bin/../lib/gcc/arm-none-eabi/4.4.1/../../../../arm-none-eabi/lib/thumb2\libc.a(lib_a-locale.o)
 .ARM.attributes
                0x00001eac       0x29 d:/tkstudio/build/sourcery g++ lite/bin/../lib/gcc/arm-none-eabi/4.4.1/../../../../arm-none-eabi/lib/thumb2\libc.a(lib_a-mallocr.o)
 .ARM.attributes
                0x00001ed5       0x29 d:/tkstudio/build/sourcery g++ lite/bin/../lib/gcc/arm-none-eabi/4.4.1/../../../../arm-none-eabi/lib/thumb2\libc.a(lib_a-mbrtowc.o)
 .ARM.attributes
                0x00001efe       0x29 d:/tkstudio/build/sourcery g++ lite/bin/../lib/gcc/arm-none-eabi/4.4.1/../../../../arm-none-eabi/lib/thumb2\libc.a(lib_a-mbtowc_r.o)
 .ARM.attributes
                0x00001f27       0x29 d:/tkstudio/build/sourcery g++ lite/bin/../lib/gcc/arm-none-eabi/4.4.1/../../../../arm-none-eabi/lib/thumb2\libc.a(lib_a-memchr.o)
 .ARM.attributes
                0x00001f50       0x29 d:/tkstudio/build/sourcery g++ lite/bin/../lib/gcc/arm-none-eabi/4.4.1/../../../../arm-none-eabi/lib/thumb2\libc.a(lib_a-mlock.o)
 .ARM.attributes
                0x00001f79       0x29 d:/tkstudio/build/sourcery g++ lite/bin/../lib/gcc/arm-none-eabi/4.4.1/../../../../arm-none-eabi/lib/thumb2\libc.a(lib_a-reallocr.o)
 .ARM.attributes
                0x00001fa2       0x29 d:/tkstudio/build/sourcery g++ lite/bin/../lib/gcc/arm-none-eabi/4.4.1/../../../../arm-none-eabi/lib/thumb2\libc.a(lib_a-sccl.o)
 .ARM.attributes
                0x00001fcb       0x29 d:/tkstudio/build/sourcery g++ lite/bin/../lib/gcc/arm-none-eabi/4.4.1/../../../../arm-none-eabi/lib/thumb2\libc.a(lib_a-sf_nan.o)
 .ARM.attributes
                0x00001ff4       0x29 d:/tkstudio/build/sourcery g++ lite/bin/../lib/gcc/arm-none-eabi/4.4.1/../../../../arm-none-eabi/lib/thumb2\libc.a(lib_a-sprintf.o)
 .ARM.attributes
                0x0000201d       0x29 d:/tkstudio/build/sourcery g++ lite/bin/../lib/gcc/arm-none-eabi/4.4.1/../../../../arm-none-eabi/lib/thumb2\libc.a(lib_a-stdio.o)
 .ARM.attributes
                0x00002046       0x29 d:/tkstudio/build/sourcery g++ lite/bin/../lib/gcc/arm-none-eabi/4.4.1/../../../../arm-none-eabi/lib/thumb2\libc.a(lib_a-strtod.o)
 .ARM.attributes
                0x0000206f       0x29 d:/tkstudio/build/sourcery g++ lite/bin/../lib/gcc/arm-none-eabi/4.4.1/../../../../arm-none-eabi/lib/thumb2\libc.a(lib_a-strtoll_r.o)
 .ARM.attributes
                0x00002098       0x29 d:/tkstudio/build/sourcery g++ lite/bin/../lib/gcc/arm-none-eabi/4.4.1/../../../../arm-none-eabi/lib/thumb2\libc.a(lib_a-strtoul.o)
 .ARM.attributes
                0x000020c1       0x29 d:/tkstudio/build/sourcery g++ lite/bin/../lib/gcc/arm-none-eabi/4.4.1/../../../../arm-none-eabi/lib/thumb2\libc.a(lib_a-strtoull_r.o)
 .ARM.attributes
                0x000020ea       0x29 d:/tkstudio/build/sourcery g++ lite/bin/../lib/gcc/arm-none-eabi/4.4.1/../../../../arm-none-eabi/lib/thumb2\libc.a(lib_a-svfprintf.o)
 .ARM.attributes
                0x00002113       0x29 d:/tkstudio/build/sourcery g++ lite/bin/../lib/gcc/arm-none-eabi/4.4.1/../../../../arm-none-eabi/lib/thumb2\libc.a(lib_a-wsetup.o)
 .ARM.attributes
                0x0000213c       0x29 d:/tkstudio/build/sourcery g++ lite/bin/../lib/gcc/arm-none-eabi/4.4.1/../../../../arm-none-eabi/lib/thumb2\libc.a(lib_a-dtoa.o)
 .ARM.attributes
                0x00002165       0x29 d:/tkstudio/build/sourcery g++ lite/bin/../lib/gcc/arm-none-eabi/4.4.1/../../../../arm-none-eabi/lib/thumb2\libc.a(lib_a-fclose.o)
 .ARM.attributes
                0x0000218e       0x29 d:/tkstudio/build/sourcery g++ lite/bin/../lib/gcc/arm-none-eabi/4.4.1/../../../../arm-none-eabi/lib/thumb2\libc.a(lib_a-gdtoa-gethex.o)
 .ARM.attributes
                0x000021b7       0x29 d:/tkstudio/build/sourcery g++ lite/bin/../lib/gcc/arm-none-eabi/4.4.1/../../../../arm-none-eabi/lib/thumb2\libc.a(lib_a-gdtoa-hexnan.o)
 .ARM.attributes
                0x000021e0       0x29 d:/tkstudio/build/sourcery g++ lite/bin/../lib/gcc/arm-none-eabi/4.4.1/../../../../arm-none-eabi/lib/thumb2\libc.a(lib_a-makebuf.o)
 .ARM.attributes
                0x00002209       0x29 d:/tkstudio/build/sourcery g++ lite/bin/../lib/gcc/arm-none-eabi/4.4.1/../../../../arm-none-eabi/lib/thumb2\libc.a(lib_a-malloc.o)
 .ARM.attributes
                0x00002232       0x29 d:/tkstudio/build/sourcery g++ lite/bin/../lib/gcc/arm-none-eabi/4.4.1/../../../../arm-none-eabi/lib/thumb2\libc.a(lib_a-mprec.o)
 .ARM.attributes
                0x0000225b       0x29 d:/tkstudio/build/sourcery g++ lite/bin/../lib/gcc/arm-none-eabi/4.4.1/../../../../arm-none-eabi/lib/thumb2\libc.a(lib_a-s_isinfd.o)
 .ARM.attributes
                0x00002284       0x29 d:/tkstudio/build/sourcery g++ lite/bin/../lib/gcc/arm-none-eabi/4.4.1/../../../../arm-none-eabi/lib/thumb2\libc.a(lib_a-callocr.o)
 .ARM.attributes
                0x000022ad       0x29 d:/tkstudio/build/sourcery g++ lite/bin/../lib/gcc/arm-none-eabi/4.4.1/thumb2/crtend.o
 .ARM.attributes
                0x000022d6       0x19 d:/tkstudio/build/sourcery g++ lite/bin/../lib/gcc/arm-none-eabi/4.4.1/thumb2/crtn.o

.comment        0x00000000      0xf4e
 .comment       0x00000000       0x2b ..\obj\i2s_in_control.o
 .comment       0x0000002b       0x2b ..\obj\breakpoint.o
 .comment       0x00000056       0x2b ..\obj\main.o
 .comment       0x00000081       0x2b ..\obj\sys_vol.o
 .comment       0x000000ac       0x2b ..\obj\dev_state_machine.o
 .comment       0x000000d7       0x2b ..\obj\mtk_fm_drv.o
 .comment       0x00000102       0x2b ..\obj\print.o
 .comment       0x0000012d       0x2b ..\obj\debug_test.o
 .comment       0x00000158       0x2b ..\obj\RDA5807.o
 .comment       0x00000183       0x2b ..\obj\sys_app.o
 .comment       0x000001ae       0x2b ..\obj\player_control.o
 .comment       0x000001d9       0x2b ..\obj\startup.o
 .comment       0x00000204       0x2b ..\obj\recorder_control.o
 .comment       0x0000022f       0x2b ..\obj\micro_adjust.o
 .comment       0x0000025a       0x2b ..\obj\mass_test.o
 .comment       0x00000285       0x2b ..\obj\partition.o
 .comment       0x000002b0       0x2b ..\obj\asc16.o
 .comment       0x000002db       0x2b ..\obj\ir_key.o
 .comment       0x00000306       0x2b ..\obj\filesort.o
 .comment       0x00000331       0x2b ..\obj\upgrade_detect.o
 .comment       0x0000035c       0x2b ..\obj\dev_detect_driver.o
 .comment       0x00000387       0x2b ..\obj\get_bootup_info.o
 .comment       0x000003b2       0x2b ..\obj\QN8035.o
 .comment       0x000003dd       0x2b ..\obj\adc_key.o
 .comment       0x00000408       0x2b ..\obj\sound_remind.o
 .comment       0x00000433       0x2b ..\obj\browser.o
 .comment       0x0000045e       0x2b ..\obj\diskio.o
 .comment       0x00000489       0x2b ..\obj\rtc_control.o
 .comment       0x000004b4       0x2b ..\obj\power_key.o
 .comment       0x000004df       0x2b ..\obj\coding_key.o
 .comment       0x0000050a       0x2b ..\obj\string_convert.o
 .comment       0x00000535       0x2b ..\obj\line_in_control.o
 .comment       0x00000560       0x2b ..\obj\radio.o
 .comment       0x0000058b       0x2b ..\obj\eq_params.o
 .comment       0x000005b6       0x2b ..\obj\i2c.o
 .comment       0x000005e1       0x2b ..\obj\font.o
 .comment       0x0000060c       0x2b ..\obj\idle_control.o
 .comment       0x00000637       0x2b ..\obj\hzk16.o
 .comment       0x00000662       0x2b ..\obj\radio_control.o
 .comment       0x0000068d       0x2b ..\obj\key.o
 .comment       0x000006b8       0x2b ..\obj\task_main.o
 .comment       0x000006e3       0x2b ..\obj\presearch.o
 .comment       0x0000070e       0x2b ..\obj\power_management.o
 .comment       0x00000739       0x2b ..\obj\retarget.o
 .comment       0x00000764       0x2b ..\..\..\..\..\lib\libdriver.a(eq.o)
 .comment       0x0000078f       0x2b ..\..\..\..\..\lib\libdriver.a(gpio.o)
 .comment       0x000007ba       0x2b ..\..\..\..\..\lib\libdriver.a(beep.o)
 .comment       0x000007e5       0x2b ..\..\..\..\..\lib\libdriver.a(otg_detect_usb1.o)
 .comment       0x00000810       0x2b ..\..\..\..\..\lib\libdriver.a(timer_api.o)
 .comment       0x0000083b       0x2b ..\..\..\..\..\lib\libdriver.a(host_stor.o)
 .comment       0x00000866       0x2b ..\..\..\..\..\lib\libdriver.a(host_hcd.o)
 .comment       0x00000891       0x2b ..\..\..\..\..\lib\libdriver.a(rst.o)
 .comment       0x000008bc       0x2b ..\..\..\..\..\lib\libdriver.a(wakeup.o)
 .comment       0x000008e7       0x2b ..\..\..\..\..\lib\libdriver.a(nvm.o)
 .comment       0x00000912       0x2b ..\..\..\..\..\lib\libdriver.a(rtc_lunar.o)
 .comment       0x0000093d       0x2b ..\..\..\..\..\lib\libdriver.a(pcm_transfer.o)
 .comment       0x00000968       0x2b ..\..\..\..\..\lib\libdriver.a(watchdog.o)
 .comment       0x00000993       0x2b ..\..\..\..\..\lib\libdriver.a(device_audio.o)
 .comment       0x000009be       0x2b ..\..\..\..\..\lib\libdriver.a(audio_adc.o)
 .comment       0x000009e9       0x2b ..\..\..\..\..\lib\libdriver.a(mixer.o)
 .comment       0x00000a14       0x2b ..\..\..\..\..\lib\libdriver.a(rtc.o)
 .comment       0x00000a3f       0x2b ..\..\..\..\..\lib\libdriver.a(i2s.o)
 .comment       0x00000a6a       0x2b ..\..\..\..\..\lib\libdriver.a(sd_card.o)
 .comment       0x00000a95       0x2b ..\..\..\..\..\lib\libdriver.a(sdio.o)
 .comment       0x00000ac0       0x2b ..\..\..\..\..\lib\libdriver.a(random.o)
 .comment       0x00000aeb       0x2b ..\..\..\..\..\lib\libdriver.a(sample_rate_convert.o)
 .comment       0x00000b16       0x2b ..\..\..\..\..\lib\libdriver.a(device_stor_audio_request.o)
 .comment       0x00000b41       0x2b ..\..\..\..\..\lib\libdriver.a(timeout.o)
 .comment       0x00000b6c       0x2b ..\..\..\..\..\lib\libdriver.a(device_hcd.o)
 .comment       0x00000b97       0x2b ..\..\..\..\..\lib\libdriver.a(ir.o)
 .comment       0x00000bc2       0x2b ..\..\..\..\..\lib\libdriver.a(otg_detect.o)
 .comment       0x00000bed       0x2b ..\..\..\..\..\lib\libdriver.a(dac.o)
 .comment       0x00000c18       0x2b ..\..\..\..\..\lib\libdriver.a(spi_flash.o)
 .comment       0x00000c43       0x2b ..\..\..\..\..\lib\libdriver.a(audio_path.o)
 .comment       0x00000c6e       0x2b ..\..\..\..\..\lib\libdriver.a(timer.o)
 .comment       0x00000c99       0x2b ..\..\..\..\..\lib\libdriver.a(clk.o)
 .comment       0x00000cc4       0x2b ..\..\..\..\..\lib\libdriver.a(otg_hal.o)
 .comment       0x00000cef       0x2b ..\..\..\..\..\lib\libdriver.a(adc.o)
 .comment       0x00000d1a       0x2b ..\..\..\..\..\lib\libdriver.a(lrc.o)
 .comment       0x00000d45       0x2b ..\..\..\..\..\lib\libdriver.a(cache.o)
 .comment       0x00000d70       0x2b ..\..\..\..\..\lib\libdriver.a(pcm_fifo.o)
 .comment       0x00000d9b       0x2b ..\..\..\..\..\lib\libdriver.a(otg_detect_usb2.o)
 .comment       0x00000dc6       0x2b ..\..\..\..\..\lib\libdriver.a(fuart.o)
 .comment       0x00000df1       0x2b ..\..\..\..\..\lib\libdriver.a(ldo_config.o)
 .comment       0x00000e1c       0x2b ..\..\..\..\..\lib\libdriver.a(buart.o)
 .comment       0x00000e47       0x2b ..\..\..\..\..\lib\libdriver.a(pmem.o)
 .comment       0x00000e72       0x2b ..\..\..\..\..\lib\libdriver.a(pcm_play.o)
 .comment       0x00000e9d       0x2b ..\..\..\..\..\lib\libdriver.a(host_stor_request.o)
 .comment       0x00000ec8       0x2b ..\..\..\..\..\lib\libdriver.a(otg_int.o)
 .comment       0x00000ef3       0x2b ..\..\..\..\..\lib\libdriver.a(device_stor.o)
 .comment       0x00000f1e       0x30 ..\..\..\..\..\lib\libos.a(init.o)
                                 0x31 (size before relaxing)
 .comment       0x00000000       0x31 ..\..\..\..\..\lib\libos.a(mmm.o)
 .comment       0x00000000       0x31 ..\..\..\..\..\lib\libos.a(setup.o)
 .comment       0x00000000       0x31 ..\..\..\..\..\lib\libos.a(semaphore.o)
 .comment       0x00000000       0x31 ..\..\..\..\..\lib\libos.a(msgq.o)
 .comment       0x00000000       0x31 ..\..\..\..\..\lib\libos.a(shell.o)
 .comment       0x00000000       0x31 ..\..\..\..\..\lib\libos.a(locks.o)
 .comment       0x00000000       0x31 ..\..\..\..\..\lib\libos.a(auxinfo.o)
 .comment       0x00000000       0x31 ..\..\..\..\..\lib\libos.a(tasks.o)
 .comment       0x00000000       0x31 ..\..\..\..\..\lib\libos.a(mach.o)
 .comment       0x00000000       0x31 ..\..\..\..\..\lib\libos.a(list.o)
 .comment       0x00000000       0x31 ..\..\..\..\..\lib\libfs.a(dir.o)
 .comment       0x00000000       0x31 ..\..\..\..\..\lib\libfs.a(fs_mount.o)
 .comment       0x00000000       0x31 ..\..\..\..\..\lib\libfs.a(fat.o)
 .comment       0x00000000       0x31 ..\..\..\..\..\lib\libfs.a(exfat.o)
 .comment       0x00000000       0x31 ..\..\..\..\..\lib\libfs.a(fat_file.o)
 .comment       0x00000000       0x31 ..\..\..\..\..\lib\libfs.a(dir_lookup.o)
 .comment       0x00000000       0x31 ..\..\..\..\..\lib\libfs.a(utf.o)
 .comment       0x00000000       0x31 ..\..\..\..\..\lib\libfs.a(fsinfo.o)
 .comment       0x00000000       0x31 ..\..\..\..\..\lib\libfs.a(folder.o)
 .comment       0x00000000       0x31 ..\..\..\..\..\lib\libfs.a(fsmount_buffermanager.o)

.debug_abbrev   0x00000000     0x45c4
 .debug_abbrev  0x00000000       0x56 ..\obj\i2s_in_control.o
 .debug_abbrev  0x00000056      0x2f3 ..\obj\breakpoint.o
 .debug_abbrev  0x00000349      0x145 ..\obj\main.o
 .debug_abbrev  0x0000048e      0x337 ..\obj\sys_vol.o
 .debug_abbrev  0x000007c5      0x1df ..\obj\dev_state_machine.o
 .debug_abbrev  0x000009a4       0x56 ..\obj\mtk_fm_drv.o
 .debug_abbrev  0x000009fa      0x1dd ..\obj\print.o
 .debug_abbrev  0x00000bd7      0x225 ..\obj\debug_test.o
 .debug_abbrev  0x00000dfc      0x1ae ..\obj\RDA5807.o
 .debug_abbrev  0x00000faa      0x288 ..\obj\sys_app.o
 .debug_abbrev  0x00001232      0x33a ..\obj\player_control.o
 .debug_abbrev  0x0000156c       0xec ..\obj\startup.o
 .debug_abbrev  0x00001658      0x36b ..\obj\recorder_control.o
 .debug_abbrev  0x000019c3       0x7a ..\obj\micro_adjust.o
 .debug_abbrev  0x00001a3d      0x204 ..\obj\mass_test.o
 .debug_abbrev  0x00001c41      0x162 ..\obj\partition.o
 .debug_abbrev  0x00001da3       0x56 ..\obj\asc16.o
 .debug_abbrev  0x00001df9      0x146 ..\obj\ir_key.o
 .debug_abbrev  0x00001f3f       0x56 ..\obj\filesort.o
 .debug_abbrev  0x00001f95      0x18e ..\obj\upgrade_detect.o
 .debug_abbrev  0x00002123      0x202 ..\obj\dev_detect_driver.o
 .debug_abbrev  0x00002325      0x1b1 ..\obj\get_bootup_info.o
 .debug_abbrev  0x000024d6       0x56 ..\obj\QN8035.o
 .debug_abbrev  0x0000252c      0x181 ..\obj\adc_key.o
 .debug_abbrev  0x000026ad      0x206 ..\obj\sound_remind.o
 .debug_abbrev  0x000028b3      0x200 ..\obj\browser.o
 .debug_abbrev  0x00002ab3       0xf7 ..\obj\diskio.o
 .debug_abbrev  0x00002baa      0x2c2 ..\obj\rtc_control.o
 .debug_abbrev  0x00002e6c       0x56 ..\obj\power_key.o
 .debug_abbrev  0x00002ec2      0x15a ..\obj\coding_key.o
 .debug_abbrev  0x0000301c      0x14e ..\obj\string_convert.o
 .debug_abbrev  0x0000316a      0x17c ..\obj\line_in_control.o
 .debug_abbrev  0x000032e6      0x1b7 ..\obj\radio.o
 .debug_abbrev  0x0000349d      0x14d ..\obj\eq_params.o
 .debug_abbrev  0x000035ea      0x1ef ..\obj\i2c.o
 .debug_abbrev  0x000037d9       0x56 ..\obj\font.o
 .debug_abbrev  0x0000382f      0x10d ..\obj\idle_control.o
 .debug_abbrev  0x0000393c       0x56 ..\obj\hzk16.o
 .debug_abbrev  0x00003992      0x292 ..\obj\radio_control.o
 .debug_abbrev  0x00003c24      0x124 ..\obj\key.o
 .debug_abbrev  0x00003d48      0x15d ..\obj\task_main.o
 .debug_abbrev  0x00003ea5      0x333 ..\obj\presearch.o
 .debug_abbrev  0x000041d8      0x1aa ..\obj\power_management.o
 .debug_abbrev  0x00004382      0x242 ..\obj\retarget.o

.debug_info     0x00000000    0x17ade
 .debug_info    0x00000000       0x90 ..\obj\i2s_in_control.o
 .debug_info    0x00000090      0x910 ..\obj\breakpoint.o
 .debug_info    0x000009a0      0x78c ..\obj\main.o
 .debug_info    0x0000112c     0x144d ..\obj\sys_vol.o
 .debug_info    0x00002579      0xc84 ..\obj\dev_state_machine.o
 .debug_info    0x000031fd       0x90 ..\obj\mtk_fm_drv.o
 .debug_info    0x0000328d      0x4b5 ..\obj\print.o
 .debug_info    0x00003742      0x901 ..\obj\debug_test.o
 .debug_info    0x00004043      0x3b7 ..\obj\RDA5807.o
 .debug_info    0x000043fa      0xc91 ..\obj\sys_app.o
 .debug_info    0x0000508b     0x212e ..\obj\player_control.o
 .debug_info    0x000071b9      0x199 ..\obj\startup.o
 .debug_info    0x00007352     0x2cf6 ..\obj\recorder_control.o
 .debug_info    0x0000a048       0xc1 ..\obj\micro_adjust.o
 .debug_info    0x0000a109      0x47a ..\obj\mass_test.o
 .debug_info    0x0000a583      0xac1 ..\obj\partition.o
 .debug_info    0x0000b044       0x7b ..\obj\asc16.o
 .debug_info    0x0000b0bf      0x4df ..\obj\ir_key.o
 .debug_info    0x0000b59e       0x90 ..\obj\filesort.o
 .debug_info    0x0000b62e      0x8a7 ..\obj\upgrade_detect.o
 .debug_info    0x0000bed5      0xd3d ..\obj\dev_detect_driver.o
 .debug_info    0x0000cc12      0x41f ..\obj\get_bootup_info.o
 .debug_info    0x0000d031       0x90 ..\obj\QN8035.o
 .debug_info    0x0000d0c1      0x4a3 ..\obj\adc_key.o
 .debug_info    0x0000d564      0xb29 ..\obj\sound_remind.o
 .debug_info    0x0000e08d      0xdc8 ..\obj\browser.o
 .debug_info    0x0000ee55      0x258 ..\obj\diskio.o
 .debug_info    0x0000f0ad     0x1136 ..\obj\rtc_control.o
 .debug_info    0x000101e3       0x90 ..\obj\power_key.o
 .debug_info    0x00010273      0x59f ..\obj\coding_key.o
 .debug_info    0x00010812      0x2ec ..\obj\string_convert.o
 .debug_info    0x00010afe      0xc9a ..\obj\line_in_control.o
 .debug_info    0x00011798      0x767 ..\obj\radio.o
 .debug_info    0x00011eff      0x354 ..\obj\eq_params.o
 .debug_info    0x00012253      0x73a ..\obj\i2c.o
 .debug_info    0x0001298d       0x90 ..\obj\font.o
 .debug_info    0x00012a1d      0x7f4 ..\obj\idle_control.o
 .debug_info    0x00013211       0x7b ..\obj\hzk16.o
 .debug_info    0x0001328c     0x1131 ..\obj\radio_control.o
 .debug_info    0x000143bd      0x835 ..\obj\key.o
 .debug_info    0x00014bf2      0x923 ..\obj\task_main.o
 .debug_info    0x00015515     0x1139 ..\obj\presearch.o
 .debug_info    0x0001664e      0x974 ..\obj\power_management.o
 .debug_info    0x00016fc2      0xb1c ..\obj\retarget.o

.debug_line     0x00000000     0x7f8f
 .debug_line    0x00000000       0xb7 ..\obj\i2s_in_control.o
 .debug_line    0x000000b7      0x4a4 ..\obj\breakpoint.o
 .debug_line    0x0000055b      0x244 ..\obj\main.o
 .debug_line    0x0000079f      0x727 ..\obj\sys_vol.o
 .debug_line    0x00000ec6      0x40b ..\obj\dev_state_machine.o
 .debug_line    0x000012d1       0xb7 ..\obj\mtk_fm_drv.o
 .debug_line    0x00001388      0x1f2 ..\obj\print.o
 .debug_line    0x0000157a      0x2cf ..\obj\debug_test.o
 .debug_line    0x00001849      0x232 ..\obj\RDA5807.o
 .debug_line    0x00001a7b      0x401 ..\obj\sys_app.o
 .debug_line    0x00001e7c      0x955 ..\obj\player_control.o
 .debug_line    0x000027d1       0xcd ..\obj\startup.o
 .debug_line    0x0000289e      0x7f1 ..\obj\recorder_control.o
 .debug_line    0x0000308f      0x14a ..\obj\micro_adjust.o
 .debug_line    0x000031d9      0x2d5 ..\obj\mass_test.o
 .debug_line    0x000034ae      0x351 ..\obj\partition.o
 .debug_line    0x000037ff       0xb7 ..\obj\asc16.o
 .debug_line    0x000038b6      0x20a ..\obj\ir_key.o
 .debug_line    0x00003ac0       0xb7 ..\obj\filesort.o
 .debug_line    0x00003b77      0x200 ..\obj\upgrade_detect.o
 .debug_line    0x00003d77      0x49d ..\obj\dev_detect_driver.o
 .debug_line    0x00004214      0x214 ..\obj\get_bootup_info.o
 .debug_line    0x00004428       0xb7 ..\obj\QN8035.o
 .debug_line    0x000044df      0x1e3 ..\obj\adc_key.o
 .debug_line    0x000046c2      0x3c1 ..\obj\sound_remind.o
 .debug_line    0x00004a83      0x350 ..\obj\browser.o
 .debug_line    0x00004dd3      0x1a7 ..\obj\diskio.o
 .debug_line    0x00004f7a      0x603 ..\obj\rtc_control.o
 .debug_line    0x0000557d       0xb7 ..\obj\power_key.o
 .debug_line    0x00005634      0x1d6 ..\obj\coding_key.o
 .debug_line    0x0000580a      0x1a7 ..\obj\string_convert.o
 .debug_line    0x000059b1      0x38a ..\obj\line_in_control.o
 .debug_line    0x00005d3b      0x2fb ..\obj\radio.o
 .debug_line    0x00006036      0x195 ..\obj\eq_params.o
 .debug_line    0x000061cb      0x329 ..\obj\i2c.o
 .debug_line    0x000064f4       0xb7 ..\obj\font.o
 .debug_line    0x000065ab      0x2a1 ..\obj\idle_control.o
 .debug_line    0x0000684c       0xb7 ..\obj\hzk16.o
 .debug_line    0x00006903      0x621 ..\obj\radio_control.o
 .debug_line    0x00006f24      0x2c7 ..\obj\key.o
 .debug_line    0x000071eb      0x37a ..\obj\task_main.o
 .debug_line    0x00007565      0x440 ..\obj\presearch.o
 .debug_line    0x000079a5      0x33f ..\obj\power_management.o
 .debug_line    0x00007ce4      0x2ab ..\obj\retarget.o

.debug_str      0x00000000     0x7789
 .debug_str     0x00000000       0xc6 ..\obj\i2s_in_control.o
                                0x107 (size before relaxing)
 .debug_str     0x000000c6      0x452 ..\obj\breakpoint.o
                                0x56e (size before relaxing)
 .debug_str     0x00000518      0x906 ..\obj\main.o
                                0x9f0 (size before relaxing)
 .debug_str     0x00000e1e     0x125b ..\obj\sys_vol.o
                               0x188e (size before relaxing)
 .debug_str     0x00002079      0x1fe ..\obj\dev_state_machine.o
                               0x1104 (size before relaxing)
 .debug_str     0x00002277       0x5b ..\obj\mtk_fm_drv.o
                                0x105 (size before relaxing)
 .debug_str     0x000022d2      0x109 ..\obj\print.o
                                0x1de (size before relaxing)
 .debug_str     0x000023db      0x6ab ..\obj\debug_test.o
                                0xc47 (size before relaxing)
 .debug_str     0x00002a86      0x1a5 ..\obj\RDA5807.o
                                0x25e (size before relaxing)
 .debug_str     0x00002c2b      0x45e ..\obj\sys_app.o
                                0xe1e (size before relaxing)
 .debug_str     0x00003089      0xe7c ..\obj\player_control.o
                               0x2203 (size before relaxing)
 .debug_str     0x00003f05      0x107 ..\obj\startup.o
                                0x19c (size before relaxing)
 .debug_str     0x0000400c      0xbeb ..\obj\recorder_control.o
                               0x287f (size before relaxing)
 .debug_str     0x00004bf7       0x72 ..\obj\micro_adjust.o
                                0x125 (size before relaxing)
 .debug_str     0x00004c69      0x11e ..\obj\mass_test.o
                                0x5dc (size before relaxing)
 .debug_str     0x00004d87      0x3d7 ..\obj\partition.o
                                0x8f8 (size before relaxing)
 .debug_str     0x0000515e       0x54 ..\obj\asc16.o
                                 0xde (size before relaxing)
 .debug_str     0x000051b2      0x176 ..\obj\ir_key.o
                                0x702 (size before relaxing)
 .debug_str     0x00005328       0x52 ..\obj\filesort.o
                                 0xfc (size before relaxing)
 .debug_str     0x0000537a       0x93 ..\obj\upgrade_detect.o
                                0x603 (size before relaxing)
 .debug_str     0x0000540d      0x28f ..\obj\dev_detect_driver.o
                                0xd4b (size before relaxing)
 .debug_str     0x0000569c      0x1d9 ..\obj\get_bootup_info.o
                                0x2d3 (size before relaxing)
 .debug_str     0x00005875       0x57 ..\obj\QN8035.o
                                0x101 (size before relaxing)
 .debug_str     0x000058cc      0x121 ..\obj\adc_key.o
                                0x6e4 (size before relaxing)
 .debug_str     0x000059ed      0x228 ..\obj\sound_remind.o
                                0xca9 (size before relaxing)
 .debug_str     0x00005c15      0x144 ..\obj\browser.o
                                0xc7c (size before relaxing)
 .debug_str     0x00005d59       0x9d ..\obj\diskio.o
                                0x1d4 (size before relaxing)
 .debug_str     0x00005df6      0x5d0 ..\obj\rtc_control.o
                               0x1146 (size before relaxing)
 .debug_str     0x000063c6       0x54 ..\obj\power_key.o
                                 0xfe (size before relaxing)
 .debug_str     0x0000641a       0x93 ..\obj\coding_key.o
                                0x78f (size before relaxing)
 .debug_str     0x000064ad      0x137 ..\obj\string_convert.o
                                0x1fd (size before relaxing)
 .debug_str     0x000065e4       0x84 ..\obj\line_in_control.o
                               0x11f8 (size before relaxing)
 .debug_str     0x00006668      0x120 ..\obj\radio.o
                                0x641 (size before relaxing)
 .debug_str     0x00006788      0x111 ..\obj\eq_params.o
                                0x20e (size before relaxing)
 .debug_str     0x00006899      0x210 ..\obj\i2c.o
                                0x2e7 (size before relaxing)
 .debug_str     0x00006aa9       0x53 ..\obj\font.o
                                 0xfd (size before relaxing)
 .debug_str     0x00006afc       0x67 ..\obj\idle_control.o
                                0x9cb (size before relaxing)
 .debug_str     0x00006b63       0x54 ..\obj\hzk16.o
                                 0xde (size before relaxing)
 .debug_str     0x00006bb7      0x21b ..\obj\radio_control.o
                               0x15e4 (size before relaxing)
 .debug_str     0x00006dd2       0x58 ..\obj\key.o
                                0x95f (size before relaxing)
 .debug_str     0x00006e2a       0x87 ..\obj\task_main.o
                                0xac7 (size before relaxing)
 .debug_str     0x00006eb1      0x2de ..\obj\presearch.o
                                0xbf2 (size before relaxing)
 .debug_str     0x0000718f      0x173 ..\obj\power_management.o
                                0xb0f (size before relaxing)
 .debug_str     0x00007302      0x487 ..\obj\retarget.o
                                0x59a (size before relaxing)

.debug_loc      0x00000000     0x5d72
 .debug_loc     0x00000000      0x860 ..\obj\breakpoint.o
 .debug_loc     0x00000860       0x88 ..\obj\main.o
 .debug_loc     0x000008e8      0x7a9 ..\obj\sys_vol.o
 .debug_loc     0x00001091      0x340 ..\obj\dev_state_machine.o
 .debug_loc     0x000013d1      0x67c ..\obj\print.o
 .debug_loc     0x00001a4d      0x1ce ..\obj\debug_test.o
 .debug_loc     0x00001c1b      0x2ca ..\obj\RDA5807.o
 .debug_loc     0x00001ee5      0x2ad ..\obj\sys_app.o
 .debug_loc     0x00002192      0x8cf ..\obj\player_control.o
 .debug_loc     0x00002a61       0xd8 ..\obj\startup.o
 .debug_loc     0x00002b39      0x979 ..\obj\recorder_control.o
 .debug_loc     0x000034b2       0x1f ..\obj\micro_adjust.o
 .debug_loc     0x000034d1      0x3e1 ..\obj\mass_test.o
 .debug_loc     0x000038b2      0x370 ..\obj\partition.o
 .debug_loc     0x00003c22      0x101 ..\obj\ir_key.o
 .debug_loc     0x00003d23       0x93 ..\obj\upgrade_detect.o
 .debug_loc     0x00003db6      0x140 ..\obj\dev_detect_driver.o
 .debug_loc     0x00003ef6      0x159 ..\obj\get_bootup_info.o
 .debug_loc     0x0000404f       0xc2 ..\obj\adc_key.o
 .debug_loc     0x00004111      0x108 ..\obj\sound_remind.o
 .debug_loc     0x00004219      0x2aa ..\obj\browser.o
 .debug_loc     0x000044c3      0x1d2 ..\obj\diskio.o
 .debug_loc     0x00004695      0x226 ..\obj\rtc_control.o
 .debug_loc     0x000048bb       0x5c ..\obj\coding_key.o
 .debug_loc     0x00004917      0x32c ..\obj\string_convert.o
 .debug_loc     0x00004c43       0x5c ..\obj\line_in_control.o
 .debug_loc     0x00004c9f      0x13a ..\obj\radio.o
 .debug_loc     0x00004dd9      0x11e ..\obj\eq_params.o
 .debug_loc     0x00004ef7      0x72f ..\obj\i2c.o
 .debug_loc     0x00005626       0x1f ..\obj\idle_control.o
 .debug_loc     0x00005645      0x2bb ..\obj\radio_control.o
 .debug_loc     0x00005900       0x68 ..\obj\key.o
 .debug_loc     0x00005968       0x68 ..\obj\task_main.o
 .debug_loc     0x000059d0      0x262 ..\obj\presearch.o
 .debug_loc     0x00005c32       0xba ..\obj\power_management.o
 .debug_loc     0x00005cec       0x86 ..\obj\retarget.o

.debug_pubnames
                0x00000000     0x1f2b
 .debug_pubnames
                0x00000000       0x7d ..\obj\breakpoint.o
 .debug_pubnames
                0x0000007d       0xc6 ..\obj\main.o
 .debug_pubnames
                0x00000143      0x2aa ..\obj\sys_vol.o
 .debug_pubnames
                0x000003ed       0x61 ..\obj\dev_state_machine.o
 .debug_pubnames
                0x0000044e       0xaa ..\obj\print.o
 .debug_pubnames
                0x000004f8       0xaa ..\obj\debug_test.o
 .debug_pubnames
                0x000005a2      0x133 ..\obj\RDA5807.o
 .debug_pubnames
                0x000006d5       0xf6 ..\obj\sys_app.o
 .debug_pubnames
                0x000007cb      0x383 ..\obj\player_control.o
 .debug_pubnames
                0x00000b4e       0x3e ..\obj\startup.o
 .debug_pubnames
                0x00000b8c      0x472 ..\obj\recorder_control.o
 .debug_pubnames
                0x00000ffe       0x20 ..\obj\micro_adjust.o
 .debug_pubnames
                0x0000101e       0xcd ..\obj\mass_test.o
 .debug_pubnames
                0x000010eb       0x34 ..\obj\partition.o
 .debug_pubnames
                0x0000111f       0x2e ..\obj\ir_key.o
 .debug_pubnames
                0x0000114d       0x25 ..\obj\upgrade_detect.o
 .debug_pubnames
                0x00001172      0x15d ..\obj\dev_detect_driver.o
 .debug_pubnames
                0x000012cf      0x142 ..\obj\get_bootup_info.o
 .debug_pubnames
                0x00001411       0x68 ..\obj\adc_key.o
 .debug_pubnames
                0x00001479       0xe6 ..\obj\sound_remind.o
 .debug_pubnames
                0x0000155f       0x4e ..\obj\browser.o
 .debug_pubnames
                0x000015ad       0x53 ..\obj\diskio.o
 .debug_pubnames
                0x00001600      0x123 ..\obj\rtc_control.o
 .debug_pubnames
                0x00001723       0x48 ..\obj\coding_key.o
 .debug_pubnames
                0x0000176b       0x34 ..\obj\string_convert.o
 .debug_pubnames
                0x0000179f       0x34 ..\obj\line_in_control.o
 .debug_pubnames
                0x000017d3       0xea ..\obj\radio.o
 .debug_pubnames
                0x000018bd       0x4a ..\obj\eq_params.o
 .debug_pubnames
                0x00001907      0x16f ..\obj\i2c.o
 .debug_pubnames
                0x00001a76       0x22 ..\obj\idle_control.o
 .debug_pubnames
                0x00001a98      0x14a ..\obj\radio_control.o
 .debug_pubnames
                0x00001be2       0x2a ..\obj\key.o
 .debug_pubnames
                0x00001c0c       0x38 ..\obj\task_main.o
 .debug_pubnames
                0x00001c44       0xe8 ..\obj\presearch.o
 .debug_pubnames
                0x00001d2c      0x107 ..\obj\power_management.o
 .debug_pubnames
                0x00001e33       0xf8 ..\obj\retarget.o

.debug_aranges  0x00000000      0x4a8
 .debug_aranges
                0x00000000       0x20 ..\obj\breakpoint.o
 .debug_aranges
                0x00000020       0x28 ..\obj\main.o
 .debug_aranges
                0x00000048       0x20 ..\obj\sys_vol.o
 .debug_aranges
                0x00000068       0x20 ..\obj\dev_state_machine.o
 .debug_aranges
                0x00000088       0x20 ..\obj\print.o
 .debug_aranges
                0x000000a8       0x28 ..\obj\debug_test.o
 .debug_aranges
                0x000000d0       0x20 ..\obj\RDA5807.o
 .debug_aranges
                0x000000f0       0x20 ..\obj\sys_app.o
 .debug_aranges
                0x00000110       0x20 ..\obj\player_control.o
 .debug_aranges
                0x00000130       0x28 ..\obj\startup.o
 .debug_aranges
                0x00000158       0x20 ..\obj\recorder_control.o
 .debug_aranges
                0x00000178       0x20 ..\obj\micro_adjust.o
 .debug_aranges
                0x00000198       0x20 ..\obj\mass_test.o
 .debug_aranges
                0x000001b8       0x20 ..\obj\partition.o
 .debug_aranges
                0x000001d8       0x20 ..\obj\ir_key.o
 .debug_aranges
                0x000001f8       0x20 ..\obj\upgrade_detect.o
 .debug_aranges
                0x00000218       0x20 ..\obj\dev_detect_driver.o
 .debug_aranges
                0x00000238       0x20 ..\obj\get_bootup_info.o
 .debug_aranges
                0x00000258       0x20 ..\obj\adc_key.o
 .debug_aranges
                0x00000278       0x20 ..\obj\sound_remind.o
 .debug_aranges
                0x00000298       0x20 ..\obj\browser.o
 .debug_aranges
                0x000002b8       0x20 ..\obj\diskio.o
 .debug_aranges
                0x000002d8       0x28 ..\obj\rtc_control.o
 .debug_aranges
                0x00000300       0x28 ..\obj\coding_key.o
 .debug_aranges
                0x00000328       0x20 ..\obj\string_convert.o
 .debug_aranges
                0x00000348       0x20 ..\obj\line_in_control.o
 .debug_aranges
                0x00000368       0x20 ..\obj\radio.o
 .debug_aranges
                0x00000388       0x20 ..\obj\eq_params.o
 .debug_aranges
                0x000003a8       0x20 ..\obj\i2c.o
 .debug_aranges
                0x000003c8       0x20 ..\obj\idle_control.o
 .debug_aranges
                0x000003e8       0x20 ..\obj\radio_control.o
 .debug_aranges
                0x00000408       0x20 ..\obj\key.o
 .debug_aranges
                0x00000428       0x20 ..\obj\task_main.o
 .debug_aranges
                0x00000448       0x20 ..\obj\presearch.o
 .debug_aranges
                0x00000468       0x20 ..\obj\power_management.o
 .debug_aranges
                0x00000488       0x20 ..\obj\retarget.o

.debug_ranges   0x00000000      0xa00
 .debug_ranges  0x00000000       0x48 ..\obj\breakpoint.o
 .debug_ranges  0x00000048       0x30 ..\obj\main.o
 .debug_ranges  0x00000078       0x78 ..\obj\sys_vol.o
 .debug_ranges  0x000000f0       0x80 ..\obj\dev_state_machine.o
 .debug_ranges  0x00000170       0x38 ..\obj\print.o
 .debug_ranges  0x000001a8       0x38 ..\obj\debug_test.o
 .debug_ranges  0x000001e0       0x18 ..\obj\sys_app.o
 .debug_ranges  0x000001f8      0x118 ..\obj\player_control.o
 .debug_ranges  0x00000310       0x48 ..\obj\startup.o
 .debug_ranges  0x00000358       0x48 ..\obj\recorder_control.o
 .debug_ranges  0x000003a0       0xc8 ..\obj\mass_test.o
 .debug_ranges  0x00000468       0x60 ..\obj\partition.o
 .debug_ranges  0x000004c8       0x80 ..\obj\ir_key.o
 .debug_ranges  0x00000548       0x30 ..\obj\adc_key.o
 .debug_ranges  0x00000578       0x48 ..\obj\browser.o
 .debug_ranges  0x000005c0      0x140 ..\obj\rtc_control.o
 .debug_ranges  0x00000700       0x48 ..\obj\coding_key.o
 .debug_ranges  0x00000748       0x30 ..\obj\string_convert.o
 .debug_ranges  0x00000778       0x48 ..\obj\i2c.o
 .debug_ranges  0x000007c0       0xa8 ..\obj\radio_control.o
 .debug_ranges  0x00000868       0x18 ..\obj\task_main.o
 .debug_ranges  0x00000880      0x130 ..\obj\presearch.o
 .debug_ranges  0x000009b0       0x50 ..\obj\power_management.o

.debug_frame    0x00000000     0x3618
 .debug_frame   0x00000000      0x138 ..\obj\breakpoint.o
 .debug_frame   0x00000138       0x78 ..\obj\main.o
 .debug_frame   0x000001b0      0x220 ..\obj\sys_vol.o
 .debug_frame   0x000003d0       0x9c ..\obj\dev_state_machine.o
 .debug_frame   0x0000046c      0x138 ..\obj\print.o
 .debug_frame   0x000005a4       0x94 ..\obj\debug_test.o
 .debug_frame   0x00000638      0x13c ..\obj\RDA5807.o
 .debug_frame   0x00000774      0x13c ..\obj\sys_app.o
 .debug_frame   0x000008b0      0x3f0 ..\obj\player_control.o
 .debug_frame   0x00000ca0       0xcc ..\obj\startup.o
 .debug_frame   0x00000d6c      0x3c8 ..\obj\recorder_control.o
 .debug_frame   0x00001134       0x28 ..\obj\micro_adjust.o
 .debug_frame   0x0000115c       0xd4 ..\obj\mass_test.o
 .debug_frame   0x00001230       0x3c ..\obj\partition.o
 .debug_frame   0x0000126c       0x44 ..\obj\ir_key.o
 .debug_frame   0x000012b0       0x30 ..\obj\upgrade_detect.o
 .debug_frame   0x000012e0      0x15c ..\obj\dev_detect_driver.o
 .debug_frame   0x0000143c      0x128 ..\obj\get_bootup_info.o
 .debug_frame   0x00001564       0x5c ..\obj\adc_key.o
 .debug_frame   0x000015c0       0xc4 ..\obj\sound_remind.o
 .debug_frame   0x00001684       0xc8 ..\obj\browser.o
 .debug_frame   0x0000174c       0x60 ..\obj\diskio.o
 .debug_frame   0x000017ac      0x178 ..\obj\rtc_control.o
 .debug_frame   0x00001924       0x50 ..\obj\coding_key.o
 .debug_frame   0x00001974       0x64 ..\obj\string_convert.o
 .debug_frame   0x000019d8       0x44 ..\obj\line_in_control.o
 .debug_frame   0x00001a1c      0x108 ..\obj\radio.o
 .debug_frame   0x00001b24       0x50 ..\obj\eq_params.o
 .debug_frame   0x00001b74      0x234 ..\obj\i2c.o
 .debug_frame   0x00001da8       0x30 ..\obj\idle_control.o
 .debug_frame   0x00001dd8      0x18c ..\obj\radio_control.o
 .debug_frame   0x00001f64       0x48 ..\obj\key.o
 .debug_frame   0x00001fac       0x50 ..\obj\task_main.o
 .debug_frame   0x00001ffc      0x120 ..\obj\presearch.o
 .debug_frame   0x0000211c       0xb0 ..\obj\power_management.o
 .debug_frame   0x000021cc      0x10c ..\obj\retarget.o
 .debug_frame   0x000022d8       0x34 d:/tkstudio/build/sourcery g++ lite/bin/../lib/gcc/arm-none-eabi/4.4.1/../../../../arm-none-eabi/lib/thumb2\libm.a(lib_a-s_cos.o)
 .debug_frame   0x0000230c       0x34 d:/tkstudio/build/sourcery g++ lite/bin/../lib/gcc/arm-none-eabi/4.4.1/../../../../arm-none-eabi/lib/thumb2\libm.a(lib_a-s_sin.o)
 .debug_frame   0x00002340       0x38 d:/tkstudio/build/sourcery g++ lite/bin/../lib/gcc/arm-none-eabi/4.4.1/../../../../arm-none-eabi/lib/thumb2\libm.a(lib_a-w_log10.o)
 .debug_frame   0x00002378       0x34 d:/tkstudio/build/sourcery g++ lite/bin/../lib/gcc/arm-none-eabi/4.4.1/../../../../arm-none-eabi/lib/thumb2\libm.a(lib_a-e_log10.o)
 .debug_frame   0x000023ac       0x3c d:/tkstudio/build/sourcery g++ lite/bin/../lib/gcc/arm-none-eabi/4.4.1/../../../../arm-none-eabi/lib/thumb2\libm.a(lib_a-e_rem_pio2.o)
 .debug_frame   0x000023e8       0x3c d:/tkstudio/build/sourcery g++ lite/bin/../lib/gcc/arm-none-eabi/4.4.1/../../../../arm-none-eabi/lib/thumb2\libm.a(lib_a-k_cos.o)
 .debug_frame   0x00002424       0x3c d:/tkstudio/build/sourcery g++ lite/bin/../lib/gcc/arm-none-eabi/4.4.1/../../../../arm-none-eabi/lib/thumb2\libm.a(lib_a-k_rem_pio2.o)
 .debug_frame   0x00002460       0x3c d:/tkstudio/build/sourcery g++ lite/bin/../lib/gcc/arm-none-eabi/4.4.1/../../../../arm-none-eabi/lib/thumb2\libm.a(lib_a-k_sin.o)
 .debug_frame   0x0000249c       0x20 d:/tkstudio/build/sourcery g++ lite/bin/../lib/gcc/arm-none-eabi/4.4.1/../../../../arm-none-eabi/lib/thumb2\libm.a(lib_a-s_fabs.o)
 .debug_frame   0x000024bc       0x34 d:/tkstudio/build/sourcery g++ lite/bin/../lib/gcc/arm-none-eabi/4.4.1/../../../../arm-none-eabi/lib/thumb2\libm.a(lib_a-s_floor.o)
 .debug_frame   0x000024f0       0x20 d:/tkstudio/build/sourcery g++ lite/bin/../lib/gcc/arm-none-eabi/4.4.1/../../../../arm-none-eabi/lib/thumb2\libm.a(lib_a-s_isnand.o)
 .debug_frame   0x00002510       0x20 d:/tkstudio/build/sourcery g++ lite/bin/../lib/gcc/arm-none-eabi/4.4.1/../../../../arm-none-eabi/lib/thumb2\libm.a(lib_a-s_matherr.o)
 .debug_frame   0x00002530       0x20 d:/tkstudio/build/sourcery g++ lite/bin/../lib/gcc/arm-none-eabi/4.4.1/../../../../arm-none-eabi/lib/thumb2\libm.a(lib_a-s_nan.o)
 .debug_frame   0x00002550       0x30 d:/tkstudio/build/sourcery g++ lite/bin/../lib/gcc/arm-none-eabi/4.4.1/../../../../arm-none-eabi/lib/thumb2\libm.a(lib_a-s_scalbn.o)
 .debug_frame   0x00002580       0x3c d:/tkstudio/build/sourcery g++ lite/bin/../lib/gcc/arm-none-eabi/4.4.1/../../../../arm-none-eabi/lib/thumb2\libm.a(lib_a-e_log.o)
 .debug_frame   0x000025bc       0x28 d:/tkstudio/build/sourcery g++ lite/bin/../lib/gcc/arm-none-eabi/4.4.1/../../../../arm-none-eabi/lib/thumb2\libm.a(lib_a-s_copysign.o)
 .debug_frame   0x000025e4       0x20 d:/tkstudio/build/sourcery g++ lite/bin/../lib/gcc/arm-none-eabi/4.4.1/thumb2\libgcc.a(_divsi3.o)
 .debug_frame   0x00002604       0x50 d:/tkstudio/build/sourcery g++ lite/bin/../lib/gcc/arm-none-eabi/4.4.1/thumb2\libgcc.a(bpabi.o)
 .debug_frame   0x00002654       0x3c d:/tkstudio/build/sourcery g++ lite/bin/../lib/gcc/arm-none-eabi/4.4.1/thumb2\libgcc.a(_divdi3.o)
 .debug_frame   0x00002690       0x3c d:/tkstudio/build/sourcery g++ lite/bin/../lib/gcc/arm-none-eabi/4.4.1/thumb2\libgcc.a(_udivdi3.o)
 .debug_frame   0x000026cc       0x20 d:/tkstudio/build/sourcery g++ lite/bin/../lib/gcc/arm-none-eabi/4.4.1/thumb2\libgcc.a(_udivsi3.o)
 .debug_frame   0x000026ec       0x30 d:/tkstudio/build/sourcery g++ lite/bin/../lib/gcc/arm-none-eabi/4.4.1/../../../../arm-none-eabi/lib/thumb2\libc.a(lib_a-atoi.o)
 .debug_frame   0x0000271c       0x20 d:/tkstudio/build/sourcery g++ lite/bin/../lib/gcc/arm-none-eabi/4.4.1/../../../../arm-none-eabi/lib/thumb2\libc.a(lib_a-errno.o)
 .debug_frame   0x0000273c       0x28 d:/tkstudio/build/sourcery g++ lite/bin/../lib/gcc/arm-none-eabi/4.4.1/../../../../arm-none-eabi/lib/thumb2\libc.a(lib_a-memcmp.o)
 .debug_frame   0x00002764       0x34 d:/tkstudio/build/sourcery g++ lite/bin/../lib/gcc/arm-none-eabi/4.4.1/../../../../arm-none-eabi/lib/thumb2\libc.a(lib_a-memcpy.o)
 .debug_frame   0x00002798       0x2c d:/tkstudio/build/sourcery g++ lite/bin/../lib/gcc/arm-none-eabi/4.4.1/../../../../arm-none-eabi/lib/thumb2\libc.a(lib_a-memmove.o)
 .debug_frame   0x000027c4       0x28 d:/tkstudio/build/sourcery g++ lite/bin/../lib/gcc/arm-none-eabi/4.4.1/../../../../arm-none-eabi/lib/thumb2\libc.a(lib_a-memset.o)
 .debug_frame   0x000027ec       0x40 d:/tkstudio/build/sourcery g++ lite/bin/../lib/gcc/arm-none-eabi/4.4.1/../../../../arm-none-eabi/lib/thumb2\libc.a(lib_a-puts.o)
 .debug_frame   0x0000282c       0x78 d:/tkstudio/build/sourcery g++ lite/bin/../lib/gcc/arm-none-eabi/4.4.1/../../../../arm-none-eabi/lib/thumb2\libc.a(lib_a-sscanf.o)
 .debug_frame   0x000028a4       0x2c d:/tkstudio/build/sourcery g++ lite/bin/../lib/gcc/arm-none-eabi/4.4.1/../../../../arm-none-eabi/lib/thumb2\libc.a(lib_a-strcasecmp.o)
 .debug_frame   0x000028d0       0x28 d:/tkstudio/build/sourcery g++ lite/bin/../lib/gcc/arm-none-eabi/4.4.1/../../../../arm-none-eabi/lib/thumb2\libc.a(lib_a-strchr.o)
 .debug_frame   0x000028f8       0x30 d:/tkstudio/build/sourcery g++ lite/bin/../lib/gcc/arm-none-eabi/4.4.1/../../../../arm-none-eabi/lib/thumb2\libc.a(lib_a-strcmp.o)
 .debug_frame   0x00002928       0x20 d:/tkstudio/build/sourcery g++ lite/bin/../lib/gcc/arm-none-eabi/4.4.1/../../../../arm-none-eabi/lib/thumb2\libc.a(lib_a-strlen.o)
 .debug_frame   0x00002948       0x30 d:/tkstudio/build/sourcery g++ lite/bin/../lib/gcc/arm-none-eabi/4.4.1/../../../../arm-none-eabi/lib/thumb2\libc.a(lib_a-strncasecmp.o)
 .debug_frame   0x00002978       0x28 d:/tkstudio/build/sourcery g++ lite/bin/../lib/gcc/arm-none-eabi/4.4.1/../../../../arm-none-eabi/lib/thumb2\libc.a(lib_a-strncpy.o)
 .debug_frame   0x000029a0       0x28 d:/tkstudio/build/sourcery g++ lite/bin/../lib/gcc/arm-none-eabi/4.4.1/../../../../arm-none-eabi/lib/thumb2\libc.a(lib_a-strspn.o)
 .debug_frame   0x000029c8       0x54 d:/tkstudio/build/sourcery g++ lite/bin/../lib/gcc/arm-none-eabi/4.4.1/../../../../arm-none-eabi/lib/thumb2\libc.a(lib_a-strtol.o)
 .debug_frame   0x00002a1c       0x74 d:/tkstudio/build/sourcery g++ lite/bin/../lib/gcc/arm-none-eabi/4.4.1/../../../../arm-none-eabi/lib/thumb2\libc.a(lib_a-svfscanf.o)
 .debug_frame   0x00002a90       0x60 d:/tkstudio/build/sourcery g++ lite/bin/../lib/gcc/arm-none-eabi/4.4.1/../../../../arm-none-eabi/lib/thumb2\libc.a(lib_a-ungetc.o)
 .debug_frame   0x00002af0       0x40 d:/tkstudio/build/sourcery g++ lite/bin/../lib/gcc/arm-none-eabi/4.4.1/../../../../arm-none-eabi/lib/thumb2\libc.a(lib_a-fflush.o)
 .debug_frame   0x00002b30      0x11c d:/tkstudio/build/sourcery g++ lite/bin/../lib/gcc/arm-none-eabi/4.4.1/../../../../arm-none-eabi/lib/thumb2\libc.a(lib_a-findfp.o)
 .debug_frame   0x00002c4c       0x50 d:/tkstudio/build/sourcery g++ lite/bin/../lib/gcc/arm-none-eabi/4.4.1/../../../../arm-none-eabi/lib/thumb2\libc.a(lib_a-freer.o)
 .debug_frame   0x00002c9c       0x3c d:/tkstudio/build/sourcery g++ lite/bin/../lib/gcc/arm-none-eabi/4.4.1/../../../../arm-none-eabi/lib/thumb2\libc.a(lib_a-fvwrite.o)
 .debug_frame   0x00002cd8       0x54 d:/tkstudio/build/sourcery g++ lite/bin/../lib/gcc/arm-none-eabi/4.4.1/../../../../arm-none-eabi/lib/thumb2\libc.a(lib_a-fwalk.o)
 .debug_frame   0x00002d2c       0x20 d:/tkstudio/build/sourcery g++ lite/bin/../lib/gcc/arm-none-eabi/4.4.1/../../../../arm-none-eabi/lib/thumb2\libc.a(lib_a-iswspace.o)
 .debug_frame   0x00002d4c       0x6c d:/tkstudio/build/sourcery g++ lite/bin/../lib/gcc/arm-none-eabi/4.4.1/../../../../arm-none-eabi/lib/thumb2\libc.a(lib_a-locale.o)
 .debug_frame   0x00002db8       0x3c d:/tkstudio/build/sourcery g++ lite/bin/../lib/gcc/arm-none-eabi/4.4.1/../../../../arm-none-eabi/lib/thumb2\libc.a(lib_a-mallocr.o)
 .debug_frame   0x00002df4       0x50 d:/tkstudio/build/sourcery g++ lite/bin/../lib/gcc/arm-none-eabi/4.4.1/../../../../arm-none-eabi/lib/thumb2\libc.a(lib_a-mbrtowc.o)
 .debug_frame   0x00002e44       0x24 d:/tkstudio/build/sourcery g++ lite/bin/../lib/gcc/arm-none-eabi/4.4.1/../../../../arm-none-eabi/lib/thumb2\libc.a(lib_a-mbtowc_r.o)
 .debug_frame   0x00002e68       0x28 d:/tkstudio/build/sourcery g++ lite/bin/../lib/gcc/arm-none-eabi/4.4.1/../../../../arm-none-eabi/lib/thumb2\libc.a(lib_a-memchr.o)
 .debug_frame   0x00002e90       0x30 d:/tkstudio/build/sourcery g++ lite/bin/../lib/gcc/arm-none-eabi/4.4.1/../../../../arm-none-eabi/lib/thumb2\libc.a(lib_a-mlock.o)
 .debug_frame   0x00002ec0       0x3c d:/tkstudio/build/sourcery g++ lite/bin/../lib/gcc/arm-none-eabi/4.4.1/../../../../arm-none-eabi/lib/thumb2\libc.a(lib_a-reallocr.o)
 .debug_frame   0x00002efc       0x2c d:/tkstudio/build/sourcery g++ lite/bin/../lib/gcc/arm-none-eabi/4.4.1/../../../../arm-none-eabi/lib/thumb2\libc.a(lib_a-sccl.o)
 .debug_frame   0x00002f28       0x20 d:/tkstudio/build/sourcery g++ lite/bin/../lib/gcc/arm-none-eabi/4.4.1/../../../../arm-none-eabi/lib/thumb2\libc.a(lib_a-sf_nan.o)
 .debug_frame   0x00002f48       0x5c d:/tkstudio/build/sourcery g++ lite/bin/../lib/gcc/arm-none-eabi/4.4.1/../../../../arm-none-eabi/lib/thumb2\libc.a(lib_a-sprintf.o)
 .debug_frame   0x00002fa4       0x70 d:/tkstudio/build/sourcery g++ lite/bin/../lib/gcc/arm-none-eabi/4.4.1/../../../../arm-none-eabi/lib/thumb2\libc.a(lib_a-stdio.o)
 .debug_frame   0x00003014       0x6c d:/tkstudio/build/sourcery g++ lite/bin/../lib/gcc/arm-none-eabi/4.4.1/../../../../arm-none-eabi/lib/thumb2\libc.a(lib_a-strtod.o)
 .debug_frame   0x00003080       0x3c d:/tkstudio/build/sourcery g++ lite/bin/../lib/gcc/arm-none-eabi/4.4.1/../../../../arm-none-eabi/lib/thumb2\libc.a(lib_a-strtoll_r.o)
 .debug_frame   0x000030bc       0x54 d:/tkstudio/build/sourcery g++ lite/bin/../lib/gcc/arm-none-eabi/4.4.1/../../../../arm-none-eabi/lib/thumb2\libc.a(lib_a-strtoul.o)
 .debug_frame   0x00003110       0x3c d:/tkstudio/build/sourcery g++ lite/bin/../lib/gcc/arm-none-eabi/4.4.1/../../../../arm-none-eabi/lib/thumb2\libc.a(lib_a-strtoull_r.o)
 .debug_frame   0x0000314c       0x68 d:/tkstudio/build/sourcery g++ lite/bin/../lib/gcc/arm-none-eabi/4.4.1/../../../../arm-none-eabi/lib/thumb2\libc.a(lib_a-svfprintf.o)
 .debug_frame   0x000031b4       0x2c d:/tkstudio/build/sourcery g++ lite/bin/../lib/gcc/arm-none-eabi/4.4.1/../../../../arm-none-eabi/lib/thumb2\libc.a(lib_a-wsetup.o)
 .debug_frame   0x000031e0       0x64 d:/tkstudio/build/sourcery g++ lite/bin/../lib/gcc/arm-none-eabi/4.4.1/../../../../arm-none-eabi/lib/thumb2\libc.a(lib_a-dtoa.o)
 .debug_frame   0x00003244       0x3c d:/tkstudio/build/sourcery g++ lite/bin/../lib/gcc/arm-none-eabi/4.4.1/../../../../arm-none-eabi/lib/thumb2\libc.a(lib_a-fclose.o)
 .debug_frame   0x00003280       0x6c d:/tkstudio/build/sourcery g++ lite/bin/../lib/gcc/arm-none-eabi/4.4.1/../../../../arm-none-eabi/lib/thumb2\libc.a(lib_a-gdtoa-gethex.o)
 .debug_frame   0x000032ec       0x3c d:/tkstudio/build/sourcery g++ lite/bin/../lib/gcc/arm-none-eabi/4.4.1/../../../../arm-none-eabi/lib/thumb2\libc.a(lib_a-gdtoa-hexnan.o)
 .debug_frame   0x00003328       0x34 d:/tkstudio/build/sourcery g++ lite/bin/../lib/gcc/arm-none-eabi/4.4.1/../../../../arm-none-eabi/lib/thumb2\libc.a(lib_a-makebuf.o)
 .debug_frame   0x0000335c       0x30 d:/tkstudio/build/sourcery g++ lite/bin/../lib/gcc/arm-none-eabi/4.4.1/../../../../arm-none-eabi/lib/thumb2\libc.a(lib_a-malloc.o)
 .debug_frame   0x0000338c      0x240 d:/tkstudio/build/sourcery g++ lite/bin/../lib/gcc/arm-none-eabi/4.4.1/../../../../arm-none-eabi/lib/thumb2\libc.a(lib_a-mprec.o)
 .debug_frame   0x000035cc       0x20 d:/tkstudio/build/sourcery g++ lite/bin/../lib/gcc/arm-none-eabi/4.4.1/../../../../arm-none-eabi/lib/thumb2\libc.a(lib_a-s_isinfd.o)
 .debug_frame   0x000035ec       0x2c d:/tkstudio/build/sourcery g++ lite/bin/../lib/gcc/arm-none-eabi/4.4.1/../../../../arm-none-eabi/lib/thumb2\libc.a(lib_a-callocr.o)
